GAS LISTING /tmp/ccxQJAlg.s 			page 1


   1              		.file	"Ksemaphore.cpp"
   2              		.option pic
   3              		.option norelax
   4              		.text
   5              	.Ltext0:
   6              		.align	2
   7              		.globl	_ZN10Ksemaphore5blockEv
   9              	_ZN10Ksemaphore5blockEv:
  10              	.LFB26:
  11              		.file 1 "src/Ksemaphore.cpp"
   1:src/Ksemaphore.cpp **** #include "../h/Ksemaphore.hpp"
   2:src/Ksemaphore.cpp **** 
   3:src/Ksemaphore.cpp **** void Ksemaphore::block() {
  12              		.loc 1 3 26
  13              		.cfi_startproc
  14              	.LVL0:
  15 0000 130101FE 		addi	sp,sp,-32
  16              		.cfi_def_cfa_offset 32
  17 0004 233C1100 		sd	ra,24(sp)
  18 0008 23388100 		sd	s0,16(sp)
  19 000c 23349100 		sd	s1,8(sp)
  20 0010 23302101 		sd	s2,0(sp)
  21              		.cfi_offset 1, -8
  22              		.cfi_offset 8, -16
  23              		.cfi_offset 9, -24
  24              		.cfi_offset 18, -32
  25 0014 13040102 		addi	s0,sp,32
  26              		.cfi_def_cfa 8, 0
  27 0018 93040500 		mv	s1,a0
   4:src/Ksemaphore.cpp ****     blocked.addLast(TCB::running);
  28              		.loc 1 4 5
  29              		.loc 1 4 20 is_stmt 0
  30 001c 97070000 		la	a5,_ZN3TCB7runningE
  30      83B70700 
  31 0024 03B90700 		ld	s2,0(a5)
  32              	.LVL1:
  33              	.LBB12:
  34              	.LBB13:
  35              		.file 2 "src/../h/list.hpp"
   1:src/../h/list.hpp **** //
   2:src/../h/list.hpp **** // Created by os on 8/27/22.
   3:src/../h/list.hpp **** //
   4:src/../h/list.hpp **** 
   5:src/../h/list.hpp **** #ifndef PROJECT_BASE_LIST_HPP
   6:src/../h/list.hpp **** #define PROJECT_BASE_LIST_HPP
   7:src/../h/list.hpp **** 
   8:src/../h/list.hpp **** #include "../lib/mem.h"
   9:src/../h/list.hpp **** 
  10:src/../h/list.hpp **** template<typename T>
  11:src/../h/list.hpp **** class List
  12:src/../h/list.hpp **** {
  13:src/../h/list.hpp **** private:
  14:src/../h/list.hpp ****     struct Elem
  15:src/../h/list.hpp ****     {
  16:src/../h/list.hpp ****         T *data;
  17:src/../h/list.hpp ****         Elem *next;
  18:src/../h/list.hpp **** 
GAS LISTING /tmp/ccxQJAlg.s 			page 2


  19:src/../h/list.hpp ****         Elem(T *data, Elem *next) : data(data), next(next) {}
  20:src/../h/list.hpp ****     };
  21:src/../h/list.hpp **** 
  22:src/../h/list.hpp ****     Elem *head, *tail;
  23:src/../h/list.hpp **** 
  24:src/../h/list.hpp **** public:
  25:src/../h/list.hpp ****     List() : head(0), tail(0) {}
  26:src/../h/list.hpp **** 
  27:src/../h/list.hpp ****     List(const List<T> &) = delete;
  28:src/../h/list.hpp **** 
  29:src/../h/list.hpp ****     List<T> &operator=(const List<T> &) = delete;
  30:src/../h/list.hpp **** 
  31:src/../h/list.hpp ****     void addFirst(T *data)
  32:src/../h/list.hpp ****     {
  33:src/../h/list.hpp ****         Elem *elem = new Elem(data, head);
  34:src/../h/list.hpp ****         head = elem;
  35:src/../h/list.hpp ****         if (!tail) { tail = head; }
  36:src/../h/list.hpp ****     }
  37:src/../h/list.hpp **** 
  38:src/../h/list.hpp ****     void addLast(T *data)
  39:src/../h/list.hpp ****     {
  40:src/../h/list.hpp ****         Elem *elem = new Elem(data, 0);
  36              		.loc 2 40 22
  37 0028 13050001 		li	a0,16
  38              	.LVL2:
  39 002c 97000000 		call	_Znwm@plt
  39      E7800000 
  40              	.LVL3:
  41              	.LBB14:
  42              	.LBB15:
  19:src/../h/list.hpp ****     };
  43              		.loc 2 19 58
  44 0034 23302501 		sd	s2,0(a0)
  45 0038 23340500 		sd	zero,8(a0)
  46              	.LVL4:
  47              	.LBE15:
  48              	.LBE14:
  41:src/../h/list.hpp ****         if (tail)
  49              		.loc 2 41 13
  50 003c 83B70401 		ld	a5,16(s1)
  51              		.loc 2 41 9
  52 0040 638C0702 		beqz	a5,.L2
  42:src/../h/list.hpp ****         {
  43:src/../h/list.hpp ****             tail->next = elem;
  53              		.loc 2 43 13
  54 0044 23B4A700 		sd	a0,8(a5)
  44:src/../h/list.hpp ****             tail = elem;
  55              		.loc 2 44 13
  56 0048 23B8A400 		sd	a0,16(s1)
  57              	.L3:
  58              	.LVL5:
  59              	.LBE13:
  60              	.LBE12:
   5:src/Ksemaphore.cpp ****     TCB::running=Scheduler::get();
  61              		.loc 1 5 5 is_stmt 1
  62              		.loc 1 5 32 is_stmt 0
  63 004c 97000000 		call	_ZN9Scheduler3getEv@plt
GAS LISTING /tmp/ccxQJAlg.s 			page 3


  63      E7800000 
  64              	.LVL6:
  65              		.loc 1 5 17
  66 0054 97070000 		la	a5,_ZN3TCB7runningE
  66      83B70700 
  67 005c 23B0A700 		sd	a0,0(a5)
   6:src/Ksemaphore.cpp **** 
   7:src/Ksemaphore.cpp **** }
  68              		.loc 1 7 1
  69 0060 83308101 		ld	ra,24(sp)
  70              		.cfi_remember_state
  71              		.cfi_restore 1
  72 0064 03340101 		ld	s0,16(sp)
  73              		.cfi_restore 8
  74              		.cfi_def_cfa 2, 32
  75 0068 83348100 		ld	s1,8(sp)
  76              		.cfi_restore 9
  77              	.LVL7:
  78 006c 03390100 		ld	s2,0(sp)
  79              		.cfi_restore 18
  80 0070 13010102 		addi	sp,sp,32
  81              		.cfi_def_cfa_offset 0
  82 0074 67800000 		jr	ra
  83              	.LVL8:
  84              	.L2:
  85              		.cfi_restore_state
  86              	.LBB17:
  87              	.LBB16:
  45:src/../h/list.hpp ****         } else
  46:src/../h/list.hpp ****         {
  47:src/../h/list.hpp ****             head = tail = elem;
  88              		.loc 2 47 13
  89 0078 23B8A400 		sd	a0,16(s1)
  90 007c 23B4A400 		sd	a0,8(s1)
  91 0080 6FF0DFFC 		j	.L3
  92              	.LBE16:
  93              	.LBE17:
  94              		.cfi_endproc
  95              	.LFE26:
  97              		.align	2
  98              		.globl	_ZN10Ksemaphore7unblockEv
 100              	_ZN10Ksemaphore7unblockEv:
 101              	.LFB27:
   8:src/Ksemaphore.cpp **** 
   9:src/Ksemaphore.cpp **** void Ksemaphore::unblock() {
 102              		.loc 1 9 28 is_stmt 1
 103              		.cfi_startproc
 104              	.LVL9:
 105 0084 130101FE 		addi	sp,sp,-32
 106              		.cfi_def_cfa_offset 32
 107 0088 233C1100 		sd	ra,24(sp)
 108 008c 23388100 		sd	s0,16(sp)
 109 0090 23349100 		sd	s1,8(sp)
 110              		.cfi_offset 1, -8
 111              		.cfi_offset 8, -16
 112              		.cfi_offset 9, -24
 113 0094 13040102 		addi	s0,sp,32
GAS LISTING /tmp/ccxQJAlg.s 			page 4


 114              		.cfi_def_cfa 8, 0
 115 0098 93070500 		mv	a5,a0
  10:src/Ksemaphore.cpp ****     TCB *t = blocked.removeFirst();
 116              		.loc 1 10 5
 117              	.LVL10:
 118              	.LBB18:
 119              	.LBB19:
  48:src/../h/list.hpp ****         }
  49:src/../h/list.hpp ****     }
  50:src/../h/list.hpp **** 
  51:src/../h/list.hpp ****     T *removeFirst()
  52:src/../h/list.hpp ****     {
  53:src/../h/list.hpp ****         if (!head) { return 0; }
 120              		.loc 2 53 14 is_stmt 0
 121 009c 03358500 		ld	a0,8(a0)
 122              	.LVL11:
 123              		.loc 2 53 9
 124 00a0 63020504 		beqz	a0,.L8
 125              	.LVL12:
  54:src/../h/list.hpp **** 
  55:src/../h/list.hpp ****         Elem *elem = head;
  56:src/../h/list.hpp ****         head = head->next;
 126              		.loc 2 56 22
 127 00a4 03378500 		ld	a4,8(a0)
 128              		.loc 2 56 9
 129 00a8 23B4E700 		sd	a4,8(a5)
  57:src/../h/list.hpp ****         if (!head) { tail = 0; }
 130              		.loc 2 57 9
 131 00ac 63080702 		beqz	a4,.L10
 132              	.L7:
  58:src/../h/list.hpp **** 
  59:src/../h/list.hpp ****         T *ret = elem->data;
 133              		.loc 2 59 12
 134 00b0 83340500 		ld	s1,0(a0)
 135              	.LVL13:
  60:src/../h/list.hpp ****         delete elem;
 136              		.loc 2 60 9
 137 00b4 97000000 		call	_ZdlPv@plt
 137      E7800000 
 138              	.LVL14:
 139              	.L6:
 140              	.LBE19:
 141              	.LBE18:
  11:src/Ksemaphore.cpp ****     Scheduler::put(t);
 142              		.loc 1 11 5 is_stmt 1
 143              		.loc 1 11 19 is_stmt 0
 144 00bc 13850400 		mv	a0,s1
 145 00c0 97000000 		call	_ZN9Scheduler3putEP3TCB@plt
 145      E7800000 
 146              	.LVL15:
  12:src/Ksemaphore.cpp **** }
 147              		.loc 1 12 1
 148 00c8 83308101 		ld	ra,24(sp)
 149              		.cfi_remember_state
 150              		.cfi_restore 1
 151 00cc 03340101 		ld	s0,16(sp)
 152              		.cfi_restore 8
GAS LISTING /tmp/ccxQJAlg.s 			page 5


 153              		.cfi_def_cfa 2, 32
 154 00d0 83348100 		ld	s1,8(sp)
 155              		.cfi_restore 9
 156              	.LVL16:
 157 00d4 13010102 		addi	sp,sp,32
 158              		.cfi_def_cfa_offset 0
 159 00d8 67800000 		jr	ra
 160              	.LVL17:
 161              	.L10:
 162              		.cfi_restore_state
 163              	.LBB21:
 164              	.LBB20:
  57:src/../h/list.hpp **** 
 165              		.loc 2 57 22
 166 00dc 23B80700 		sd	zero,16(a5)
 167 00e0 6FF01FFD 		j	.L7
 168              	.LVL18:
 169              	.L8:
  53:src/../h/list.hpp **** 
 170              		.loc 2 53 29
 171 00e4 93040500 		mv	s1,a0
 172 00e8 6FF05FFD 		j	.L6
 173              	.LBE20:
 174              	.LBE21:
 175              		.cfi_endproc
 176              	.LFE27:
 178              		.align	2
 179              		.globl	_ZN10Ksemaphore4waitEv
 181              	_ZN10Ksemaphore4waitEv:
 182              	.LFB28:
  13:src/Ksemaphore.cpp **** 
  14:src/Ksemaphore.cpp **** int Ksemaphore::wait() {
 183              		.loc 1 14 24 is_stmt 1
 184              		.cfi_startproc
 185              	.LVL19:
  15:src/Ksemaphore.cpp ****     if(--val<0){
 186              		.loc 1 15 5
 187              		.loc 1 15 10 is_stmt 0
 188 00ec 83270500 		lw	a5,0(a0)
 189              		.loc 1 15 8
 190 00f0 9B87F7FF 		addiw	a5,a5,-1
 191              		.loc 1 15 13
 192 00f4 2320F500 		sw	a5,0(a0)
 193              		.loc 1 15 5
 194 00f8 13970702 		slli	a4,a5,32
 195 00fc 63580702 		bgez	a4,.L13
  14:src/Ksemaphore.cpp ****     if(--val<0){
 196              		.loc 1 14 24
 197 0100 130101FF 		addi	sp,sp,-16
 198              		.cfi_def_cfa_offset 16
 199 0104 23341100 		sd	ra,8(sp)
 200 0108 23308100 		sd	s0,0(sp)
 201              		.cfi_offset 1, -8
 202              		.cfi_offset 8, -16
 203 010c 13040101 		addi	s0,sp,16
 204              		.cfi_def_cfa 8, 0
  16:src/Ksemaphore.cpp ****         block();
GAS LISTING /tmp/ccxQJAlg.s 			page 6


 205              		.loc 1 16 9 is_stmt 1
 206              		.loc 1 16 14 is_stmt 0
 207 0110 97000000 		call	_ZN10Ksemaphore5blockEv
 207      E7800000 
 208              	.LVL20:
  17:src/Ksemaphore.cpp ****         return 0;
 209              		.loc 1 17 9 is_stmt 1
 210              		.loc 1 17 16 is_stmt 0
 211 0118 13050000 		li	a0,0
  18:src/Ksemaphore.cpp ****     }
  19:src/Ksemaphore.cpp ****     return -1;
  20:src/Ksemaphore.cpp **** }
 212              		.loc 1 20 1
 213 011c 83308100 		ld	ra,8(sp)
 214              		.cfi_restore 1
 215 0120 03340100 		ld	s0,0(sp)
 216              		.cfi_restore 8
 217              		.cfi_def_cfa 2, 16
 218 0124 13010101 		addi	sp,sp,16
 219              		.cfi_def_cfa_offset 0
 220 0128 67800000 		jr	ra
 221              	.LVL21:
 222              	.L13:
  19:src/Ksemaphore.cpp **** }
 223              		.loc 1 19 13
 224 012c 1305F0FF 		li	a0,-1
 225              	.LVL22:
 226              		.loc 1 20 1
 227 0130 67800000 		ret
 228              		.cfi_endproc
 229              	.LFE28:
 231              		.align	2
 232              		.globl	_ZN10Ksemaphore6signalEv
 234              	_ZN10Ksemaphore6signalEv:
 235              	.LFB29:
  21:src/Ksemaphore.cpp **** 
  22:src/Ksemaphore.cpp **** int Ksemaphore::signal() {
 236              		.loc 1 22 26 is_stmt 1
 237              		.cfi_startproc
 238              	.LVL23:
  23:src/Ksemaphore.cpp ****     if(++val<=0) {
 239              		.loc 1 23 5
 240              		.loc 1 23 10 is_stmt 0
 241 0134 83270500 		lw	a5,0(a0)
 242              		.loc 1 23 8
 243 0138 9B871700 		addiw	a5,a5,1
 244 013c 1B870700 		sext.w	a4,a5
 245              		.loc 1 23 13
 246 0140 2320F500 		sw	a5,0(a0)
 247              		.loc 1 23 5
 248 0144 6348E002 		bgtz	a4,.L20
  22:src/Ksemaphore.cpp ****     if(++val<=0) {
 249              		.loc 1 22 26
 250 0148 130101FF 		addi	sp,sp,-16
 251              		.cfi_def_cfa_offset 16
 252 014c 23341100 		sd	ra,8(sp)
 253 0150 23308100 		sd	s0,0(sp)
GAS LISTING /tmp/ccxQJAlg.s 			page 7


 254              		.cfi_offset 1, -8
 255              		.cfi_offset 8, -16
 256 0154 13040101 		addi	s0,sp,16
 257              		.cfi_def_cfa 8, 0
  24:src/Ksemaphore.cpp ****         unblock();
 258              		.loc 1 24 9 is_stmt 1
 259              		.loc 1 24 16 is_stmt 0
 260 0158 97000000 		call	_ZN10Ksemaphore7unblockEv
 260      E7800000 
 261              	.LVL24:
  25:src/Ksemaphore.cpp ****         return 0;
 262              		.loc 1 25 9 is_stmt 1
 263              		.loc 1 25 16 is_stmt 0
 264 0160 13050000 		li	a0,0
  26:src/Ksemaphore.cpp ****     }
  27:src/Ksemaphore.cpp ****     return -1;
  28:src/Ksemaphore.cpp **** }
 265              		.loc 1 28 1
 266 0164 83308100 		ld	ra,8(sp)
 267              		.cfi_restore 1
 268 0168 03340100 		ld	s0,0(sp)
 269              		.cfi_restore 8
 270              		.cfi_def_cfa 2, 16
 271 016c 13010101 		addi	sp,sp,16
 272              		.cfi_def_cfa_offset 0
 273 0170 67800000 		jr	ra
 274              	.LVL25:
 275              	.L20:
  27:src/Ksemaphore.cpp **** }
 276              		.loc 1 27 13
 277 0174 1305F0FF 		li	a0,-1
 278              	.LVL26:
 279              		.loc 1 28 1
 280 0178 67800000 		ret
 281              		.cfi_endproc
 282              	.LFE29:
 284              	.Letext0:
 285              		.file 3 "src/../h/../lib/hw.h"
 286              		.file 4 "src/../h/scheduler.hpp"
 287              		.file 5 "src/../h/TCB.hpp"
 288              		.file 6 "src/../h/Ksemaphore.hpp"
GAS LISTING /tmp/ccxQJAlg.s 			page 8


DEFINED SYMBOLS
                            *ABS*:0000000000000000 Ksemaphore.cpp
     /tmp/ccxQJAlg.s:9      .text:0000000000000000 _ZN10Ksemaphore5blockEv
     /tmp/ccxQJAlg.s:13     .text:0000000000000000 .L0 
     /tmp/ccxQJAlg.s:15     .text:0000000000000000 .L0 
     /tmp/ccxQJAlg.s:16     .text:0000000000000004 .L0 
     /tmp/ccxQJAlg.s:21     .text:0000000000000014 .L0 
     /tmp/ccxQJAlg.s:22     .text:0000000000000014 .L0 
     /tmp/ccxQJAlg.s:23     .text:0000000000000014 .L0 
     /tmp/ccxQJAlg.s:24     .text:0000000000000014 .L0 
     /tmp/ccxQJAlg.s:26     .text:0000000000000018 .L0 
     /tmp/ccxQJAlg.s:29     .text:000000000000001c .L0 
     /tmp/ccxQJAlg.s:30     .text:000000000000001c .L0 
     /tmp/ccxQJAlg.s:37     .text:0000000000000028 .L0 
     /tmp/ccxQJAlg.s:44     .text:0000000000000034 .L0 
     /tmp/ccxQJAlg.s:50     .text:000000000000003c .L0 
     /tmp/ccxQJAlg.s:52     .text:0000000000000040 .L0 
     /tmp/ccxQJAlg.s:54     .text:0000000000000044 .L0 
     /tmp/ccxQJAlg.s:56     .text:0000000000000048 .L0 
     /tmp/ccxQJAlg.s:62     .text:000000000000004c .L0 
     /tmp/ccxQJAlg.s:63     .text:000000000000004c .L0 
     /tmp/ccxQJAlg.s:66     .text:0000000000000054 .L0 
     /tmp/ccxQJAlg.s:69     .text:0000000000000060 .L0 
     /tmp/ccxQJAlg.s:70     .text:0000000000000064 .L0 
     /tmp/ccxQJAlg.s:71     .text:0000000000000064 .L0 
     /tmp/ccxQJAlg.s:73     .text:0000000000000068 .L0 
     /tmp/ccxQJAlg.s:74     .text:0000000000000068 .L0 
     /tmp/ccxQJAlg.s:76     .text:000000000000006c .L0 
     /tmp/ccxQJAlg.s:79     .text:0000000000000070 .L0 
     /tmp/ccxQJAlg.s:81     .text:0000000000000074 .L0 
     /tmp/ccxQJAlg.s:85     .text:0000000000000078 .L0 
     /tmp/ccxQJAlg.s:89     .text:0000000000000078 .L0 
     /tmp/ccxQJAlg.s:94     .text:0000000000000084 .L0 
     /tmp/ccxQJAlg.s:100    .text:0000000000000084 _ZN10Ksemaphore7unblockEv
     /tmp/ccxQJAlg.s:103    .text:0000000000000084 .L0 
     /tmp/ccxQJAlg.s:105    .text:0000000000000084 .L0 
     /tmp/ccxQJAlg.s:106    .text:0000000000000088 .L0 
     /tmp/ccxQJAlg.s:110    .text:0000000000000094 .L0 
     /tmp/ccxQJAlg.s:111    .text:0000000000000094 .L0 
     /tmp/ccxQJAlg.s:112    .text:0000000000000094 .L0 
     /tmp/ccxQJAlg.s:114    .text:0000000000000098 .L0 
     /tmp/ccxQJAlg.s:120    .text:000000000000009c .L0 
     /tmp/ccxQJAlg.s:121    .text:000000000000009c .L0 
     /tmp/ccxQJAlg.s:124    .text:00000000000000a0 .L0 
     /tmp/ccxQJAlg.s:127    .text:00000000000000a4 .L0 
     /tmp/ccxQJAlg.s:129    .text:00000000000000a8 .L0 
     /tmp/ccxQJAlg.s:131    .text:00000000000000ac .L0 
     /tmp/ccxQJAlg.s:134    .text:00000000000000b0 .L0 
     /tmp/ccxQJAlg.s:137    .text:00000000000000b4 .L0 
     /tmp/ccxQJAlg.s:143    .text:00000000000000bc .L0 
     /tmp/ccxQJAlg.s:144    .text:00000000000000bc .L0 
     /tmp/ccxQJAlg.s:148    .text:00000000000000c8 .L0 
     /tmp/ccxQJAlg.s:149    .text:00000000000000cc .L0 
     /tmp/ccxQJAlg.s:150    .text:00000000000000cc .L0 
     /tmp/ccxQJAlg.s:152    .text:00000000000000d0 .L0 
     /tmp/ccxQJAlg.s:153    .text:00000000000000d0 .L0 
     /tmp/ccxQJAlg.s:155    .text:00000000000000d4 .L0 
GAS LISTING /tmp/ccxQJAlg.s 			page 9


     /tmp/ccxQJAlg.s:158    .text:00000000000000d8 .L0 
     /tmp/ccxQJAlg.s:162    .text:00000000000000dc .L0 
     /tmp/ccxQJAlg.s:166    .text:00000000000000dc .L0 
     /tmp/ccxQJAlg.s:171    .text:00000000000000e4 .L0 
     /tmp/ccxQJAlg.s:175    .text:00000000000000ec .L0 
     /tmp/ccxQJAlg.s:181    .text:00000000000000ec _ZN10Ksemaphore4waitEv
     /tmp/ccxQJAlg.s:184    .text:00000000000000ec .L0 
     /tmp/ccxQJAlg.s:186    .text:00000000000000ec .L0 
     /tmp/ccxQJAlg.s:187    .text:00000000000000ec .L0 
     /tmp/ccxQJAlg.s:188    .text:00000000000000ec .L0 
     /tmp/ccxQJAlg.s:190    .text:00000000000000f0 .L0 
     /tmp/ccxQJAlg.s:192    .text:00000000000000f4 .L0 
     /tmp/ccxQJAlg.s:194    .text:00000000000000f8 .L0 
     /tmp/ccxQJAlg.s:197    .text:0000000000000100 .L0 
     /tmp/ccxQJAlg.s:198    .text:0000000000000104 .L0 
     /tmp/ccxQJAlg.s:201    .text:000000000000010c .L0 
     /tmp/ccxQJAlg.s:202    .text:000000000000010c .L0 
     /tmp/ccxQJAlg.s:204    .text:0000000000000110 .L0 
     /tmp/ccxQJAlg.s:206    .text:0000000000000110 .L0 
     /tmp/ccxQJAlg.s:207    .text:0000000000000110 .L0 
     /tmp/ccxQJAlg.s:210    .text:0000000000000118 .L0 
     /tmp/ccxQJAlg.s:211    .text:0000000000000118 .L0 
     /tmp/ccxQJAlg.s:213    .text:000000000000011c .L0 
     /tmp/ccxQJAlg.s:214    .text:0000000000000120 .L0 
     /tmp/ccxQJAlg.s:216    .text:0000000000000124 .L0 
     /tmp/ccxQJAlg.s:217    .text:0000000000000124 .L0 
     /tmp/ccxQJAlg.s:219    .text:0000000000000128 .L0 
     /tmp/ccxQJAlg.s:224    .text:000000000000012c .L0 
     /tmp/ccxQJAlg.s:227    .text:0000000000000130 .L0 
     /tmp/ccxQJAlg.s:228    .text:0000000000000134 .L0 
     /tmp/ccxQJAlg.s:234    .text:0000000000000134 _ZN10Ksemaphore6signalEv
     /tmp/ccxQJAlg.s:237    .text:0000000000000134 .L0 
     /tmp/ccxQJAlg.s:239    .text:0000000000000134 .L0 
     /tmp/ccxQJAlg.s:240    .text:0000000000000134 .L0 
     /tmp/ccxQJAlg.s:241    .text:0000000000000134 .L0 
     /tmp/ccxQJAlg.s:243    .text:0000000000000138 .L0 
     /tmp/ccxQJAlg.s:246    .text:0000000000000140 .L0 
     /tmp/ccxQJAlg.s:248    .text:0000000000000144 .L0 
     /tmp/ccxQJAlg.s:250    .text:0000000000000148 .L0 
     /tmp/ccxQJAlg.s:251    .text:000000000000014c .L0 
     /tmp/ccxQJAlg.s:254    .text:0000000000000154 .L0 
     /tmp/ccxQJAlg.s:255    .text:0000000000000154 .L0 
     /tmp/ccxQJAlg.s:257    .text:0000000000000158 .L0 
     /tmp/ccxQJAlg.s:259    .text:0000000000000158 .L0 
     /tmp/ccxQJAlg.s:260    .text:0000000000000158 .L0 
     /tmp/ccxQJAlg.s:263    .text:0000000000000160 .L0 
     /tmp/ccxQJAlg.s:264    .text:0000000000000160 .L0 
     /tmp/ccxQJAlg.s:266    .text:0000000000000164 .L0 
     /tmp/ccxQJAlg.s:267    .text:0000000000000168 .L0 
     /tmp/ccxQJAlg.s:269    .text:000000000000016c .L0 
     /tmp/ccxQJAlg.s:270    .text:000000000000016c .L0 
     /tmp/ccxQJAlg.s:272    .text:0000000000000170 .L0 
     /tmp/ccxQJAlg.s:277    .text:0000000000000174 .L0 
     /tmp/ccxQJAlg.s:280    .text:0000000000000178 .L0 
     /tmp/ccxQJAlg.s:281    .text:000000000000017c .L0 
     /tmp/ccxQJAlg.s:289    .text:000000000000017c .L0 
     /tmp/ccxQJAlg.s:30     .text:000000000000001c .L0 
GAS LISTING /tmp/ccxQJAlg.s 			page 10


     /tmp/ccxQJAlg.s:66     .text:0000000000000054 .L0 
     /tmp/ccxQJAlg.s:84     .text:0000000000000078 .L2
     /tmp/ccxQJAlg.s:57     .text:000000000000004c .L3
     /tmp/ccxQJAlg.s:169    .text:00000000000000e4 .L8
     /tmp/ccxQJAlg.s:161    .text:00000000000000dc .L10
     /tmp/ccxQJAlg.s:132    .text:00000000000000b0 .L7
     /tmp/ccxQJAlg.s:139    .text:00000000000000bc .L6
     /tmp/ccxQJAlg.s:222    .text:000000000000012c .L13
     /tmp/ccxQJAlg.s:275    .text:0000000000000174 .L20
     /tmp/ccxQJAlg.s:1333   .debug_abbrev:0000000000000000 .Ldebug_abbrev0
     /tmp/ccxQJAlg.s:2694   .debug_str:00000000000005ae .LASF97
     /tmp/ccxQJAlg.s:2506   .debug_str:0000000000000026 .LASF98
     /tmp/ccxQJAlg.s:2560   .debug_str:00000000000001be .LASF99
     /tmp/ccxQJAlg.s:5      .text:0000000000000000 .Ltext0
     /tmp/ccxQJAlg.s:284    .text:000000000000017c .Letext0
     /tmp/ccxQJAlg.s:2500   .debug_line:0000000000000000 .Ldebug_line0
     /tmp/ccxQJAlg.s:2638   .debug_str:000000000000042b .LASF0
     /tmp/ccxQJAlg.s:2648   .debug_str:0000000000000474 .LASF1
     /tmp/ccxQJAlg.s:2614   .debug_str:0000000000000364 .LASF2
     /tmp/ccxQJAlg.s:2584   .debug_str:00000000000002ac .LASF4
     /tmp/ccxQJAlg.s:2684   .debug_str:000000000000055f .LASF3
     /tmp/ccxQJAlg.s:2518   .debug_str:000000000000008e .LASF5
     /tmp/ccxQJAlg.s:2650   .debug_str:0000000000000487 .LASF6
     /tmp/ccxQJAlg.s:2636   .debug_str:0000000000000418 .LASF7
     /tmp/ccxQJAlg.s:2702   .debug_str:0000000000000692 .LASF8
     /tmp/ccxQJAlg.s:2568   .debug_str:000000000000020b .LASF9
     /tmp/ccxQJAlg.s:2662   .debug_str:00000000000004ec .LASF10
     /tmp/ccxQJAlg.s:2698   .debug_str:000000000000067e .LASF11
     /tmp/ccxQJAlg.s:2522   .debug_str:000000000000009d .LASF12
     /tmp/ccxQJAlg.s:2508   .debug_str:0000000000000039 .LASF13
     /tmp/ccxQJAlg.s:2528   .debug_str:00000000000000cf .LASF14
     /tmp/ccxQJAlg.s:2676   .debug_str:0000000000000538 .LASF15
     /tmp/ccxQJAlg.s:2536   .debug_str:0000000000000117 .LASF16
     /tmp/ccxQJAlg.s:2660   .debug_str:00000000000004e2 .LASF17
     /tmp/ccxQJAlg.s:2562   .debug_str:00000000000001dc .LASF75
     /tmp/ccxQJAlg.s:2642   .debug_str:0000000000000441 .LASF19
     /tmp/ccxQJAlg.s:2610   .debug_str:000000000000034b .LASF100
     /tmp/ccxQJAlg.s:2578   .debug_str:000000000000026b .LASF101
     /tmp/ccxQJAlg.s:2526   .debug_str:00000000000000b7 .LASF102
     /tmp/ccxQJAlg.s:2696   .debug_str:0000000000000672 .LASF24
     /tmp/ccxQJAlg.s:2652   .debug_str:000000000000049a .LASF26
     /tmp/ccxQJAlg.s:2606   .debug_str:0000000000000334 .LASF18
     /tmp/ccxQJAlg.s:2700   .debug_str:000000000000068d .LASF41
     /tmp/ccxQJAlg.s:2672   .debug_str:000000000000051c .LASF20
     /tmp/ccxQJAlg.s:2712   .debug_str:00000000000006ef .LASF21
     /tmp/ccxQJAlg.s:2628   .debug_str:00000000000003d2 .LASF65
     /tmp/ccxQJAlg.s:2542   .debug_str:000000000000013e .LASF22
     /tmp/ccxQJAlg.s:2622   .debug_str:00000000000003a4 .LASF23
     /tmp/ccxQJAlg.s:2582   .debug_str:00000000000002a7 .LASF25
     /tmp/ccxQJAlg.s:2690   .debug_str:0000000000000592 .LASF27
     /tmp/ccxQJAlg.s:2674   .debug_str:0000000000000521 .LASF33
     /tmp/ccxQJAlg.s:2630   .debug_str:00000000000003f1 .LASF103
     /tmp/ccxQJAlg.s:2572   .debug_str:0000000000000227 .LASF104
     /tmp/ccxQJAlg.s:2692   .debug_str:00000000000005a5 .LASF28
     /tmp/ccxQJAlg.s:2548   .debug_str:0000000000000176 .LASF29
     /tmp/ccxQJAlg.s:2566   .debug_str:0000000000000203 .LASF30
     /tmp/ccxQJAlg.s:2546   .debug_str:000000000000015a .LASF31
GAS LISTING /tmp/ccxQJAlg.s 			page 11


     /tmp/ccxQJAlg.s:2618   .debug_str:000000000000037e .LASF32
     /tmp/ccxQJAlg.s:2504   .debug_str:0000000000000008 .LASF34
     /tmp/ccxQJAlg.s:2524   .debug_str:00000000000000ad .LASF35
     /tmp/ccxQJAlg.s:2598   .debug_str:00000000000002f3 .LASF36
     /tmp/ccxQJAlg.s:2540   .debug_str:0000000000000133 .LASF37
     /tmp/ccxQJAlg.s:2514   .debug_str:0000000000000058 .LASF38
     /tmp/ccxQJAlg.s:2602   .debug_str:000000000000031f .LASF39
     /tmp/ccxQJAlg.s:2708   .debug_str:00000000000006bd .LASF40
     /tmp/ccxQJAlg.s:2510   .debug_str:0000000000000049 .LASF42
     /tmp/ccxQJAlg.s:2604   .debug_str:0000000000000328 .LASF57
     /tmp/ccxQJAlg.s:2550   .debug_str:0000000000000193 .LASF43
     /tmp/ccxQJAlg.s:2668   .debug_str:000000000000050b .LASF44
     /tmp/ccxQJAlg.s:2654   .debug_str:00000000000004b7 .LASF45
     /tmp/ccxQJAlg.s:2534   .debug_str:0000000000000100 .LASF46
     /tmp/ccxQJAlg.s:2616   .debug_str:0000000000000372 .LASF47
     /tmp/ccxQJAlg.s:2714   .debug_str:00000000000006f4 .LASF48
     /tmp/ccxQJAlg.s:2608   .debug_str:000000000000033e .LASF49
     /tmp/ccxQJAlg.s:2516   .debug_str:0000000000000075 .LASF50
     /tmp/ccxQJAlg.s:2670   .debug_str:0000000000000517 .LASF105
     /tmp/ccxQJAlg.s:2632   .debug_str:00000000000003fb .LASF51
     /tmp/ccxQJAlg.s:2592   .debug_str:00000000000002cc .LASF52
     /tmp/ccxQJAlg.s:2512   .debug_str:0000000000000051 .LASF53
     /tmp/ccxQJAlg.s:2600   .debug_str:000000000000030e .LASF54
     /tmp/ccxQJAlg.s:2596   .debug_str:00000000000002e6 .LASF55
     /tmp/ccxQJAlg.s:2646   .debug_str:0000000000000454 .LASF56
     /tmp/ccxQJAlg.s:2678   .debug_str:000000000000054e .LASF71
     /tmp/ccxQJAlg.s:2624   .debug_str:00000000000003a9 .LASF73
     /tmp/ccxQJAlg.s:2554   .debug_str:000000000000019e .LASF106
     /tmp/ccxQJAlg.s:2634   .debug_str:0000000000000403 .LASF58
     /tmp/ccxQJAlg.s:2590   .debug_str:00000000000002c7 .LASF59
     /tmp/ccxQJAlg.s:2530   .debug_str:00000000000000db .LASF60
     /tmp/ccxQJAlg.s:2594   .debug_str:00000000000002de .LASF61
     /tmp/ccxQJAlg.s:2644   .debug_str:000000000000044a .LASF62
     /tmp/ccxQJAlg.s:2588   .debug_str:00000000000002be .LASF63
     /tmp/ccxQJAlg.s:2570   .debug_str:0000000000000219 .LASF67
     /tmp/ccxQJAlg.s:2574   .debug_str:000000000000023e .LASF69
     /tmp/ccxQJAlg.s:2704   .debug_str:00000000000006a2 .LASF64
     /tmp/ccxQJAlg.s:2580   .debug_str:000000000000027f .LASF66
     /tmp/ccxQJAlg.s:2640   .debug_str:0000000000000438 .LASF68
     /tmp/ccxQJAlg.s:2556   .debug_str:00000000000001a6 .LASF70
     /tmp/ccxQJAlg.s:2664   .debug_str:00000000000004fb .LASF72
     /tmp/ccxQJAlg.s:2564   .debug_str:00000000000001ed .LASF74
     /tmp/ccxQJAlg.s:2686   .debug_str:0000000000000571 .LASF76
     /tmp/ccxQJAlg.s:2558   .debug_str:00000000000001b9 .LASF77
     /tmp/ccxQJAlg.s:2586   .debug_str:00000000000002b3 .LASF78
     /tmp/ccxQJAlg.s:2576   .debug_str:0000000000000257 .LASF79
     /tmp/ccxQJAlg.s:2716   .debug_str:000000000000070b .LASF80
     /tmp/ccxQJAlg.s:2544   .debug_str:0000000000000143 .LASF81
     /tmp/ccxQJAlg.s:2658   .debug_str:00000000000004db .LASF82
     /tmp/ccxQJAlg.s:2626   .debug_str:00000000000003b9 .LASF83
     /tmp/ccxQJAlg.s:2538   .debug_str:000000000000012d .LASF84
     /tmp/ccxQJAlg.s:2656   .debug_str:00000000000004c2 .LASF85
     /tmp/ccxQJAlg.s:2552   .debug_str:0000000000000198 .LASF86
     /tmp/ccxQJAlg.s:2710   .debug_str:00000000000006d7 .LASF87
     /tmp/ccxQJAlg.s:2520   .debug_str:0000000000000095 .LASF88
     /tmp/ccxQJAlg.s:2620   .debug_str:000000000000038a .LASF89
     /tmp/ccxQJAlg.s:2502   .debug_str:0000000000000000 .LASF90
GAS LISTING /tmp/ccxQJAlg.s 			page 12


     /tmp/ccxQJAlg.s:2666   .debug_str:0000000000000506 .LASF91
     /tmp/ccxQJAlg.s:2532   .debug_str:00000000000000e1 .LASF107
     /tmp/ccxQJAlg.s:2680   .debug_str:0000000000000554 .LASF92
     /tmp/ccxQJAlg.s:235    .text:0000000000000134 .LFB29
     /tmp/ccxQJAlg.s:282    .text:000000000000017c .LFE29
     /tmp/ccxQJAlg.s:2259   .debug_loc:0000000000000000 .LLST13
     /tmp/ccxQJAlg.s:261    .text:0000000000000160 .LVL24
     /tmp/ccxQJAlg.s:182    .text:00000000000000ec .LFB28
     /tmp/ccxQJAlg.s:229    .text:0000000000000134 .LFE28
     /tmp/ccxQJAlg.s:2284   .debug_loc:0000000000000062 .LLST12
     /tmp/ccxQJAlg.s:208    .text:0000000000000118 .LVL20
     /tmp/ccxQJAlg.s:101    .text:0000000000000084 .LFB27
     /tmp/ccxQJAlg.s:176    .text:00000000000000ec .LFE27
     /tmp/ccxQJAlg.s:2309   .debug_loc:00000000000000c4 .LLST7
     /tmp/ccxQJAlg.s:2331   .debug_loc:0000000000000123 .LLST8
     /tmp/ccxQJAlg.s:118    .text:000000000000009c .LBB18
     /tmp/ccxQJAlg.s:2486   .debug_ranges:0000000000000000 .Ldebug_ranges0
     /tmp/ccxQJAlg.s:2338   .debug_loc:0000000000000146 .LLST9
     /tmp/ccxQJAlg.s:2368   .debug_loc:00000000000001ad .LLST10
     /tmp/ccxQJAlg.s:2379   .debug_loc:00000000000001e3 .LLST11
     /tmp/ccxQJAlg.s:138    .text:00000000000000bc .LVL14
     /tmp/ccxQJAlg.s:146    .text:00000000000000c8 .LVL15
     /tmp/ccxQJAlg.s:10     .text:0000000000000000 .LFB26
     /tmp/ccxQJAlg.s:95     .text:0000000000000084 .LFE26
     /tmp/ccxQJAlg.s:2386   .debug_loc:0000000000000206 .LLST0
     /tmp/ccxQJAlg.s:33     .text:0000000000000028 .LBB12
     /tmp/ccxQJAlg.s:2408   .debug_loc:0000000000000265 .LLST1
     /tmp/ccxQJAlg.s:2419   .debug_loc:000000000000029b .LLST2
     /tmp/ccxQJAlg.s:2440   .debug_loc:00000000000002ea .LLST3
     /tmp/ccxQJAlg.s:41     .text:0000000000000034 .LBB14
     /tmp/ccxQJAlg.s:48     .text:000000000000003c .LBE14
     /tmp/ccxQJAlg.s:2451   .debug_loc:0000000000000320 .LLST4
     /tmp/ccxQJAlg.s:2459   .debug_loc:0000000000000344 .LLST5
     /tmp/ccxQJAlg.s:2466   .debug_loc:0000000000000367 .LLST6
     /tmp/ccxQJAlg.s:40     .text:0000000000000034 .LVL3
     /tmp/ccxQJAlg.s:64     .text:0000000000000054 .LVL6
     /tmp/ccxQJAlg.s:2612   .debug_str:000000000000035d .LASF93
     /tmp/ccxQJAlg.s:2688   .debug_str:0000000000000582 .LASF95
     /tmp/ccxQJAlg.s:2682   .debug_str:0000000000000559 .LASF94
     /tmp/ccxQJAlg.s:2706   .debug_str:00000000000006b0 .LASF96
     /tmp/ccxQJAlg.s:238    .text:0000000000000134 .LVL23
     /tmp/ccxQJAlg.s:274    .text:0000000000000174 .LVL25
     /tmp/ccxQJAlg.s:278    .text:0000000000000178 .LVL26
     /tmp/ccxQJAlg.s:185    .text:00000000000000ec .LVL19
     /tmp/ccxQJAlg.s:221    .text:000000000000012c .LVL21
     /tmp/ccxQJAlg.s:225    .text:0000000000000130 .LVL22
     /tmp/ccxQJAlg.s:104    .text:0000000000000084 .LVL9
     /tmp/ccxQJAlg.s:122    .text:00000000000000a0 .LVL11
     /tmp/ccxQJAlg.s:160    .text:00000000000000dc .LVL17
     /tmp/ccxQJAlg.s:156    .text:00000000000000d4 .LVL16
     /tmp/ccxQJAlg.s:117    .text:000000000000009c .LVL10
     /tmp/ccxQJAlg.s:125    .text:00000000000000a4 .LVL12
     /tmp/ccxQJAlg.s:168    .text:00000000000000e4 .LVL18
     /tmp/ccxQJAlg.s:135    .text:00000000000000b4 .LVL13
     /tmp/ccxQJAlg.s:14     .text:0000000000000000 .LVL0
     /tmp/ccxQJAlg.s:38     .text:000000000000002c .LVL2
     /tmp/ccxQJAlg.s:77     .text:000000000000006c .LVL7
GAS LISTING /tmp/ccxQJAlg.s 			page 13


     /tmp/ccxQJAlg.s:83     .text:0000000000000078 .LVL8
     /tmp/ccxQJAlg.s:32     .text:0000000000000028 .LVL1
     /tmp/ccxQJAlg.s:58     .text:000000000000004c .LVL5
     /tmp/ccxQJAlg.s:46     .text:000000000000003c .LVL4
     /tmp/ccxQJAlg.s:290    .debug_info:0000000000000000 .Ldebug_info0
     /tmp/ccxQJAlg.s:60     .text:000000000000004c .LBE12
     /tmp/ccxQJAlg.s:86     .text:0000000000000078 .LBB17
     /tmp/ccxQJAlg.s:93     .text:0000000000000084 .LBE17
     /tmp/ccxQJAlg.s:141    .text:00000000000000bc .LBE18
     /tmp/ccxQJAlg.s:163    .text:00000000000000dc .LBB21
     /tmp/ccxQJAlg.s:174    .text:00000000000000ec .LBE21

UNDEFINED SYMBOLS
_ZN3TCB7runningE
_Znwm
_ZN9Scheduler3getEv
_ZdlPv
_ZN9Scheduler3putEP3TCB
