GAS LISTING /tmp/ccwwXOQE.s 			page 1


   1              		.file	"Ksemaphore.cpp"
   2              		.option pic
   3              		.option norelax
   4              		.text
   5              	.Ltext0:
   6              		.align	2
   7              		.globl	_ZN10Ksemaphore5blockEv
   9              	_ZN10Ksemaphore5blockEv:
  10              	.LFB31:
  11              		.file 1 "src/Ksemaphore.cpp"
   1:src/Ksemaphore.cpp **** #include "../h/Ksemaphore.hpp"
   2:src/Ksemaphore.cpp **** 
   3:src/Ksemaphore.cpp **** void Ksemaphore::block() {
  12              		.loc 1 3 26
  13              		.cfi_startproc
  14              	.LVL0:
  15 0000 130101FE 		addi	sp,sp,-32
  16              		.cfi_def_cfa_offset 32
  17 0004 233C1100 		sd	ra,24(sp)
  18 0008 23388100 		sd	s0,16(sp)
  19 000c 23349100 		sd	s1,8(sp)
  20 0010 23302101 		sd	s2,0(sp)
  21              		.cfi_offset 1, -8
  22              		.cfi_offset 8, -16
  23              		.cfi_offset 9, -24
  24              		.cfi_offset 18, -32
  25 0014 13040102 		addi	s0,sp,32
  26              		.cfi_def_cfa 8, 0
  27 0018 93040500 		mv	s1,a0
   4:src/Ksemaphore.cpp ****     TCB* tr=TCB::running;
  28              		.loc 1 4 5
  29              		.loc 1 4 10 is_stmt 0
  30 001c 97070000 		la	a5,_ZN3TCB7runningE
  30      83B70700 
  31 0024 03B90700 		ld	s2,0(a5)
  32              	.LVL1:
   5:src/Ksemaphore.cpp ****     blocked.addLast(tr);
  33              		.loc 1 5 5 is_stmt 1
  34              	.LBB24:
  35              	.LBB25:
  36              		.file 2 "src/../h/list.hpp"
   1:src/../h/list.hpp **** //
   2:src/../h/list.hpp **** // Created by os on 8/27/22.
   3:src/../h/list.hpp **** //
   4:src/../h/list.hpp **** 
   5:src/../h/list.hpp **** #ifndef PROJECT_BASE_LIST_HPP
   6:src/../h/list.hpp **** #define PROJECT_BASE_LIST_HPP
   7:src/../h/list.hpp **** 
   8:src/../h/list.hpp **** #include "../lib/mem.h"
   9:src/../h/list.hpp **** #include "MemoryAllocator.hpp"
  10:src/../h/list.hpp **** 
  11:src/../h/list.hpp **** template<typename T>
  12:src/../h/list.hpp **** class List
  13:src/../h/list.hpp **** {
  14:src/../h/list.hpp **** private:
  15:src/../h/list.hpp ****     struct Elem
  16:src/../h/list.hpp ****     {
GAS LISTING /tmp/ccwwXOQE.s 			page 2


  17:src/../h/list.hpp ****         T *data;
  18:src/../h/list.hpp ****         Elem *next;
  19:src/../h/list.hpp **** 
  20:src/../h/list.hpp ****         Elem(T *data, Elem *next) : data(data), next(next) {}
  21:src/../h/list.hpp ****     };
  22:src/../h/list.hpp **** 
  23:src/../h/list.hpp ****     Elem *head, *tail;
  24:src/../h/list.hpp **** 
  25:src/../h/list.hpp **** public:
  26:src/../h/list.hpp ****     List() : head(0), tail(0) {}
  27:src/../h/list.hpp **** 
  28:src/../h/list.hpp ****     List(const List<T> &) = delete;
  29:src/../h/list.hpp **** 
  30:src/../h/list.hpp ****     List<T> &operator=(const List<T> &) = delete;
  31:src/../h/list.hpp ****     static void* operator new (size_t n);
  32:src/../h/list.hpp ****     static void operator delete (void* p);
  33:src/../h/list.hpp **** 
  34:src/../h/list.hpp ****     void addFirst(T *data)
  35:src/../h/list.hpp ****     {
  36:src/../h/list.hpp ****         Elem *elem = new Elem(data, head);
  37:src/../h/list.hpp ****         head = elem;
  38:src/../h/list.hpp ****         if (!tail) { tail = head; }
  39:src/../h/list.hpp ****     }
  40:src/../h/list.hpp **** 
  41:src/../h/list.hpp ****     void addLast(T *data)
  42:src/../h/list.hpp ****     {
  43:src/../h/list.hpp ****         Elem *elem = new Elem(data, 0);
  37              		.loc 2 43 22 is_stmt 0
  38 0028 13050001 		li	a0,16
  39              	.LVL2:
  40 002c 97000000 		call	_Znwm@plt
  40      E7800000 
  41              	.LVL3:
  42              	.LBB26:
  43              	.LBB27:
  20:src/../h/list.hpp ****     };
  44              		.loc 2 20 58
  45 0034 23302501 		sd	s2,0(a0)
  46 0038 23340500 		sd	zero,8(a0)
  47              	.LVL4:
  48              	.LBE27:
  49              	.LBE26:
  44:src/../h/list.hpp ****         if (tail)
  50              		.loc 2 44 13
  51 003c 83B70401 		ld	a5,16(s1)
  52              		.loc 2 44 9
  53 0040 63820702 		beqz	a5,.L2
  45:src/../h/list.hpp ****         {
  46:src/../h/list.hpp ****             tail->next = elem;
  54              		.loc 2 46 13
  55 0044 23B4A700 		sd	a0,8(a5)
  47:src/../h/list.hpp ****             tail = elem;
  56              		.loc 2 47 13
  57 0048 23B8A400 		sd	a0,16(s1)
  58              	.LVL5:
  59              	.L1:
  60              	.LBE25:
GAS LISTING /tmp/ccwwXOQE.s 			page 3


  61              	.LBE24:
   6:src/Ksemaphore.cpp **** }
  62              		.loc 1 6 1
  63 004c 83308101 		ld	ra,24(sp)
  64              		.cfi_remember_state
  65              		.cfi_restore 1
  66 0050 03340101 		ld	s0,16(sp)
  67              		.cfi_restore 8
  68              		.cfi_def_cfa 2, 32
  69 0054 83348100 		ld	s1,8(sp)
  70              		.cfi_restore 9
  71              	.LVL6:
  72 0058 03390100 		ld	s2,0(sp)
  73              		.cfi_restore 18
  74              	.LVL7:
  75 005c 13010102 		addi	sp,sp,32
  76              		.cfi_def_cfa_offset 0
  77 0060 67800000 		jr	ra
  78              	.LVL8:
  79              	.L2:
  80              		.cfi_restore_state
  81              	.LBB29:
  82              	.LBB28:
  48:src/../h/list.hpp ****         } else
  49:src/../h/list.hpp ****         {
  50:src/../h/list.hpp ****             head = tail = elem;
  83              		.loc 2 50 13
  84 0064 23B8A400 		sd	a0,16(s1)
  85 0068 23B4A400 		sd	a0,8(s1)
  86              	.LVL9:
  87              	.LBE28:
  88              	.LBE29:
  89              		.loc 1 6 1
  90 006c 6FF01FFE 		j	.L1
  91              		.cfi_endproc
  92              	.LFE31:
  94              		.align	2
  95              		.globl	_ZN10Ksemaphore7unblockEv
  97              	_ZN10Ksemaphore7unblockEv:
  98              	.LFB32:
   7:src/Ksemaphore.cpp **** 
   8:src/Ksemaphore.cpp **** void Ksemaphore::unblock() {
  99              		.loc 1 8 28 is_stmt 1
 100              		.cfi_startproc
 101              	.LVL10:
 102 0070 130101FF 		addi	sp,sp,-16
 103              		.cfi_def_cfa_offset 16
 104 0074 23341100 		sd	ra,8(sp)
 105 0078 23308100 		sd	s0,0(sp)
 106              		.cfi_offset 1, -8
 107              		.cfi_offset 8, -16
 108 007c 13040101 		addi	s0,sp,16
 109              		.cfi_def_cfa 8, 0
 110 0080 93070500 		mv	a5,a0
   9:src/Ksemaphore.cpp ****     TCB *t = blocked.removeFirst();
 111              		.loc 1 9 5
 112              	.LVL11:
GAS LISTING /tmp/ccwwXOQE.s 			page 4


 113              	.LBB30:
 114              	.LBB31:
  51:src/../h/list.hpp ****         }
  52:src/../h/list.hpp ****     }
  53:src/../h/list.hpp **** 
  54:src/../h/list.hpp ****     T *removeFirst()
  55:src/../h/list.hpp ****     {
  56:src/../h/list.hpp ****         if (!head) { return 0; }
 115              		.loc 2 56 14 is_stmt 0
 116 0084 03358500 		ld	a0,8(a0)
 117              	.LVL12:
 118              		.loc 2 56 9
 119 0088 630A0500 		beqz	a0,.L6
 120              	.LVL13:
  57:src/../h/list.hpp **** 
  58:src/../h/list.hpp ****         Elem *elem = head;
  59:src/../h/list.hpp ****         head = head->next;
 121              		.loc 2 59 22
 122 008c 03378500 		ld	a4,8(a0)
 123              		.loc 2 59 9
 124 0090 23B4E700 		sd	a4,8(a5)
  60:src/../h/list.hpp ****         if (!head) { tail = 0; }
 125              		.loc 2 60 9
 126 0094 63000702 		beqz	a4,.L9
 127              	.L7:
  61:src/../h/list.hpp **** 
  62:src/../h/list.hpp ****         T *ret = elem->data;
 128              		.loc 2 62 12
 129 0098 03350500 		ld	a0,0(a0)
 130              	.LVL14:
 131              	.L6:
 132              	.LBE31:
 133              	.LBE30:
  10:src/Ksemaphore.cpp ****     Scheduler::put(t);
 134              		.loc 1 10 5 is_stmt 1
 135              		.loc 1 10 19 is_stmt 0
 136 009c 97000000 		call	_ZN9Scheduler3putEP3TCB@plt
 136      E7800000 
 137              	.LVL15:
  11:src/Ksemaphore.cpp **** }
 138              		.loc 1 11 1
 139 00a4 83308100 		ld	ra,8(sp)
 140              		.cfi_remember_state
 141              		.cfi_restore 1
 142 00a8 03340100 		ld	s0,0(sp)
 143              		.cfi_restore 8
 144              		.cfi_def_cfa 2, 16
 145 00ac 13010101 		addi	sp,sp,16
 146              		.cfi_def_cfa_offset 0
 147 00b0 67800000 		jr	ra
 148              	.LVL16:
 149              	.L9:
 150              		.cfi_restore_state
 151              	.LBB33:
 152              	.LBB32:
  60:src/../h/list.hpp **** 
 153              		.loc 2 60 22
GAS LISTING /tmp/ccwwXOQE.s 			page 5


 154 00b4 23B80700 		sd	zero,16(a5)
 155 00b8 6FF01FFE 		j	.L7
 156              	.LBE32:
 157              	.LBE33:
 158              		.cfi_endproc
 159              	.LFE32:
 161              		.align	2
 162              		.globl	_ZN10Ksemaphore4waitEv
 164              	_ZN10Ksemaphore4waitEv:
 165              	.LFB33:
  12:src/Ksemaphore.cpp **** 
  13:src/Ksemaphore.cpp **** int Ksemaphore::wait() {
 166              		.loc 1 13 24 is_stmt 1
 167              		.cfi_startproc
 168              	.LVL17:
  14:src/Ksemaphore.cpp ****     if(--val<0){
 169              		.loc 1 14 5
 170              		.loc 1 14 10 is_stmt 0
 171 00bc 83270500 		lw	a5,0(a0)
 172              		.loc 1 14 8
 173 00c0 9B87F7FF 		addiw	a5,a5,-1
 174              		.loc 1 14 13
 175 00c4 2320F500 		sw	a5,0(a0)
 176              		.loc 1 14 5
 177 00c8 13970702 		slli	a4,a5,32
 178 00cc 63460700 		bltz	a4,.L17
  15:src/Ksemaphore.cpp ****         block();
  16:src/Ksemaphore.cpp ****         TCB::dispatchWithoutScheduler();
  17:src/Ksemaphore.cpp ****         return 0;
  18:src/Ksemaphore.cpp ****     }
  19:src/Ksemaphore.cpp ****     return 1;
 179              		.loc 1 19 12
 180 00d0 13051000 		li	a0,1
 181              	.LVL18:
  20:src/Ksemaphore.cpp **** }
 182              		.loc 1 20 1
 183 00d4 67800000 		ret
 184              	.LVL19:
 185              	.L17:
  13:src/Ksemaphore.cpp ****     if(--val<0){
 186              		.loc 1 13 24
 187 00d8 130101FF 		addi	sp,sp,-16
 188              		.cfi_def_cfa_offset 16
 189 00dc 23341100 		sd	ra,8(sp)
 190 00e0 23308100 		sd	s0,0(sp)
 191              		.cfi_offset 1, -8
 192              		.cfi_offset 8, -16
 193 00e4 13040101 		addi	s0,sp,16
 194              		.cfi_def_cfa 8, 0
  15:src/Ksemaphore.cpp ****         block();
 195              		.loc 1 15 9 is_stmt 1
  15:src/Ksemaphore.cpp ****         block();
 196              		.loc 1 15 14 is_stmt 0
 197 00e8 97000000 		call	_ZN10Ksemaphore5blockEv
 197      E7800000 
 198              	.LVL20:
  16:src/Ksemaphore.cpp ****         return 0;
GAS LISTING /tmp/ccwwXOQE.s 			page 6


 199              		.loc 1 16 9 is_stmt 1
  16:src/Ksemaphore.cpp ****         return 0;
 200              		.loc 1 16 38 is_stmt 0
 201 00f0 97000000 		call	_ZN3TCB24dispatchWithoutSchedulerEv@plt
 201      E7800000 
 202              	.LVL21:
  17:src/Ksemaphore.cpp ****     }
 203              		.loc 1 17 9 is_stmt 1
  17:src/Ksemaphore.cpp ****     }
 204              		.loc 1 17 16 is_stmt 0
 205 00f8 13050000 		li	a0,0
 206              		.loc 1 20 1
 207 00fc 83308100 		ld	ra,8(sp)
 208              		.cfi_restore 1
 209 0100 03340100 		ld	s0,0(sp)
 210              		.cfi_restore 8
 211              		.cfi_def_cfa 2, 16
 212 0104 13010101 		addi	sp,sp,16
 213              		.cfi_def_cfa_offset 0
 214 0108 67800000 		jr	ra
 215              		.cfi_endproc
 216              	.LFE33:
 218              		.align	2
 219              		.globl	_ZN10Ksemaphore6signalEv
 221              	_ZN10Ksemaphore6signalEv:
 222              	.LFB34:
  21:src/Ksemaphore.cpp **** 
  22:src/Ksemaphore.cpp **** int Ksemaphore::signal() {
 223              		.loc 1 22 26 is_stmt 1
 224              		.cfi_startproc
 225              	.LVL22:
  23:src/Ksemaphore.cpp ****     if(++val<=0) {
 226              		.loc 1 23 5
 227              		.loc 1 23 10 is_stmt 0
 228 010c 83270500 		lw	a5,0(a0)
 229              		.loc 1 23 8
 230 0110 9B871700 		addiw	a5,a5,1
 231 0114 1B870700 		sext.w	a4,a5
 232              		.loc 1 23 13
 233 0118 2320F500 		sw	a5,0(a0)
 234              		.loc 1 23 5
 235 011c 6356E000 		blez	a4,.L25
  24:src/Ksemaphore.cpp ****         unblock();
  25:src/Ksemaphore.cpp ****         return 0;
  26:src/Ksemaphore.cpp ****     }
  27:src/Ksemaphore.cpp ****     return 1;
 236              		.loc 1 27 12
 237 0120 13051000 		li	a0,1
 238              	.LVL23:
  28:src/Ksemaphore.cpp **** }
 239              		.loc 1 28 1
 240 0124 67800000 		ret
 241              	.LVL24:
 242              	.L25:
  22:src/Ksemaphore.cpp ****     if(++val<=0) {
 243              		.loc 1 22 26
 244 0128 130101FF 		addi	sp,sp,-16
GAS LISTING /tmp/ccwwXOQE.s 			page 7


 245              		.cfi_def_cfa_offset 16
 246 012c 23341100 		sd	ra,8(sp)
 247 0130 23308100 		sd	s0,0(sp)
 248              		.cfi_offset 1, -8
 249              		.cfi_offset 8, -16
 250 0134 13040101 		addi	s0,sp,16
 251              		.cfi_def_cfa 8, 0
  24:src/Ksemaphore.cpp ****         unblock();
 252              		.loc 1 24 9 is_stmt 1
  24:src/Ksemaphore.cpp ****         unblock();
 253              		.loc 1 24 16 is_stmt 0
 254 0138 97000000 		call	_ZN10Ksemaphore7unblockEv
 254      E7800000 
 255              	.LVL25:
  25:src/Ksemaphore.cpp ****     }
 256              		.loc 1 25 9 is_stmt 1
  25:src/Ksemaphore.cpp ****     }
 257              		.loc 1 25 16 is_stmt 0
 258 0140 13050000 		li	a0,0
 259              		.loc 1 28 1
 260 0144 83308100 		ld	ra,8(sp)
 261              		.cfi_restore 1
 262 0148 03340100 		ld	s0,0(sp)
 263              		.cfi_restore 8
 264              		.cfi_def_cfa 2, 16
 265 014c 13010101 		addi	sp,sp,16
 266              		.cfi_def_cfa_offset 0
 267 0150 67800000 		jr	ra
 268              		.cfi_endproc
 269              	.LFE34:
 271              		.align	2
 272              		.globl	_ZN10Ksemaphore14closeSemaphoreEv
 274              	_ZN10Ksemaphore14closeSemaphoreEv:
 275              	.LFB36:
  29:src/Ksemaphore.cpp **** 
  30:src/Ksemaphore.cpp **** Ksemaphore *Ksemaphore::createSemaphore(unsigned int init) {
  31:src/Ksemaphore.cpp ****     Ksemaphore* ksem = (Ksemaphore*) new Ksemaphore(init);
  32:src/Ksemaphore.cpp ****     ksem->val=init;
  33:src/Ksemaphore.cpp ****     return ksem;
  34:src/Ksemaphore.cpp **** }
  35:src/Ksemaphore.cpp **** 
  36:src/Ksemaphore.cpp **** int Ksemaphore::closeSemaphore(){
 276              		.loc 1 36 33 is_stmt 1
 277              		.cfi_startproc
 278              	.LVL26:
 279 0154 130101FE 		addi	sp,sp,-32
 280              		.cfi_def_cfa_offset 32
 281 0158 233C1100 		sd	ra,24(sp)
 282 015c 23388100 		sd	s0,16(sp)
 283 0160 23349100 		sd	s1,8(sp)
 284              		.cfi_offset 1, -8
 285              		.cfi_offset 8, -16
 286              		.cfi_offset 9, -24
 287 0164 13040102 		addi	s0,sp,32
 288              		.cfi_def_cfa 8, 0
 289 0168 93040500 		mv	s1,a0
 290 016c 6F008001 		j	.L29
GAS LISTING /tmp/ccwwXOQE.s 			page 8


 291              	.LVL27:
 292              	.L31:
 293              	.LBB34:
 294              	.LBB35:
  60:src/../h/list.hpp **** 
 295              		.loc 2 60 22 is_stmt 0
 296 0170 23B80400 		sd	zero,16(s1)
 297              	.L28:
 298              		.loc 2 62 12
 299 0174 03B50700 		ld	a0,0(a5)
 300              	.LVL28:
 301              	.LBE35:
 302              	.LBE34:
  37:src/Ksemaphore.cpp ****     TCB* tcb;
  38:src/Ksemaphore.cpp ****     while((tcb=blocked.removeFirst())!= nullptr){
 303              		.loc 1 38 38
 304 0178 63020502 		beqz	a0,.L27
  39:src/Ksemaphore.cpp **** //        tcb=blocked.removeFirst();
  40:src/Ksemaphore.cpp ****         Scheduler::put(tcb);
 305              		.loc 1 40 9 is_stmt 1
 306              		.loc 1 40 23 is_stmt 0
 307 017c 97000000 		call	_ZN9Scheduler3putEP3TCB@plt
 307      E7800000 
 308              	.LVL29:
 309              	.L29:
  37:src/Ksemaphore.cpp ****     TCB* tcb;
 310              		.loc 1 37 5 is_stmt 1
  38:src/Ksemaphore.cpp **** //        tcb=blocked.removeFirst();
 311              		.loc 1 38 5
  38:src/Ksemaphore.cpp **** //        tcb=blocked.removeFirst();
 312              		.loc 1 38 38
 313              	.LBB37:
 314              	.LBB36:
  56:src/../h/list.hpp **** 
 315              		.loc 2 56 14 is_stmt 0
 316 0184 83B78400 		ld	a5,8(s1)
  56:src/../h/list.hpp **** 
 317              		.loc 2 56 9
 318 0188 638A0700 		beqz	a5,.L27
 319              	.LVL30:
  59:src/../h/list.hpp ****         if (!head) { tail = 0; }
 320              		.loc 2 59 22
 321 018c 03B78700 		ld	a4,8(a5)
  59:src/../h/list.hpp ****         if (!head) { tail = 0; }
 322              		.loc 2 59 9
 323 0190 23B4E400 		sd	a4,8(s1)
  60:src/../h/list.hpp **** 
 324              		.loc 2 60 9
 325 0194 E31007FE 		bnez	a4,.L28
 326 0198 6FF09FFD 		j	.L31
 327              	.LVL31:
 328              	.L27:
 329              	.LBE36:
 330              	.LBE37:
  41:src/Ksemaphore.cpp ****     }
  42:src/Ksemaphore.cpp **** 
  43:src/Ksemaphore.cpp ****     return 0;
GAS LISTING /tmp/ccwwXOQE.s 			page 9


 331              		.loc 1 43 5 is_stmt 1
  44:src/Ksemaphore.cpp **** }
 332              		.loc 1 44 1 is_stmt 0
 333 019c 13050000 		li	a0,0
 334 01a0 83308101 		ld	ra,24(sp)
 335              		.cfi_restore 1
 336 01a4 03340101 		ld	s0,16(sp)
 337              		.cfi_restore 8
 338              		.cfi_def_cfa 2, 32
 339 01a8 83348100 		ld	s1,8(sp)
 340              		.cfi_restore 9
 341              	.LVL32:
 342 01ac 13010102 		addi	sp,sp,32
 343              		.cfi_def_cfa_offset 0
 344 01b0 67800000 		jr	ra
 345              		.cfi_endproc
 346              	.LFE36:
 348              		.align	2
 349              		.globl	_ZN10KsemaphoredlEPv
 351              	_ZN10KsemaphoredlEPv:
 352              	.LFB37:
  45:src/Ksemaphore.cpp **** void Ksemaphore::operator delete(void *p) {
 353              		.loc 1 45 43 is_stmt 1
 354              		.cfi_startproc
 355              	.LVL33:
 356 01b4 130101FF 		addi	sp,sp,-16
 357              		.cfi_def_cfa_offset 16
 358 01b8 23341100 		sd	ra,8(sp)
 359 01bc 23308100 		sd	s0,0(sp)
 360              		.cfi_offset 1, -8
 361              		.cfi_offset 8, -16
 362 01c0 13040101 		addi	s0,sp,16
 363              		.cfi_def_cfa 8, 0
  46:src/Ksemaphore.cpp ****     MemoryAllocator::free(p);
 364              		.loc 1 46 5
 365              		.loc 1 46 26 is_stmt 0
 366 01c4 97000000 		call	_ZN15MemoryAllocator4freeEPv@plt
 366      E7800000 
 367              	.LVL34:
  47:src/Ksemaphore.cpp ****     return;
 368              		.loc 1 47 5 is_stmt 1
  48:src/Ksemaphore.cpp **** }
 369              		.loc 1 48 1 is_stmt 0
 370 01cc 83308100 		ld	ra,8(sp)
 371              		.cfi_restore 1
 372 01d0 03340100 		ld	s0,0(sp)
 373              		.cfi_restore 8
 374              		.cfi_def_cfa 2, 16
 375 01d4 13010101 		addi	sp,sp,16
 376              		.cfi_def_cfa_offset 0
 377 01d8 67800000 		jr	ra
 378              		.cfi_endproc
 379              	.LFE37:
 381              		.align	2
 382              		.globl	_ZN10KsemaphorenwEm
 384              	_ZN10KsemaphorenwEm:
 385              	.LFB38:
GAS LISTING /tmp/ccwwXOQE.s 			page 10


  49:src/Ksemaphore.cpp **** 
  50:src/Ksemaphore.cpp **** void *Ksemaphore::operator new(size_t n) {
 386              		.loc 1 50 42 is_stmt 1
 387              		.cfi_startproc
 388              	.LVL35:
 389 01dc 130101FF 		addi	sp,sp,-16
 390              		.cfi_def_cfa_offset 16
 391 01e0 23341100 		sd	ra,8(sp)
 392 01e4 23308100 		sd	s0,0(sp)
 393              		.cfi_offset 1, -8
 394              		.cfi_offset 8, -16
 395 01e8 13040101 		addi	s0,sp,16
 396              		.cfi_def_cfa 8, 0
  51:src/Ksemaphore.cpp ****     return MemoryAllocator::malloc(sizeof (Ksemaphore));
 397              		.loc 1 51 5
 398              		.loc 1 51 35 is_stmt 0
 399 01ec 13058001 		li	a0,24
 400              	.LVL36:
 401 01f0 97000000 		call	_ZN15MemoryAllocator6mallocEm@plt
 401      E7800000 
 402              	.LVL37:
  52:src/Ksemaphore.cpp **** }
 403              		.loc 1 52 1
 404 01f8 83308100 		ld	ra,8(sp)
 405              		.cfi_restore 1
 406 01fc 03340100 		ld	s0,0(sp)
 407              		.cfi_restore 8
 408              		.cfi_def_cfa 2, 16
 409 0200 13010101 		addi	sp,sp,16
 410              		.cfi_def_cfa_offset 0
 411 0204 67800000 		jr	ra
 412              		.cfi_endproc
 413              	.LFE38:
 415              		.align	2
 416              		.globl	_ZN10Ksemaphore15createSemaphoreEj
 418              	_ZN10Ksemaphore15createSemaphoreEj:
 419              	.LFB35:
  30:src/Ksemaphore.cpp ****     Ksemaphore* ksem = (Ksemaphore*) new Ksemaphore(init);
 420              		.loc 1 30 60 is_stmt 1
 421              		.cfi_startproc
 422              	.LVL38:
 423 0208 130101FE 		addi	sp,sp,-32
 424              		.cfi_def_cfa_offset 32
 425 020c 233C1100 		sd	ra,24(sp)
 426 0210 23388100 		sd	s0,16(sp)
 427 0214 23349100 		sd	s1,8(sp)
 428              		.cfi_offset 1, -8
 429              		.cfi_offset 8, -16
 430              		.cfi_offset 9, -24
 431 0218 13040102 		addi	s0,sp,32
 432              		.cfi_def_cfa 8, 0
 433 021c 93040500 		mv	s1,a0
  31:src/Ksemaphore.cpp ****     ksem->val=init;
 434              		.loc 1 31 5
  31:src/Ksemaphore.cpp ****     ksem->val=init;
 435              		.loc 1 31 57 is_stmt 0
 436 0220 13058001 		li	a0,24
GAS LISTING /tmp/ccwwXOQE.s 			page 11


 437              	.LVL39:
 438 0224 97000000 		call	_ZN10KsemaphorenwEm
 438      E7800000 
 439              	.LVL40:
 440              	.LBB38:
 441              	.LBB39:
 442              		.file 3 "src/../h/Ksemaphore.hpp"
   1:src/../h/Ksemaphore.hpp **** #ifndef PROJECT_BASE_KSEMAPHORE_HPP
   2:src/../h/Ksemaphore.hpp **** #define PROJECT_BASE_KSEMAPHORE_HPP
   3:src/../h/Ksemaphore.hpp **** #include "scheduler.hpp"
   4:src/../h/Ksemaphore.hpp **** #include "TCB.hpp"
   5:src/../h/Ksemaphore.hpp **** #include "../lib/hw.h"
   6:src/../h/Ksemaphore.hpp **** 
   7:src/../h/Ksemaphore.hpp **** typedef Ksemaphore* sem_t;
   8:src/../h/Ksemaphore.hpp **** 
   9:src/../h/Ksemaphore.hpp **** 
  10:src/../h/Ksemaphore.hpp **** class Ksemaphore{
  11:src/../h/Ksemaphore.hpp ****     Ksemaphore(unsigned init =1):val(init){}
 443              		.loc 3 11 42
 444 022c 23209500 		sw	s1,0(a0)
 445              	.LVL41:
 446              	.LBB40:
 447              	.LBB41:
  26:src/../h/list.hpp **** 
 448              		.loc 2 26 29
 449 0230 23340500 		sd	zero,8(a0)
 450 0234 23380500 		sd	zero,16(a0)
 451              	.LVL42:
 452              	.LBE41:
 453              	.LBE40:
 454              	.LBE39:
 455              	.LBE38:
  32:src/Ksemaphore.cpp ****     return ksem;
 456              		.loc 1 32 5 is_stmt 1
  33:src/Ksemaphore.cpp **** }
 457              		.loc 1 33 5
  34:src/Ksemaphore.cpp **** 
 458              		.loc 1 34 1 is_stmt 0
 459 0238 83308101 		ld	ra,24(sp)
 460              		.cfi_restore 1
 461 023c 03340101 		ld	s0,16(sp)
 462              		.cfi_restore 8
 463              		.cfi_def_cfa 2, 32
 464 0240 83348100 		ld	s1,8(sp)
 465              		.cfi_restore 9
 466 0244 13010102 		addi	sp,sp,32
 467              		.cfi_def_cfa_offset 0
 468 0248 67800000 		jr	ra
 469              		.cfi_endproc
 470              	.LFE35:
 472              	.Letext0:
 473              		.file 4 "src/../h/../lib/hw.h"
 474              		.file 5 "src/../h/MemoryAllocator.hpp"
 475              		.file 6 "src/../h/scheduler.hpp"
 476              		.file 7 "src/../h/TCB.hpp"
GAS LISTING /tmp/ccwwXOQE.s 			page 12


DEFINED SYMBOLS
                            *ABS*:0000000000000000 Ksemaphore.cpp
     /tmp/ccwwXOQE.s:9      .text:0000000000000000 _ZN10Ksemaphore5blockEv
     /tmp/ccwwXOQE.s:13     .text:0000000000000000 .L0 
     /tmp/ccwwXOQE.s:15     .text:0000000000000000 .L0 
     /tmp/ccwwXOQE.s:16     .text:0000000000000004 .L0 
     /tmp/ccwwXOQE.s:21     .text:0000000000000014 .L0 
     /tmp/ccwwXOQE.s:22     .text:0000000000000014 .L0 
     /tmp/ccwwXOQE.s:23     .text:0000000000000014 .L0 
     /tmp/ccwwXOQE.s:24     .text:0000000000000014 .L0 
     /tmp/ccwwXOQE.s:26     .text:0000000000000018 .L0 
     /tmp/ccwwXOQE.s:29     .text:000000000000001c .L0 
     /tmp/ccwwXOQE.s:30     .text:000000000000001c .L0 
     /tmp/ccwwXOQE.s:37     .text:0000000000000028 .L0 
     /tmp/ccwwXOQE.s:38     .text:0000000000000028 .L0 
     /tmp/ccwwXOQE.s:45     .text:0000000000000034 .L0 
     /tmp/ccwwXOQE.s:51     .text:000000000000003c .L0 
     /tmp/ccwwXOQE.s:53     .text:0000000000000040 .L0 
     /tmp/ccwwXOQE.s:55     .text:0000000000000044 .L0 
     /tmp/ccwwXOQE.s:57     .text:0000000000000048 .L0 
     /tmp/ccwwXOQE.s:63     .text:000000000000004c .L0 
     /tmp/ccwwXOQE.s:64     .text:0000000000000050 .L0 
     /tmp/ccwwXOQE.s:65     .text:0000000000000050 .L0 
     /tmp/ccwwXOQE.s:67     .text:0000000000000054 .L0 
     /tmp/ccwwXOQE.s:68     .text:0000000000000054 .L0 
     /tmp/ccwwXOQE.s:70     .text:0000000000000058 .L0 
     /tmp/ccwwXOQE.s:73     .text:000000000000005c .L0 
     /tmp/ccwwXOQE.s:76     .text:0000000000000060 .L0 
     /tmp/ccwwXOQE.s:80     .text:0000000000000064 .L0 
     /tmp/ccwwXOQE.s:84     .text:0000000000000064 .L0 
     /tmp/ccwwXOQE.s:90     .text:000000000000006c .L0 
     /tmp/ccwwXOQE.s:91     .text:0000000000000070 .L0 
     /tmp/ccwwXOQE.s:97     .text:0000000000000070 _ZN10Ksemaphore7unblockEv
     /tmp/ccwwXOQE.s:100    .text:0000000000000070 .L0 
     /tmp/ccwwXOQE.s:102    .text:0000000000000070 .L0 
     /tmp/ccwwXOQE.s:103    .text:0000000000000074 .L0 
     /tmp/ccwwXOQE.s:106    .text:000000000000007c .L0 
     /tmp/ccwwXOQE.s:107    .text:000000000000007c .L0 
     /tmp/ccwwXOQE.s:109    .text:0000000000000080 .L0 
     /tmp/ccwwXOQE.s:115    .text:0000000000000084 .L0 
     /tmp/ccwwXOQE.s:116    .text:0000000000000084 .L0 
     /tmp/ccwwXOQE.s:119    .text:0000000000000088 .L0 
     /tmp/ccwwXOQE.s:122    .text:000000000000008c .L0 
     /tmp/ccwwXOQE.s:124    .text:0000000000000090 .L0 
     /tmp/ccwwXOQE.s:126    .text:0000000000000094 .L0 
     /tmp/ccwwXOQE.s:129    .text:0000000000000098 .L0 
     /tmp/ccwwXOQE.s:135    .text:000000000000009c .L0 
     /tmp/ccwwXOQE.s:136    .text:000000000000009c .L0 
     /tmp/ccwwXOQE.s:139    .text:00000000000000a4 .L0 
     /tmp/ccwwXOQE.s:140    .text:00000000000000a8 .L0 
     /tmp/ccwwXOQE.s:141    .text:00000000000000a8 .L0 
     /tmp/ccwwXOQE.s:143    .text:00000000000000ac .L0 
     /tmp/ccwwXOQE.s:144    .text:00000000000000ac .L0 
     /tmp/ccwwXOQE.s:146    .text:00000000000000b0 .L0 
     /tmp/ccwwXOQE.s:150    .text:00000000000000b4 .L0 
     /tmp/ccwwXOQE.s:154    .text:00000000000000b4 .L0 
     /tmp/ccwwXOQE.s:158    .text:00000000000000bc .L0 
GAS LISTING /tmp/ccwwXOQE.s 			page 13


     /tmp/ccwwXOQE.s:164    .text:00000000000000bc _ZN10Ksemaphore4waitEv
     /tmp/ccwwXOQE.s:167    .text:00000000000000bc .L0 
     /tmp/ccwwXOQE.s:169    .text:00000000000000bc .L0 
     /tmp/ccwwXOQE.s:170    .text:00000000000000bc .L0 
     /tmp/ccwwXOQE.s:171    .text:00000000000000bc .L0 
     /tmp/ccwwXOQE.s:173    .text:00000000000000c0 .L0 
     /tmp/ccwwXOQE.s:175    .text:00000000000000c4 .L0 
     /tmp/ccwwXOQE.s:177    .text:00000000000000c8 .L0 
     /tmp/ccwwXOQE.s:180    .text:00000000000000d0 .L0 
     /tmp/ccwwXOQE.s:183    .text:00000000000000d4 .L0 
     /tmp/ccwwXOQE.s:187    .text:00000000000000d8 .L0 
     /tmp/ccwwXOQE.s:188    .text:00000000000000dc .L0 
     /tmp/ccwwXOQE.s:191    .text:00000000000000e4 .L0 
     /tmp/ccwwXOQE.s:192    .text:00000000000000e4 .L0 
     /tmp/ccwwXOQE.s:194    .text:00000000000000e8 .L0 
     /tmp/ccwwXOQE.s:196    .text:00000000000000e8 .L0 
     /tmp/ccwwXOQE.s:197    .text:00000000000000e8 .L0 
     /tmp/ccwwXOQE.s:200    .text:00000000000000f0 .L0 
     /tmp/ccwwXOQE.s:201    .text:00000000000000f0 .L0 
     /tmp/ccwwXOQE.s:204    .text:00000000000000f8 .L0 
     /tmp/ccwwXOQE.s:205    .text:00000000000000f8 .L0 
     /tmp/ccwwXOQE.s:207    .text:00000000000000fc .L0 
     /tmp/ccwwXOQE.s:208    .text:0000000000000100 .L0 
     /tmp/ccwwXOQE.s:210    .text:0000000000000104 .L0 
     /tmp/ccwwXOQE.s:211    .text:0000000000000104 .L0 
     /tmp/ccwwXOQE.s:213    .text:0000000000000108 .L0 
     /tmp/ccwwXOQE.s:215    .text:000000000000010c .L0 
     /tmp/ccwwXOQE.s:221    .text:000000000000010c _ZN10Ksemaphore6signalEv
     /tmp/ccwwXOQE.s:224    .text:000000000000010c .L0 
     /tmp/ccwwXOQE.s:226    .text:000000000000010c .L0 
     /tmp/ccwwXOQE.s:227    .text:000000000000010c .L0 
     /tmp/ccwwXOQE.s:228    .text:000000000000010c .L0 
     /tmp/ccwwXOQE.s:230    .text:0000000000000110 .L0 
     /tmp/ccwwXOQE.s:233    .text:0000000000000118 .L0 
     /tmp/ccwwXOQE.s:235    .text:000000000000011c .L0 
     /tmp/ccwwXOQE.s:237    .text:0000000000000120 .L0 
     /tmp/ccwwXOQE.s:240    .text:0000000000000124 .L0 
     /tmp/ccwwXOQE.s:244    .text:0000000000000128 .L0 
     /tmp/ccwwXOQE.s:245    .text:000000000000012c .L0 
     /tmp/ccwwXOQE.s:248    .text:0000000000000134 .L0 
     /tmp/ccwwXOQE.s:249    .text:0000000000000134 .L0 
     /tmp/ccwwXOQE.s:251    .text:0000000000000138 .L0 
     /tmp/ccwwXOQE.s:253    .text:0000000000000138 .L0 
     /tmp/ccwwXOQE.s:254    .text:0000000000000138 .L0 
     /tmp/ccwwXOQE.s:257    .text:0000000000000140 .L0 
     /tmp/ccwwXOQE.s:258    .text:0000000000000140 .L0 
     /tmp/ccwwXOQE.s:260    .text:0000000000000144 .L0 
     /tmp/ccwwXOQE.s:261    .text:0000000000000148 .L0 
     /tmp/ccwwXOQE.s:263    .text:000000000000014c .L0 
     /tmp/ccwwXOQE.s:264    .text:000000000000014c .L0 
     /tmp/ccwwXOQE.s:266    .text:0000000000000150 .L0 
     /tmp/ccwwXOQE.s:268    .text:0000000000000154 .L0 
     /tmp/ccwwXOQE.s:274    .text:0000000000000154 _ZN10Ksemaphore14closeSemaphoreEv
     /tmp/ccwwXOQE.s:277    .text:0000000000000154 .L0 
     /tmp/ccwwXOQE.s:279    .text:0000000000000154 .L0 
     /tmp/ccwwXOQE.s:280    .text:0000000000000158 .L0 
     /tmp/ccwwXOQE.s:284    .text:0000000000000164 .L0 
GAS LISTING /tmp/ccwwXOQE.s 			page 14


     /tmp/ccwwXOQE.s:285    .text:0000000000000164 .L0 
     /tmp/ccwwXOQE.s:286    .text:0000000000000164 .L0 
     /tmp/ccwwXOQE.s:288    .text:0000000000000168 .L0 
     /tmp/ccwwXOQE.s:296    .text:0000000000000170 .L0 
     /tmp/ccwwXOQE.s:299    .text:0000000000000174 .L0 
     /tmp/ccwwXOQE.s:304    .text:0000000000000178 .L0 
     /tmp/ccwwXOQE.s:306    .text:000000000000017c .L0 
     /tmp/ccwwXOQE.s:307    .text:000000000000017c .L0 
     /tmp/ccwwXOQE.s:311    .text:0000000000000184 .L0 
     /tmp/ccwwXOQE.s:312    .text:0000000000000184 .L0 
     /tmp/ccwwXOQE.s:315    .text:0000000000000184 .L0 
     /tmp/ccwwXOQE.s:316    .text:0000000000000184 .L0 
     /tmp/ccwwXOQE.s:318    .text:0000000000000188 .L0 
     /tmp/ccwwXOQE.s:321    .text:000000000000018c .L0 
     /tmp/ccwwXOQE.s:323    .text:0000000000000190 .L0 
     /tmp/ccwwXOQE.s:325    .text:0000000000000194 .L0 
     /tmp/ccwwXOQE.s:332    .text:000000000000019c .L0 
     /tmp/ccwwXOQE.s:333    .text:000000000000019c .L0 
     /tmp/ccwwXOQE.s:335    .text:00000000000001a4 .L0 
     /tmp/ccwwXOQE.s:337    .text:00000000000001a8 .L0 
     /tmp/ccwwXOQE.s:338    .text:00000000000001a8 .L0 
     /tmp/ccwwXOQE.s:340    .text:00000000000001ac .L0 
     /tmp/ccwwXOQE.s:343    .text:00000000000001b0 .L0 
     /tmp/ccwwXOQE.s:345    .text:00000000000001b4 .L0 
     /tmp/ccwwXOQE.s:351    .text:00000000000001b4 _ZN10KsemaphoredlEPv
     /tmp/ccwwXOQE.s:354    .text:00000000000001b4 .L0 
     /tmp/ccwwXOQE.s:356    .text:00000000000001b4 .L0 
     /tmp/ccwwXOQE.s:357    .text:00000000000001b8 .L0 
     /tmp/ccwwXOQE.s:360    .text:00000000000001c0 .L0 
     /tmp/ccwwXOQE.s:361    .text:00000000000001c0 .L0 
     /tmp/ccwwXOQE.s:363    .text:00000000000001c4 .L0 
     /tmp/ccwwXOQE.s:365    .text:00000000000001c4 .L0 
     /tmp/ccwwXOQE.s:366    .text:00000000000001c4 .L0 
     /tmp/ccwwXOQE.s:369    .text:00000000000001cc .L0 
     /tmp/ccwwXOQE.s:370    .text:00000000000001cc .L0 
     /tmp/ccwwXOQE.s:371    .text:00000000000001d0 .L0 
     /tmp/ccwwXOQE.s:373    .text:00000000000001d4 .L0 
     /tmp/ccwwXOQE.s:374    .text:00000000000001d4 .L0 
     /tmp/ccwwXOQE.s:376    .text:00000000000001d8 .L0 
     /tmp/ccwwXOQE.s:378    .text:00000000000001dc .L0 
     /tmp/ccwwXOQE.s:384    .text:00000000000001dc _ZN10KsemaphorenwEm
     /tmp/ccwwXOQE.s:387    .text:00000000000001dc .L0 
     /tmp/ccwwXOQE.s:389    .text:00000000000001dc .L0 
     /tmp/ccwwXOQE.s:390    .text:00000000000001e0 .L0 
     /tmp/ccwwXOQE.s:393    .text:00000000000001e8 .L0 
     /tmp/ccwwXOQE.s:394    .text:00000000000001e8 .L0 
     /tmp/ccwwXOQE.s:396    .text:00000000000001ec .L0 
     /tmp/ccwwXOQE.s:398    .text:00000000000001ec .L0 
     /tmp/ccwwXOQE.s:399    .text:00000000000001ec .L0 
     /tmp/ccwwXOQE.s:404    .text:00000000000001f8 .L0 
     /tmp/ccwwXOQE.s:405    .text:00000000000001fc .L0 
     /tmp/ccwwXOQE.s:407    .text:0000000000000200 .L0 
     /tmp/ccwwXOQE.s:408    .text:0000000000000200 .L0 
     /tmp/ccwwXOQE.s:410    .text:0000000000000204 .L0 
     /tmp/ccwwXOQE.s:412    .text:0000000000000208 .L0 
     /tmp/ccwwXOQE.s:418    .text:0000000000000208 _ZN10Ksemaphore15createSemaphoreEj
     /tmp/ccwwXOQE.s:421    .text:0000000000000208 .L0 
GAS LISTING /tmp/ccwwXOQE.s 			page 15


     /tmp/ccwwXOQE.s:423    .text:0000000000000208 .L0 
     /tmp/ccwwXOQE.s:424    .text:000000000000020c .L0 
     /tmp/ccwwXOQE.s:428    .text:0000000000000218 .L0 
     /tmp/ccwwXOQE.s:429    .text:0000000000000218 .L0 
     /tmp/ccwwXOQE.s:430    .text:0000000000000218 .L0 
     /tmp/ccwwXOQE.s:432    .text:000000000000021c .L0 
     /tmp/ccwwXOQE.s:435    .text:0000000000000220 .L0 
     /tmp/ccwwXOQE.s:436    .text:0000000000000220 .L0 
     /tmp/ccwwXOQE.s:444    .text:000000000000022c .L0 
     /tmp/ccwwXOQE.s:449    .text:0000000000000230 .L0 
     /tmp/ccwwXOQE.s:457    .text:0000000000000238 .L0 
     /tmp/ccwwXOQE.s:458    .text:0000000000000238 .L0 
     /tmp/ccwwXOQE.s:459    .text:0000000000000238 .L0 
     /tmp/ccwwXOQE.s:460    .text:000000000000023c .L0 
     /tmp/ccwwXOQE.s:462    .text:0000000000000240 .L0 
     /tmp/ccwwXOQE.s:463    .text:0000000000000240 .L0 
     /tmp/ccwwXOQE.s:465    .text:0000000000000244 .L0 
     /tmp/ccwwXOQE.s:467    .text:0000000000000248 .L0 
     /tmp/ccwwXOQE.s:469    .text:000000000000024c .L0 
     /tmp/ccwwXOQE.s:477    .text:000000000000024c .L0 
     /tmp/ccwwXOQE.s:30     .text:000000000000001c .L0 
     /tmp/ccwwXOQE.s:79     .text:0000000000000064 .L2
     /tmp/ccwwXOQE.s:59     .text:000000000000004c .L1
     /tmp/ccwwXOQE.s:131    .text:000000000000009c .L6
     /tmp/ccwwXOQE.s:149    .text:00000000000000b4 .L9
     /tmp/ccwwXOQE.s:127    .text:0000000000000098 .L7
     /tmp/ccwwXOQE.s:185    .text:00000000000000d8 .L17
     /tmp/ccwwXOQE.s:242    .text:0000000000000128 .L25
     /tmp/ccwwXOQE.s:309    .text:0000000000000184 .L29
     /tmp/ccwwXOQE.s:328    .text:000000000000019c .L27
     /tmp/ccwwXOQE.s:297    .text:0000000000000174 .L28
     /tmp/ccwwXOQE.s:292    .text:0000000000000170 .L31
     /tmp/ccwwXOQE.s:2037   .debug_abbrev:0000000000000000 .Ldebug_abbrev0
     /tmp/ccwwXOQE.s:3819   .debug_str:0000000000000861 .LASF149
     /tmp/ccwwXOQE.s:3561   .debug_str:000000000000003a .LASF150
     /tmp/ccwwXOQE.s:3647   .debug_str:00000000000002f9 .LASF151
     /tmp/ccwwXOQE.s:5      .text:0000000000000000 .Ltext0
     /tmp/ccwwXOQE.s:472    .text:000000000000024c .Letext0
     /tmp/ccwwXOQE.s:3551   .debug_line:0000000000000000 .Ldebug_line0
     /tmp/ccwwXOQE.s:3737   .debug_str:0000000000000608 .LASF0
     /tmp/ccwwXOQE.s:3751   .debug_str:000000000000066b .LASF1
     /tmp/ccwwXOQE.s:3711   .debug_str:0000000000000530 .LASF2
     /tmp/ccwwXOQE.s:3679   .debug_str:000000000000043b .LASF4
     /tmp/ccwwXOQE.s:3799   .debug_str:00000000000007d9 .LASF3
     /tmp/ccwwXOQE.s:3579   .debug_str:00000000000000d3 .LASF5
     /tmp/ccwwXOQE.s:3753   .debug_str:000000000000067e .LASF6
     /tmp/ccwwXOQE.s:3735   .debug_str:00000000000005f5 .LASF7
     /tmp/ccwwXOQE.s:3833   .debug_str:0000000000000961 .LASF8
     /tmp/ccwwXOQE.s:3657   .debug_str:000000000000035c .LASF9
     /tmp/ccwwXOQE.s:3765   .debug_str:00000000000006cb .LASF10
     /tmp/ccwwXOQE.s:3825   .debug_str:0000000000000937 .LASF11
     /tmp/ccwwXOQE.s:3583   .debug_str:00000000000000e1 .LASF12
     /tmp/ccwwXOQE.s:3563   .debug_str:000000000000004d .LASF13
     /tmp/ccwwXOQE.s:3601   .debug_str:000000000000017a .LASF14
     /tmp/ccwwXOQE.s:3791   .debug_str:000000000000079f .LASF15
     /tmp/ccwwXOQE.s:3615   .debug_str:000000000000020a .LASF16
     /tmp/ccwwXOQE.s:3707   .debug_str:0000000000000507 .LASF30
GAS LISTING /tmp/ccwwXOQE.s 			page 16


     /tmp/ccwwXOQE.s:3839   .debug_str:0000000000000990 .LASF48
     /tmp/ccwwXOQE.s:3863   .debug_str:0000000000000a8d .LASF17
     /tmp/ccwwXOQE.s:3847   .debug_str:00000000000009c3 .LASF18
     /tmp/ccwwXOQE.s:3811   .debug_str:000000000000083d .LASF19
     /tmp/ccwwXOQE.s:3683   .debug_str:000000000000044e .LASF20
     /tmp/ccwwXOQE.s:3719   .debug_str:0000000000000570 .LASF21
     /tmp/ccwwXOQE.s:3805   .debug_str:000000000000080a .LASF22
     /tmp/ccwwXOQE.s:3823   .debug_str:0000000000000931 .LASF23
     /tmp/ccwwXOQE.s:3747   .debug_str:0000000000000644 .LASF25
     /tmp/ccwwXOQE.s:3749   .debug_str:0000000000000661 .LASF24
     /tmp/ccwwXOQE.s:3853   .debug_str:0000000000000a1b .LASF26
     /tmp/ccwwXOQE.s:3603   .debug_str:0000000000000186 .LASF92
     /tmp/ccwwXOQE.s:3607   .debug_str:00000000000001a0 .LASF94
     /tmp/ccwwXOQE.s:3581   .debug_str:00000000000000da .LASF32
     /tmp/ccwwXOQE.s:3769   .debug_str:00000000000006e5 .LASF34
     /tmp/ccwwXOQE.s:3641   .debug_str:00000000000002dc .LASF27
     /tmp/ccwwXOQE.s:3783   .debug_str:000000000000073f .LASF28
     /tmp/ccwwXOQE.s:3759   .debug_str:00000000000006b5 .LASF29
     /tmp/ccwwXOQE.s:3763   .debug_str:00000000000006c1 .LASF31
     /tmp/ccwwXOQE.s:3845   .debug_str:00000000000009b6 .LASF33
     /tmp/ccwwXOQE.s:3857   .debug_str:0000000000000a41 .LASF35
     /tmp/ccwwXOQE.s:3807   .debug_str:0000000000000818 .LASF36
     /tmp/ccwwXOQE.s:3741   .debug_str:000000000000061e .LASF37
     /tmp/ccwwXOQE.s:3649   .debug_str:0000000000000317 .LASF38
     /tmp/ccwwXOQE.s:3743   .debug_str:0000000000000631 .LASF39
     /tmp/ccwwXOQE.s:3803   .debug_str:00000000000007f8 .LASF40
     /tmp/ccwwXOQE.s:3671   .debug_str:00000000000003e7 .LASF152
     /tmp/ccwwXOQE.s:3599   .debug_str:0000000000000162 .LASF153
     /tmp/ccwwXOQE.s:3613   .debug_str:0000000000000202 .LASF41
     /tmp/ccwwXOQE.s:3627   .debug_str:000000000000027b .LASF43
     /tmp/ccwwXOQE.s:3789   .debug_str:0000000000000797 .LASF42
     /tmp/ccwwXOQE.s:3797   .debug_str:00000000000007c1 .LASF44
     /tmp/ccwwXOQE.s:3821   .debug_str:0000000000000925 .LASF45
     /tmp/ccwwXOQE.s:3621   .debug_str:000000000000022b .LASF46
     /tmp/ccwwXOQE.s:3703   .debug_str:00000000000004f0 .LASF47
     /tmp/ccwwXOQE.s:3827   .debug_str:0000000000000946 .LASF49
     /tmp/ccwwXOQE.s:3781   .debug_str:000000000000073a .LASF50
     /tmp/ccwwXOQE.s:3727   .debug_str:00000000000005af .LASF108
     /tmp/ccwwXOQE.s:3619   .debug_str:0000000000000226 .LASF51
     /tmp/ccwwXOQE.s:3677   .debug_str:0000000000000436 .LASF52
     /tmp/ccwwXOQE.s:3659   .debug_str:000000000000036a .LASF53
     /tmp/ccwwXOQE.s:3787   .debug_str:0000000000000780 .LASF61
     /tmp/ccwwXOQE.s:3729   .debug_str:00000000000005ce .LASF154
     /tmp/ccwwXOQE.s:3665   .debug_str:0000000000000394 .LASF155
     /tmp/ccwwXOQE.s:3675   .debug_str:0000000000000423 .LASF54
     /tmp/ccwwXOQE.s:3593   .debug_str:0000000000000135 .LASF55
     /tmp/ccwwXOQE.s:3817   .debug_str:0000000000000858 .LASF56
     /tmp/ccwwXOQE.s:3629   .debug_str:0000000000000293 .LASF57
     /tmp/ccwwXOQE.s:3655   .debug_str:0000000000000354 .LASF58
     /tmp/ccwwXOQE.s:3625   .debug_str:000000000000025f .LASF59
     /tmp/ccwwXOQE.s:3715   .debug_str:000000000000054a .LASF60
     /tmp/ccwwXOQE.s:3557   .debug_str:000000000000000d .LASF62
     /tmp/ccwwXOQE.s:3597   .debug_str:0000000000000158 .LASF63
     /tmp/ccwwXOQE.s:3695   .debug_str:00000000000004ad .LASF64
     /tmp/ccwwXOQE.s:3829   .debug_str:000000000000094b .LASF65
     /tmp/ccwwXOQE.s:3573   .debug_str:0000000000000089 .LASF66
     /tmp/ccwwXOQE.s:3699   .debug_str:00000000000004d9 .LASF67
GAS LISTING /tmp/ccwwXOQE.s 			page 17


     /tmp/ccwwXOQE.s:3849   .debug_str:00000000000009c8 .LASF68
     /tmp/ccwwXOQE.s:3565   .debug_str:000000000000005d .LASF69
     /tmp/ccwwXOQE.s:3701   .debug_str:00000000000004e2 .LASF110
     /tmp/ccwwXOQE.s:3667   .debug_str:00000000000003ab .LASF112
     /tmp/ccwwXOQE.s:3837   .debug_str:0000000000000984 .LASF100
     /tmp/ccwwXOQE.s:3631   .debug_str:00000000000002b0 .LASF70
     /tmp/ccwwXOQE.s:3775   .debug_str:0000000000000724 .LASF71
     /tmp/ccwwXOQE.s:3755   .debug_str:0000000000000691 .LASF72
     /tmp/ccwwXOQE.s:3611   .debug_str:00000000000001eb .LASF73
     /tmp/ccwwXOQE.s:3713   .debug_str:000000000000053e .LASF74
     /tmp/ccwwXOQE.s:3865   .debug_str:0000000000000a92 .LASF75
     /tmp/ccwwXOQE.s:3705   .debug_str:00000000000004fa .LASF76
     /tmp/ccwwXOQE.s:3575   .debug_str:00000000000000a6 .LASF77
     /tmp/ccwwXOQE.s:3779   .debug_str:0000000000000735 .LASF156
     /tmp/ccwwXOQE.s:3731   .debug_str:00000000000005d8 .LASF78
     /tmp/ccwwXOQE.s:3689   .debug_str:0000000000000486 .LASF79
     /tmp/ccwwXOQE.s:3571   .debug_str:0000000000000082 .LASF80
     /tmp/ccwwXOQE.s:3697   .debug_str:00000000000004c8 .LASF81
     /tmp/ccwwXOQE.s:3813   .debug_str:0000000000000842 .LASF82
     /tmp/ccwwXOQE.s:3815   .debug_str:0000000000000848 .LASF83
     /tmp/ccwwXOQE.s:3681   .debug_str:0000000000000442 .LASF84
     /tmp/ccwwXOQE.s:3801   .debug_str:00000000000007eb .LASF85
     /tmp/ccwwXOQE.s:3693   .debug_str:00000000000004a0 .LASF86
     /tmp/ccwwXOQE.s:3591   .debug_str:0000000000000115 .LASF87
     /tmp/ccwwXOQE.s:3867   .debug_str:0000000000000aa9 .LASF88
     /tmp/ccwwXOQE.s:3851   .debug_str:00000000000009e2 .LASF89
     /tmp/ccwwXOQE.s:3589   .debug_str:0000000000000106 .LASF90
     /tmp/ccwwXOQE.s:3773   .debug_str:0000000000000708 .LASF91
     /tmp/ccwwXOQE.s:3793   .debug_str:00000000000007b5 .LASF93
     /tmp/ccwwXOQE.s:3723   .debug_str:0000000000000586 .LASF95
     /tmp/ccwwXOQE.s:3651   .debug_str:0000000000000328 .LASF96
     /tmp/ccwwXOQE.s:3687   .debug_str:0000000000000465 .LASF97
     /tmp/ccwwXOQE.s:3637   .debug_str:00000000000002c0 .LASF98
     /tmp/ccwwXOQE.s:3661   .debug_str:000000000000037d .LASF99
     /tmp/ccwwXOQE.s:3733   .debug_str:00000000000005e0 .LASF101
     /tmp/ccwwXOQE.s:3635   .debug_str:00000000000002bb .LASF102
     /tmp/ccwwXOQE.s:3605   .debug_str:000000000000019a .LASF103
     /tmp/ccwwXOQE.s:3691   .debug_str:0000000000000498 .LASF104
     /tmp/ccwwXOQE.s:3745   .debug_str:000000000000063a .LASF105
     /tmp/ccwwXOQE.s:3685   .debug_str:000000000000045c .LASF106
     /tmp/ccwwXOQE.s:3841   .debug_str:00000000000009a0 .LASF107
     /tmp/ccwwXOQE.s:3673   .debug_str:00000000000003fb .LASF109
     /tmp/ccwwXOQE.s:3739   .debug_str:0000000000000615 .LASF111
     /tmp/ccwwXOQE.s:3643   .debug_str:00000000000002e1 .LASF113
     /tmp/ccwwXOQE.s:3709   .debug_str:0000000000000517 .LASF114
     /tmp/ccwwXOQE.s:3785   .debug_str:000000000000075c .LASF115
     /tmp/ccwwXOQE.s:3767   .debug_str:00000000000006da .LASF116
     /tmp/ccwwXOQE.s:3653   .debug_str:000000000000033e .LASF117
     /tmp/ccwwXOQE.s:3553   .debug_str:0000000000000000 .LASF118
     /tmp/ccwwXOQE.s:3595   .debug_str:0000000000000149 .LASF119
     /tmp/ccwwXOQE.s:3721   .debug_str:0000000000000575 .LASF120
     /tmp/ccwwXOQE.s:3569   .debug_str:0000000000000079 .LASF121
     /tmp/ccwwXOQE.s:3645   .debug_str:00000000000002f4 .LASF122
     /tmp/ccwwXOQE.s:3831   .debug_str:0000000000000956 .LASF123
     /tmp/ccwwXOQE.s:3577   .debug_str:00000000000000bf .LASF124
     /tmp/ccwwXOQE.s:3585   .debug_str:00000000000000f1 .LASF125
     /tmp/ccwwXOQE.s:3623   .debug_str:0000000000000248 .LASF126
GAS LISTING /tmp/ccwwXOQE.s 			page 18


     /tmp/ccwwXOQE.s:3761   .debug_str:00000000000006ba .LASF127
     /tmp/ccwwXOQE.s:3725   .debug_str:0000000000000596 .LASF128
     /tmp/ccwwXOQE.s:3617   .debug_str:0000000000000220 .LASF129
     /tmp/ccwwXOQE.s:3757   .debug_str:000000000000069c .LASF130
     /tmp/ccwwXOQE.s:3587   .debug_str:00000000000000f6 .LASF131
     /tmp/ccwwXOQE.s:3669   .debug_str:00000000000003c4 .LASF132
     /tmp/ccwwXOQE.s:3559   .debug_str:000000000000002b .LASF133
     /tmp/ccwwXOQE.s:3861   .debug_str:0000000000000a6b .LASF134
     /tmp/ccwwXOQE.s:3633   .debug_str:00000000000002b5 .LASF135
     /tmp/ccwwXOQE.s:3859   .debug_str:0000000000000a53 .LASF136
     /tmp/ccwwXOQE.s:3843   .debug_str:00000000000009ae .LASF137
     /tmp/ccwwXOQE.s:3717   .debug_str:0000000000000556 .LASF138
     /tmp/ccwwXOQE.s:3567   .debug_str:0000000000000065 .LASF139
     /tmp/ccwwXOQE.s:3809   .debug_str:0000000000000828 .LASF140
     /tmp/ccwwXOQE.s:3555   .debug_str:0000000000000005 .LASF141
     /tmp/ccwwXOQE.s:3771   .debug_str:0000000000000703 .LASF142
     /tmp/ccwwXOQE.s:3609   .debug_str:00000000000001cc .LASF144
     /tmp/ccwwXOQE.s:3777   .debug_str:0000000000000730 .LASF143
     /tmp/ccwwXOQE.s:3835   .debug_str:0000000000000971 .LASF145
     /tmp/ccwwXOQE.s:385    .text:00000000000001dc .LFB38
     /tmp/ccwwXOQE.s:413    .text:0000000000000208 .LFE38
     /tmp/ccwwXOQE.s:3204   .debug_loc:0000000000000000 .LLST18
     /tmp/ccwwXOQE.s:402    .text:00000000000001f8 .LVL37
     /tmp/ccwwXOQE.s:352    .text:00000000000001b4 .LFB37
     /tmp/ccwwXOQE.s:379    .text:00000000000001dc .LFE37
     /tmp/ccwwXOQE.s:3218   .debug_loc:0000000000000039 .LLST17
     /tmp/ccwwXOQE.s:367    .text:00000000000001cc .LVL34
     /tmp/ccwwXOQE.s:275    .text:0000000000000154 .LFB36
     /tmp/ccwwXOQE.s:346    .text:00000000000001b4 .LFE36
     /tmp/ccwwXOQE.s:3232   .debug_loc:0000000000000072 .LLST13
     /tmp/ccwwXOQE.s:3250   .debug_loc:00000000000000be .LLST14
     /tmp/ccwwXOQE.s:293    .text:0000000000000170 .LBB34
     /tmp/ccwwXOQE.s:3531   .debug_ranges:0000000000000000 .Ldebug_ranges0
     /tmp/ccwwXOQE.s:3257   .debug_loc:00000000000000e1 .LLST15
     /tmp/ccwwXOQE.s:3272   .debug_loc:000000000000011b .LLST16
     /tmp/ccwwXOQE.s:308    .text:0000000000000184 .LVL29
     /tmp/ccwwXOQE.s:419    .text:0000000000000208 .LFB35
     /tmp/ccwwXOQE.s:470    .text:000000000000024c .LFE35
     /tmp/ccwwXOQE.s:3663   .debug_str:000000000000038f .LASF146
     /tmp/ccwwXOQE.s:3283   .debug_loc:0000000000000151 .LLST19
     /tmp/ccwwXOQE.s:3855   .debug_str:0000000000000a3c .LASF147
     /tmp/ccwwXOQE.s:440    .text:000000000000022c .LBB38
     /tmp/ccwwXOQE.s:455    .text:0000000000000238 .LBE38
     /tmp/ccwwXOQE.s:3297   .debug_loc:000000000000018a .LLST20
     /tmp/ccwwXOQE.s:3304   .debug_loc:00000000000001ad .LLST21
     /tmp/ccwwXOQE.s:446    .text:0000000000000230 .LBB40
     /tmp/ccwwXOQE.s:453    .text:0000000000000238 .LBE40
     /tmp/ccwwXOQE.s:3311   .debug_loc:00000000000001d0 .LLST22
     /tmp/ccwwXOQE.s:439    .text:000000000000022c .LVL40
     /tmp/ccwwXOQE.s:222    .text:000000000000010c .LFB34
     /tmp/ccwwXOQE.s:269    .text:0000000000000154 .LFE34
     /tmp/ccwwXOQE.s:3320   .debug_loc:00000000000001f5 .LLST12
     /tmp/ccwwXOQE.s:255    .text:0000000000000140 .LVL25
     /tmp/ccwwXOQE.s:165    .text:00000000000000bc .LFB33
     /tmp/ccwwXOQE.s:216    .text:000000000000010c .LFE33
     /tmp/ccwwXOQE.s:3345   .debug_loc:0000000000000257 .LLST11
     /tmp/ccwwXOQE.s:198    .text:00000000000000f0 .LVL20
GAS LISTING /tmp/ccwwXOQE.s 			page 19


     /tmp/ccwwXOQE.s:202    .text:00000000000000f8 .LVL21
     /tmp/ccwwXOQE.s:98     .text:0000000000000070 .LFB32
     /tmp/ccwwXOQE.s:159    .text:00000000000000bc .LFE32
     /tmp/ccwwXOQE.s:3370   .debug_loc:00000000000002b9 .LLST7
     /tmp/ccwwXOQE.s:3392   .debug_loc:0000000000000318 .LLST8
     /tmp/ccwwXOQE.s:113    .text:0000000000000084 .LBB30
     /tmp/ccwwXOQE.s:3399   .debug_loc:000000000000033b .LLST9
     /tmp/ccwwXOQE.s:3420   .debug_loc:000000000000038a .LLST10
     /tmp/ccwwXOQE.s:137    .text:00000000000000a4 .LVL15
     /tmp/ccwwXOQE.s:10     .text:0000000000000000 .LFB31
     /tmp/ccwwXOQE.s:92     .text:0000000000000070 .LFE31
     /tmp/ccwwXOQE.s:3431   .debug_loc:00000000000003c0 .LLST0
     /tmp/ccwwXOQE.s:3453   .debug_loc:000000000000041f .LLST1
     /tmp/ccwwXOQE.s:34     .text:0000000000000028 .LBB24
     /tmp/ccwwXOQE.s:3464   .debug_loc:0000000000000455 .LLST2
     /tmp/ccwwXOQE.s:3475   .debug_loc:000000000000048b .LLST3
     /tmp/ccwwXOQE.s:42     .text:0000000000000034 .LBB26
     /tmp/ccwwXOQE.s:49     .text:000000000000003c .LBE26
     /tmp/ccwwXOQE.s:3496   .debug_loc:00000000000004da .LLST4
     /tmp/ccwwXOQE.s:3504   .debug_loc:00000000000004fe .LLST5
     /tmp/ccwwXOQE.s:3511   .debug_loc:0000000000000521 .LLST6
     /tmp/ccwwXOQE.s:41     .text:0000000000000034 .LVL3
     /tmp/ccwwXOQE.s:3639   .debug_str:00000000000002c8 .LASF148
     /tmp/ccwwXOQE.s:3795   .debug_str:00000000000007bb .LASF157
     /tmp/ccwwXOQE.s:388    .text:00000000000001dc .LVL35
     /tmp/ccwwXOQE.s:400    .text:00000000000001f0 .LVL36
     /tmp/ccwwXOQE.s:355    .text:00000000000001b4 .LVL33
     /tmp/ccwwXOQE.s:278    .text:0000000000000154 .LVL26
     /tmp/ccwwXOQE.s:291    .text:0000000000000170 .LVL27
     /tmp/ccwwXOQE.s:341    .text:00000000000001ac .LVL32
     /tmp/ccwwXOQE.s:300    .text:0000000000000178 .LVL28
     /tmp/ccwwXOQE.s:327    .text:000000000000019c .LVL31
     /tmp/ccwwXOQE.s:319    .text:000000000000018c .LVL30
     /tmp/ccwwXOQE.s:422    .text:0000000000000208 .LVL38
     /tmp/ccwwXOQE.s:437    .text:0000000000000224 .LVL39
     /tmp/ccwwXOQE.s:451    .text:0000000000000238 .LVL42
     /tmp/ccwwXOQE.s:445    .text:0000000000000230 .LVL41
     /tmp/ccwwXOQE.s:225    .text:000000000000010c .LVL22
     /tmp/ccwwXOQE.s:238    .text:0000000000000124 .LVL23
     /tmp/ccwwXOQE.s:241    .text:0000000000000128 .LVL24
     /tmp/ccwwXOQE.s:168    .text:00000000000000bc .LVL17
     /tmp/ccwwXOQE.s:181    .text:00000000000000d4 .LVL18
     /tmp/ccwwXOQE.s:184    .text:00000000000000d8 .LVL19
     /tmp/ccwwXOQE.s:101    .text:0000000000000070 .LVL10
     /tmp/ccwwXOQE.s:117    .text:0000000000000088 .LVL12
     /tmp/ccwwXOQE.s:148    .text:00000000000000b4 .LVL16
     /tmp/ccwwXOQE.s:130    .text:000000000000009c .LVL14
     /tmp/ccwwXOQE.s:112    .text:0000000000000084 .LVL11
     /tmp/ccwwXOQE.s:120    .text:000000000000008c .LVL13
     /tmp/ccwwXOQE.s:14     .text:0000000000000000 .LVL0
     /tmp/ccwwXOQE.s:39     .text:000000000000002c .LVL2
     /tmp/ccwwXOQE.s:71     .text:0000000000000058 .LVL6
     /tmp/ccwwXOQE.s:78     .text:0000000000000064 .LVL8
     /tmp/ccwwXOQE.s:32     .text:0000000000000028 .LVL1
     /tmp/ccwwXOQE.s:74     .text:000000000000005c .LVL7
     /tmp/ccwwXOQE.s:58     .text:000000000000004c .LVL5
     /tmp/ccwwXOQE.s:86     .text:000000000000006c .LVL9
GAS LISTING /tmp/ccwwXOQE.s 			page 20


     /tmp/ccwwXOQE.s:47     .text:000000000000003c .LVL4
     /tmp/ccwwXOQE.s:478    .debug_info:0000000000000000 .Ldebug_info0
     /tmp/ccwwXOQE.s:61     .text:000000000000004c .LBE24
     /tmp/ccwwXOQE.s:81     .text:0000000000000064 .LBB29
     /tmp/ccwwXOQE.s:88     .text:000000000000006c .LBE29
     /tmp/ccwwXOQE.s:133    .text:000000000000009c .LBE30
     /tmp/ccwwXOQE.s:151    .text:00000000000000b4 .LBB33
     /tmp/ccwwXOQE.s:157    .text:00000000000000bc .LBE33
     /tmp/ccwwXOQE.s:302    .text:0000000000000178 .LBE34
     /tmp/ccwwXOQE.s:313    .text:0000000000000184 .LBB37
     /tmp/ccwwXOQE.s:330    .text:000000000000019c .LBE37

UNDEFINED SYMBOLS
_ZN3TCB7runningE
_Znwm
_ZN9Scheduler3putEP3TCB
_ZN3TCB24dispatchWithoutSchedulerEv
_ZN15MemoryAllocator4freeEPv
_ZN15MemoryAllocator6mallocEm
