GAS LISTING /tmp/ccuDIygl.s 			page 1


   1              		.file	"Ksemaphore.cpp"
   2              		.option pic
   3              		.option norelax
   4              		.text
   5              	.Ltext0:
   6              		.align	2
   7              		.globl	_ZN10Ksemaphore5blockEv
   9              	_ZN10Ksemaphore5blockEv:
  10              	.LFB26:
  11              		.file 1 "src/Ksemaphore.cpp"
   1:src/Ksemaphore.cpp **** #include "../h/Ksemaphore.hpp"
   2:src/Ksemaphore.cpp **** 
   3:src/Ksemaphore.cpp **** void Ksemaphore::block() {
  12              		.loc 1 3 26
  13              		.cfi_startproc
  14              	.LVL0:
  15 0000 130101FE 		addi	sp,sp,-32
  16              		.cfi_def_cfa_offset 32
  17 0004 233C1100 		sd	ra,24(sp)
  18 0008 23388100 		sd	s0,16(sp)
  19 000c 23349100 		sd	s1,8(sp)
  20 0010 23302101 		sd	s2,0(sp)
  21              		.cfi_offset 1, -8
  22              		.cfi_offset 8, -16
  23              		.cfi_offset 9, -24
  24              		.cfi_offset 18, -32
  25 0014 13040102 		addi	s0,sp,32
  26              		.cfi_def_cfa 8, 0
  27 0018 93040500 		mv	s1,a0
   4:src/Ksemaphore.cpp ****     blocked.addLast(TCB::running);
  28              		.loc 1 4 5
  29              		.loc 1 4 20 is_stmt 0
  30 001c 97070000 		la	a5,_ZN3TCB7runningE
  30      83B70700 
  31 0024 03B90700 		ld	s2,0(a5)
  32              	.LVL1:
  33              	.LBB22:
  34              	.LBB23:
  35              		.file 2 "src/../h/list.hpp"
   1:src/../h/list.hpp **** //
   2:src/../h/list.hpp **** // Created by os on 8/27/22.
   3:src/../h/list.hpp **** //
   4:src/../h/list.hpp **** 
   5:src/../h/list.hpp **** #ifndef PROJECT_BASE_LIST_HPP
   6:src/../h/list.hpp **** #define PROJECT_BASE_LIST_HPP
   7:src/../h/list.hpp **** 
   8:src/../h/list.hpp **** #include "../lib/mem.h"
   9:src/../h/list.hpp **** 
  10:src/../h/list.hpp **** template<typename T>
  11:src/../h/list.hpp **** class List
  12:src/../h/list.hpp **** {
  13:src/../h/list.hpp **** private:
  14:src/../h/list.hpp ****     struct Elem
  15:src/../h/list.hpp ****     {
  16:src/../h/list.hpp ****         T *data;
  17:src/../h/list.hpp ****         Elem *next;
  18:src/../h/list.hpp **** 
GAS LISTING /tmp/ccuDIygl.s 			page 2


  19:src/../h/list.hpp ****         Elem(T *data, Elem *next) : data(data), next(next) {}
  20:src/../h/list.hpp ****     };
  21:src/../h/list.hpp **** 
  22:src/../h/list.hpp ****     Elem *head, *tail;
  23:src/../h/list.hpp **** 
  24:src/../h/list.hpp **** public:
  25:src/../h/list.hpp ****     List() : head(0), tail(0) {}
  26:src/../h/list.hpp **** 
  27:src/../h/list.hpp ****     List(const List<T> &) = delete;
  28:src/../h/list.hpp **** 
  29:src/../h/list.hpp ****     List<T> &operator=(const List<T> &) = delete;
  30:src/../h/list.hpp **** 
  31:src/../h/list.hpp ****     void addFirst(T *data)
  32:src/../h/list.hpp ****     {
  33:src/../h/list.hpp ****         Elem *elem = new Elem(data, head);
  34:src/../h/list.hpp ****         head = elem;
  35:src/../h/list.hpp ****         if (!tail) { tail = head; }
  36:src/../h/list.hpp ****     }
  37:src/../h/list.hpp **** 
  38:src/../h/list.hpp ****     void addLast(T *data)
  39:src/../h/list.hpp ****     {
  40:src/../h/list.hpp ****         Elem *elem = new Elem(data, 0);
  36              		.loc 2 40 22
  37 0028 13050001 		li	a0,16
  38              	.LVL2:
  39 002c 97000000 		call	_Znwm@plt
  39      E7800000 
  40              	.LVL3:
  41              	.LBB24:
  42              	.LBB25:
  19:src/../h/list.hpp ****     };
  43              		.loc 2 19 58
  44 0034 23302501 		sd	s2,0(a0)
  45 0038 23340500 		sd	zero,8(a0)
  46              	.LVL4:
  47              	.LBE25:
  48              	.LBE24:
  41:src/../h/list.hpp ****         if (tail)
  49              		.loc 2 41 13
  50 003c 83B70401 		ld	a5,16(s1)
  51              		.loc 2 41 9
  52 0040 638C0702 		beqz	a5,.L2
  42:src/../h/list.hpp ****         {
  43:src/../h/list.hpp ****             tail->next = elem;
  53              		.loc 2 43 13
  54 0044 23B4A700 		sd	a0,8(a5)
  44:src/../h/list.hpp ****             tail = elem;
  55              		.loc 2 44 13
  56 0048 23B8A400 		sd	a0,16(s1)
  57              	.L3:
  58              	.LVL5:
  59              	.LBE23:
  60              	.LBE22:
   5:src/Ksemaphore.cpp ****     TCB::running=Scheduler::get();
  61              		.loc 1 5 5 is_stmt 1
  62              		.loc 1 5 32 is_stmt 0
  63 004c 97000000 		call	_ZN9Scheduler3getEv@plt
GAS LISTING /tmp/ccuDIygl.s 			page 3


  63      E7800000 
  64              	.LVL6:
  65              		.loc 1 5 17
  66 0054 97070000 		la	a5,_ZN3TCB7runningE
  66      83B70700 
  67 005c 23B0A700 		sd	a0,0(a5)
   6:src/Ksemaphore.cpp **** 
   7:src/Ksemaphore.cpp **** }
  68              		.loc 1 7 1
  69 0060 83308101 		ld	ra,24(sp)
  70              		.cfi_remember_state
  71              		.cfi_restore 1
  72 0064 03340101 		ld	s0,16(sp)
  73              		.cfi_restore 8
  74              		.cfi_def_cfa 2, 32
  75 0068 83348100 		ld	s1,8(sp)
  76              		.cfi_restore 9
  77              	.LVL7:
  78 006c 03390100 		ld	s2,0(sp)
  79              		.cfi_restore 18
  80 0070 13010102 		addi	sp,sp,32
  81              		.cfi_def_cfa_offset 0
  82 0074 67800000 		jr	ra
  83              	.LVL8:
  84              	.L2:
  85              		.cfi_restore_state
  86              	.LBB27:
  87              	.LBB26:
  45:src/../h/list.hpp ****         } else
  46:src/../h/list.hpp ****         {
  47:src/../h/list.hpp ****             head = tail = elem;
  88              		.loc 2 47 13
  89 0078 23B8A400 		sd	a0,16(s1)
  90 007c 23B4A400 		sd	a0,8(s1)
  91 0080 6FF0DFFC 		j	.L3
  92              	.LBE26:
  93              	.LBE27:
  94              		.cfi_endproc
  95              	.LFE26:
  97              		.align	2
  98              		.globl	_ZN10Ksemaphore7unblockEv
 100              	_ZN10Ksemaphore7unblockEv:
 101              	.LFB27:
   8:src/Ksemaphore.cpp **** 
   9:src/Ksemaphore.cpp **** void Ksemaphore::unblock() {
 102              		.loc 1 9 28 is_stmt 1
 103              		.cfi_startproc
 104              	.LVL9:
 105 0084 130101FE 		addi	sp,sp,-32
 106              		.cfi_def_cfa_offset 32
 107 0088 233C1100 		sd	ra,24(sp)
 108 008c 23388100 		sd	s0,16(sp)
 109 0090 23349100 		sd	s1,8(sp)
 110              		.cfi_offset 1, -8
 111              		.cfi_offset 8, -16
 112              		.cfi_offset 9, -24
 113 0094 13040102 		addi	s0,sp,32
GAS LISTING /tmp/ccuDIygl.s 			page 4


 114              		.cfi_def_cfa 8, 0
 115 0098 93070500 		mv	a5,a0
  10:src/Ksemaphore.cpp ****     TCB *t = blocked.removeFirst();
 116              		.loc 1 10 5
 117              	.LVL10:
 118              	.LBB28:
 119              	.LBB29:
  48:src/../h/list.hpp ****         }
  49:src/../h/list.hpp ****     }
  50:src/../h/list.hpp **** 
  51:src/../h/list.hpp ****     T *removeFirst()
  52:src/../h/list.hpp ****     {
  53:src/../h/list.hpp ****         if (!head) { return 0; }
 120              		.loc 2 53 14 is_stmt 0
 121 009c 03358500 		ld	a0,8(a0)
 122              	.LVL11:
 123              		.loc 2 53 9
 124 00a0 63020504 		beqz	a0,.L8
 125              	.LVL12:
  54:src/../h/list.hpp **** 
  55:src/../h/list.hpp ****         Elem *elem = head;
  56:src/../h/list.hpp ****         head = head->next;
 126              		.loc 2 56 22
 127 00a4 03378500 		ld	a4,8(a0)
 128              		.loc 2 56 9
 129 00a8 23B4E700 		sd	a4,8(a5)
  57:src/../h/list.hpp ****         if (!head) { tail = 0; }
 130              		.loc 2 57 9
 131 00ac 63080702 		beqz	a4,.L10
 132              	.L7:
  58:src/../h/list.hpp **** 
  59:src/../h/list.hpp ****         T *ret = elem->data;
 133              		.loc 2 59 12
 134 00b0 83340500 		ld	s1,0(a0)
 135              	.LVL13:
  60:src/../h/list.hpp ****         delete elem;
 136              		.loc 2 60 9
 137 00b4 97000000 		call	_ZdlPv@plt
 137      E7800000 
 138              	.LVL14:
 139              	.L6:
 140              	.LBE29:
 141              	.LBE28:
  11:src/Ksemaphore.cpp ****     Scheduler::put(t);
 142              		.loc 1 11 5 is_stmt 1
 143              		.loc 1 11 19 is_stmt 0
 144 00bc 13850400 		mv	a0,s1
 145 00c0 97000000 		call	_ZN9Scheduler3putEP3TCB@plt
 145      E7800000 
 146              	.LVL15:
  12:src/Ksemaphore.cpp **** }
 147              		.loc 1 12 1
 148 00c8 83308101 		ld	ra,24(sp)
 149              		.cfi_remember_state
 150              		.cfi_restore 1
 151 00cc 03340101 		ld	s0,16(sp)
 152              		.cfi_restore 8
GAS LISTING /tmp/ccuDIygl.s 			page 5


 153              		.cfi_def_cfa 2, 32
 154 00d0 83348100 		ld	s1,8(sp)
 155              		.cfi_restore 9
 156              	.LVL16:
 157 00d4 13010102 		addi	sp,sp,32
 158              		.cfi_def_cfa_offset 0
 159 00d8 67800000 		jr	ra
 160              	.LVL17:
 161              	.L10:
 162              		.cfi_restore_state
 163              	.LBB31:
 164              	.LBB30:
  57:src/../h/list.hpp **** 
 165              		.loc 2 57 22
 166 00dc 23B80700 		sd	zero,16(a5)
 167 00e0 6FF01FFD 		j	.L7
 168              	.LVL18:
 169              	.L8:
  53:src/../h/list.hpp **** 
 170              		.loc 2 53 29
 171 00e4 93040500 		mv	s1,a0
 172 00e8 6FF05FFD 		j	.L6
 173              	.LBE30:
 174              	.LBE31:
 175              		.cfi_endproc
 176              	.LFE27:
 178              		.align	2
 179              		.globl	_ZN10Ksemaphore4waitEv
 181              	_ZN10Ksemaphore4waitEv:
 182              	.LFB28:
  13:src/Ksemaphore.cpp **** 
  14:src/Ksemaphore.cpp **** int Ksemaphore::wait() {
 183              		.loc 1 14 24 is_stmt 1
 184              		.cfi_startproc
 185              	.LVL19:
  15:src/Ksemaphore.cpp ****     if(--val<0){
 186              		.loc 1 15 5
 187              		.loc 1 15 10 is_stmt 0
 188 00ec 83270500 		lw	a5,0(a0)
 189              		.loc 1 15 8
 190 00f0 9B87F7FF 		addiw	a5,a5,-1
 191              		.loc 1 15 13
 192 00f4 2320F500 		sw	a5,0(a0)
 193              		.loc 1 15 5
 194 00f8 13970702 		slli	a4,a5,32
 195 00fc 63580702 		bgez	a4,.L13
  14:src/Ksemaphore.cpp ****     if(--val<0){
 196              		.loc 1 14 24
 197 0100 130101FF 		addi	sp,sp,-16
 198              		.cfi_def_cfa_offset 16
 199 0104 23341100 		sd	ra,8(sp)
 200 0108 23308100 		sd	s0,0(sp)
 201              		.cfi_offset 1, -8
 202              		.cfi_offset 8, -16
 203 010c 13040101 		addi	s0,sp,16
 204              		.cfi_def_cfa 8, 0
  16:src/Ksemaphore.cpp ****         block();
GAS LISTING /tmp/ccuDIygl.s 			page 6


 205              		.loc 1 16 9 is_stmt 1
 206              		.loc 1 16 14 is_stmt 0
 207 0110 97000000 		call	_ZN10Ksemaphore5blockEv
 207      E7800000 
 208              	.LVL20:
  17:src/Ksemaphore.cpp ****         return 0;
 209              		.loc 1 17 9 is_stmt 1
 210              		.loc 1 17 16 is_stmt 0
 211 0118 13050000 		li	a0,0
  18:src/Ksemaphore.cpp ****     }
  19:src/Ksemaphore.cpp ****     return -1;
  20:src/Ksemaphore.cpp **** }
 212              		.loc 1 20 1
 213 011c 83308100 		ld	ra,8(sp)
 214              		.cfi_restore 1
 215 0120 03340100 		ld	s0,0(sp)
 216              		.cfi_restore 8
 217              		.cfi_def_cfa 2, 16
 218 0124 13010101 		addi	sp,sp,16
 219              		.cfi_def_cfa_offset 0
 220 0128 67800000 		jr	ra
 221              	.LVL21:
 222              	.L13:
  19:src/Ksemaphore.cpp **** }
 223              		.loc 1 19 13
 224 012c 1305F0FF 		li	a0,-1
 225              	.LVL22:
 226              		.loc 1 20 1
 227 0130 67800000 		ret
 228              		.cfi_endproc
 229              	.LFE28:
 231              		.align	2
 232              		.globl	_ZN10Ksemaphore6signalEv
 234              	_ZN10Ksemaphore6signalEv:
 235              	.LFB29:
  21:src/Ksemaphore.cpp **** 
  22:src/Ksemaphore.cpp **** int Ksemaphore::signal() {
 236              		.loc 1 22 26 is_stmt 1
 237              		.cfi_startproc
 238              	.LVL23:
  23:src/Ksemaphore.cpp ****     if(++val<=0) {
 239              		.loc 1 23 5
 240              		.loc 1 23 10 is_stmt 0
 241 0134 83270500 		lw	a5,0(a0)
 242              		.loc 1 23 8
 243 0138 9B871700 		addiw	a5,a5,1
 244 013c 1B870700 		sext.w	a4,a5
 245              		.loc 1 23 13
 246 0140 2320F500 		sw	a5,0(a0)
 247              		.loc 1 23 5
 248 0144 6348E002 		bgtz	a4,.L20
  22:src/Ksemaphore.cpp ****     if(++val<=0) {
 249              		.loc 1 22 26
 250 0148 130101FF 		addi	sp,sp,-16
 251              		.cfi_def_cfa_offset 16
 252 014c 23341100 		sd	ra,8(sp)
 253 0150 23308100 		sd	s0,0(sp)
GAS LISTING /tmp/ccuDIygl.s 			page 7


 254              		.cfi_offset 1, -8
 255              		.cfi_offset 8, -16
 256 0154 13040101 		addi	s0,sp,16
 257              		.cfi_def_cfa 8, 0
  24:src/Ksemaphore.cpp ****         unblock();
 258              		.loc 1 24 9 is_stmt 1
 259              		.loc 1 24 16 is_stmt 0
 260 0158 97000000 		call	_ZN10Ksemaphore7unblockEv
 260      E7800000 
 261              	.LVL24:
  25:src/Ksemaphore.cpp ****         return 0;
 262              		.loc 1 25 9 is_stmt 1
 263              		.loc 1 25 16 is_stmt 0
 264 0160 13050000 		li	a0,0
  26:src/Ksemaphore.cpp ****     }
  27:src/Ksemaphore.cpp ****     return -1;
  28:src/Ksemaphore.cpp **** }
 265              		.loc 1 28 1
 266 0164 83308100 		ld	ra,8(sp)
 267              		.cfi_restore 1
 268 0168 03340100 		ld	s0,0(sp)
 269              		.cfi_restore 8
 270              		.cfi_def_cfa 2, 16
 271 016c 13010101 		addi	sp,sp,16
 272              		.cfi_def_cfa_offset 0
 273 0170 67800000 		jr	ra
 274              	.LVL25:
 275              	.L20:
  27:src/Ksemaphore.cpp **** }
 276              		.loc 1 27 13
 277 0174 1305F0FF 		li	a0,-1
 278              	.LVL26:
 279              		.loc 1 28 1
 280 0178 67800000 		ret
 281              		.cfi_endproc
 282              	.LFE29:
 284              		.align	2
 285              		.globl	_ZN10Ksemaphore15createSemaphoreEj
 287              	_ZN10Ksemaphore15createSemaphoreEj:
 288              	.LFB30:
  29:src/Ksemaphore.cpp **** 
  30:src/Ksemaphore.cpp **** Ksemaphore *Ksemaphore::createSemaphore(unsigned int init) {
 289              		.loc 1 30 60 is_stmt 1
 290              		.cfi_startproc
 291              	.LVL27:
 292 017c 130101FE 		addi	sp,sp,-32
 293              		.cfi_def_cfa_offset 32
 294 0180 233C1100 		sd	ra,24(sp)
 295 0184 23388100 		sd	s0,16(sp)
 296 0188 23349100 		sd	s1,8(sp)
 297              		.cfi_offset 1, -8
 298              		.cfi_offset 8, -16
 299              		.cfi_offset 9, -24
 300 018c 13040102 		addi	s0,sp,32
 301              		.cfi_def_cfa 8, 0
 302 0190 93040500 		mv	s1,a0
  31:src/Ksemaphore.cpp ****     return new Ksemaphore(init);
GAS LISTING /tmp/ccuDIygl.s 			page 8


 303              		.loc 1 31 5
 304              		.loc 1 31 31 is_stmt 0
 305 0194 13058001 		li	a0,24
 306              	.LVL28:
 307 0198 97000000 		call	_Znwm@plt
 307      E7800000 
 308              	.LVL29:
 309              	.LBB32:
 310              	.LBB33:
 311              		.file 3 "src/../h/Ksemaphore.hpp"
   1:src/../h/Ksemaphore.hpp **** //
   2:src/../h/Ksemaphore.hpp **** // Created by os on 9/14/22.
   3:src/../h/Ksemaphore.hpp **** //
   4:src/../h/Ksemaphore.hpp **** 
   5:src/../h/Ksemaphore.hpp **** #ifndef PROJECT_BASE_KSEMAPHORE_HPP
   6:src/../h/Ksemaphore.hpp **** #define PROJECT_BASE_KSEMAPHORE_HPP
   7:src/../h/Ksemaphore.hpp **** #include "scheduler.hpp"
   8:src/../h/Ksemaphore.hpp **** #include "TCB.hpp"
   9:src/../h/Ksemaphore.hpp **** #include "../lib/hw.h"
  10:src/../h/Ksemaphore.hpp **** 
  11:src/../h/Ksemaphore.hpp **** typedef Ksemaphore* sem_t;
  12:src/../h/Ksemaphore.hpp **** 
  13:src/../h/Ksemaphore.hpp **** class Ksemaphore{
  14:src/../h/Ksemaphore.hpp **** public:
  15:src/../h/Ksemaphore.hpp ****     Ksemaphore(unsigned init =1):val(init){}
 312              		.loc 3 15 42
 313 01a0 23209500 		sw	s1,0(a0)
 314              	.LVL30:
 315              	.LBB34:
 316              	.LBB35:
  25:src/../h/list.hpp **** 
 317              		.loc 2 25 29
 318 01a4 23340500 		sd	zero,8(a0)
 319 01a8 23380500 		sd	zero,16(a0)
 320              	.LVL31:
 321              	.LBE35:
 322              	.LBE34:
 323              	.LBE33:
 324              	.LBE32:
  32:src/Ksemaphore.cpp **** }
 325              		.loc 1 32 1
 326 01ac 83308101 		ld	ra,24(sp)
 327              		.cfi_restore 1
 328 01b0 03340101 		ld	s0,16(sp)
 329              		.cfi_restore 8
 330              		.cfi_def_cfa 2, 32
 331 01b4 83348100 		ld	s1,8(sp)
 332              		.cfi_restore 9
 333 01b8 13010102 		addi	sp,sp,32
 334              		.cfi_def_cfa_offset 0
 335 01bc 67800000 		jr	ra
 336              		.cfi_endproc
 337              	.LFE30:
 339              	.Letext0:
 340              		.file 4 "src/../h/../lib/hw.h"
 341              		.file 5 "src/../h/scheduler.hpp"
 342              		.file 6 "src/../h/TCB.hpp"
GAS LISTING /tmp/ccuDIygl.s 			page 9


GAS LISTING /tmp/ccuDIygl.s 			page 10


DEFINED SYMBOLS
                            *ABS*:0000000000000000 Ksemaphore.cpp
     /tmp/ccuDIygl.s:9      .text:0000000000000000 _ZN10Ksemaphore5blockEv
     /tmp/ccuDIygl.s:13     .text:0000000000000000 .L0 
     /tmp/ccuDIygl.s:15     .text:0000000000000000 .L0 
     /tmp/ccuDIygl.s:16     .text:0000000000000004 .L0 
     /tmp/ccuDIygl.s:21     .text:0000000000000014 .L0 
     /tmp/ccuDIygl.s:22     .text:0000000000000014 .L0 
     /tmp/ccuDIygl.s:23     .text:0000000000000014 .L0 
     /tmp/ccuDIygl.s:24     .text:0000000000000014 .L0 
     /tmp/ccuDIygl.s:26     .text:0000000000000018 .L0 
     /tmp/ccuDIygl.s:29     .text:000000000000001c .L0 
     /tmp/ccuDIygl.s:30     .text:000000000000001c .L0 
     /tmp/ccuDIygl.s:37     .text:0000000000000028 .L0 
     /tmp/ccuDIygl.s:44     .text:0000000000000034 .L0 
     /tmp/ccuDIygl.s:50     .text:000000000000003c .L0 
     /tmp/ccuDIygl.s:52     .text:0000000000000040 .L0 
     /tmp/ccuDIygl.s:54     .text:0000000000000044 .L0 
     /tmp/ccuDIygl.s:56     .text:0000000000000048 .L0 
     /tmp/ccuDIygl.s:62     .text:000000000000004c .L0 
     /tmp/ccuDIygl.s:63     .text:000000000000004c .L0 
     /tmp/ccuDIygl.s:66     .text:0000000000000054 .L0 
     /tmp/ccuDIygl.s:69     .text:0000000000000060 .L0 
     /tmp/ccuDIygl.s:70     .text:0000000000000064 .L0 
     /tmp/ccuDIygl.s:71     .text:0000000000000064 .L0 
     /tmp/ccuDIygl.s:73     .text:0000000000000068 .L0 
     /tmp/ccuDIygl.s:74     .text:0000000000000068 .L0 
     /tmp/ccuDIygl.s:76     .text:000000000000006c .L0 
     /tmp/ccuDIygl.s:79     .text:0000000000000070 .L0 
     /tmp/ccuDIygl.s:81     .text:0000000000000074 .L0 
     /tmp/ccuDIygl.s:85     .text:0000000000000078 .L0 
     /tmp/ccuDIygl.s:89     .text:0000000000000078 .L0 
     /tmp/ccuDIygl.s:94     .text:0000000000000084 .L0 
     /tmp/ccuDIygl.s:100    .text:0000000000000084 _ZN10Ksemaphore7unblockEv
     /tmp/ccuDIygl.s:103    .text:0000000000000084 .L0 
     /tmp/ccuDIygl.s:105    .text:0000000000000084 .L0 
     /tmp/ccuDIygl.s:106    .text:0000000000000088 .L0 
     /tmp/ccuDIygl.s:110    .text:0000000000000094 .L0 
     /tmp/ccuDIygl.s:111    .text:0000000000000094 .L0 
     /tmp/ccuDIygl.s:112    .text:0000000000000094 .L0 
     /tmp/ccuDIygl.s:114    .text:0000000000000098 .L0 
     /tmp/ccuDIygl.s:120    .text:000000000000009c .L0 
     /tmp/ccuDIygl.s:121    .text:000000000000009c .L0 
     /tmp/ccuDIygl.s:124    .text:00000000000000a0 .L0 
     /tmp/ccuDIygl.s:127    .text:00000000000000a4 .L0 
     /tmp/ccuDIygl.s:129    .text:00000000000000a8 .L0 
     /tmp/ccuDIygl.s:131    .text:00000000000000ac .L0 
     /tmp/ccuDIygl.s:134    .text:00000000000000b0 .L0 
     /tmp/ccuDIygl.s:137    .text:00000000000000b4 .L0 
     /tmp/ccuDIygl.s:143    .text:00000000000000bc .L0 
     /tmp/ccuDIygl.s:144    .text:00000000000000bc .L0 
     /tmp/ccuDIygl.s:148    .text:00000000000000c8 .L0 
     /tmp/ccuDIygl.s:149    .text:00000000000000cc .L0 
     /tmp/ccuDIygl.s:150    .text:00000000000000cc .L0 
     /tmp/ccuDIygl.s:152    .text:00000000000000d0 .L0 
     /tmp/ccuDIygl.s:153    .text:00000000000000d0 .L0 
     /tmp/ccuDIygl.s:155    .text:00000000000000d4 .L0 
GAS LISTING /tmp/ccuDIygl.s 			page 11


     /tmp/ccuDIygl.s:158    .text:00000000000000d8 .L0 
     /tmp/ccuDIygl.s:162    .text:00000000000000dc .L0 
     /tmp/ccuDIygl.s:166    .text:00000000000000dc .L0 
     /tmp/ccuDIygl.s:171    .text:00000000000000e4 .L0 
     /tmp/ccuDIygl.s:175    .text:00000000000000ec .L0 
     /tmp/ccuDIygl.s:181    .text:00000000000000ec _ZN10Ksemaphore4waitEv
     /tmp/ccuDIygl.s:184    .text:00000000000000ec .L0 
     /tmp/ccuDIygl.s:186    .text:00000000000000ec .L0 
     /tmp/ccuDIygl.s:187    .text:00000000000000ec .L0 
     /tmp/ccuDIygl.s:188    .text:00000000000000ec .L0 
     /tmp/ccuDIygl.s:190    .text:00000000000000f0 .L0 
     /tmp/ccuDIygl.s:192    .text:00000000000000f4 .L0 
     /tmp/ccuDIygl.s:194    .text:00000000000000f8 .L0 
     /tmp/ccuDIygl.s:197    .text:0000000000000100 .L0 
     /tmp/ccuDIygl.s:198    .text:0000000000000104 .L0 
     /tmp/ccuDIygl.s:201    .text:000000000000010c .L0 
     /tmp/ccuDIygl.s:202    .text:000000000000010c .L0 
     /tmp/ccuDIygl.s:204    .text:0000000000000110 .L0 
     /tmp/ccuDIygl.s:206    .text:0000000000000110 .L0 
     /tmp/ccuDIygl.s:207    .text:0000000000000110 .L0 
     /tmp/ccuDIygl.s:210    .text:0000000000000118 .L0 
     /tmp/ccuDIygl.s:211    .text:0000000000000118 .L0 
     /tmp/ccuDIygl.s:213    .text:000000000000011c .L0 
     /tmp/ccuDIygl.s:214    .text:0000000000000120 .L0 
     /tmp/ccuDIygl.s:216    .text:0000000000000124 .L0 
     /tmp/ccuDIygl.s:217    .text:0000000000000124 .L0 
     /tmp/ccuDIygl.s:219    .text:0000000000000128 .L0 
     /tmp/ccuDIygl.s:224    .text:000000000000012c .L0 
     /tmp/ccuDIygl.s:227    .text:0000000000000130 .L0 
     /tmp/ccuDIygl.s:228    .text:0000000000000134 .L0 
     /tmp/ccuDIygl.s:234    .text:0000000000000134 _ZN10Ksemaphore6signalEv
     /tmp/ccuDIygl.s:237    .text:0000000000000134 .L0 
     /tmp/ccuDIygl.s:239    .text:0000000000000134 .L0 
     /tmp/ccuDIygl.s:240    .text:0000000000000134 .L0 
     /tmp/ccuDIygl.s:241    .text:0000000000000134 .L0 
     /tmp/ccuDIygl.s:243    .text:0000000000000138 .L0 
     /tmp/ccuDIygl.s:246    .text:0000000000000140 .L0 
     /tmp/ccuDIygl.s:248    .text:0000000000000144 .L0 
     /tmp/ccuDIygl.s:250    .text:0000000000000148 .L0 
     /tmp/ccuDIygl.s:251    .text:000000000000014c .L0 
     /tmp/ccuDIygl.s:254    .text:0000000000000154 .L0 
     /tmp/ccuDIygl.s:255    .text:0000000000000154 .L0 
     /tmp/ccuDIygl.s:257    .text:0000000000000158 .L0 
     /tmp/ccuDIygl.s:259    .text:0000000000000158 .L0 
     /tmp/ccuDIygl.s:260    .text:0000000000000158 .L0 
     /tmp/ccuDIygl.s:263    .text:0000000000000160 .L0 
     /tmp/ccuDIygl.s:264    .text:0000000000000160 .L0 
     /tmp/ccuDIygl.s:266    .text:0000000000000164 .L0 
     /tmp/ccuDIygl.s:267    .text:0000000000000168 .L0 
     /tmp/ccuDIygl.s:269    .text:000000000000016c .L0 
     /tmp/ccuDIygl.s:270    .text:000000000000016c .L0 
     /tmp/ccuDIygl.s:272    .text:0000000000000170 .L0 
     /tmp/ccuDIygl.s:277    .text:0000000000000174 .L0 
     /tmp/ccuDIygl.s:280    .text:0000000000000178 .L0 
     /tmp/ccuDIygl.s:281    .text:000000000000017c .L0 
     /tmp/ccuDIygl.s:287    .text:000000000000017c _ZN10Ksemaphore15createSemaphoreEj
     /tmp/ccuDIygl.s:290    .text:000000000000017c .L0 
GAS LISTING /tmp/ccuDIygl.s 			page 12


     /tmp/ccuDIygl.s:292    .text:000000000000017c .L0 
     /tmp/ccuDIygl.s:293    .text:0000000000000180 .L0 
     /tmp/ccuDIygl.s:297    .text:000000000000018c .L0 
     /tmp/ccuDIygl.s:298    .text:000000000000018c .L0 
     /tmp/ccuDIygl.s:299    .text:000000000000018c .L0 
     /tmp/ccuDIygl.s:301    .text:0000000000000190 .L0 
     /tmp/ccuDIygl.s:304    .text:0000000000000194 .L0 
     /tmp/ccuDIygl.s:305    .text:0000000000000194 .L0 
     /tmp/ccuDIygl.s:313    .text:00000000000001a0 .L0 
     /tmp/ccuDIygl.s:318    .text:00000000000001a4 .L0 
     /tmp/ccuDIygl.s:326    .text:00000000000001ac .L0 
     /tmp/ccuDIygl.s:327    .text:00000000000001b0 .L0 
     /tmp/ccuDIygl.s:329    .text:00000000000001b4 .L0 
     /tmp/ccuDIygl.s:330    .text:00000000000001b4 .L0 
     /tmp/ccuDIygl.s:332    .text:00000000000001b8 .L0 
     /tmp/ccuDIygl.s:334    .text:00000000000001bc .L0 
     /tmp/ccuDIygl.s:336    .text:00000000000001c0 .L0 
     /tmp/ccuDIygl.s:343    .text:00000000000001c0 .L0 
     /tmp/ccuDIygl.s:30     .text:000000000000001c .L0 
     /tmp/ccuDIygl.s:66     .text:0000000000000054 .L0 
     /tmp/ccuDIygl.s:84     .text:0000000000000078 .L2
     /tmp/ccuDIygl.s:57     .text:000000000000004c .L3
     /tmp/ccuDIygl.s:169    .text:00000000000000e4 .L8
     /tmp/ccuDIygl.s:161    .text:00000000000000dc .L10
     /tmp/ccuDIygl.s:132    .text:00000000000000b0 .L7
     /tmp/ccuDIygl.s:139    .text:00000000000000bc .L6
     /tmp/ccuDIygl.s:222    .text:000000000000012c .L13
     /tmp/ccuDIygl.s:275    .text:0000000000000174 .L20
     /tmp/ccuDIygl.s:1494   .debug_abbrev:0000000000000000 .Ldebug_abbrev0
     /tmp/ccuDIygl.s:2953   .debug_str:00000000000005e5 .LASF103
     /tmp/ccuDIygl.s:2761   .debug_str:0000000000000026 .LASF104
     /tmp/ccuDIygl.s:2819   .debug_str:00000000000001e6 .LASF105
     /tmp/ccuDIygl.s:5      .text:0000000000000000 .Ltext0
     /tmp/ccuDIygl.s:339    .text:00000000000001c0 .Letext0
     /tmp/ccuDIygl.s:2755   .debug_line:0000000000000000 .Ldebug_line0
     /tmp/ccuDIygl.s:2897   .debug_str:0000000000000462 .LASF0
     /tmp/ccuDIygl.s:2907   .debug_str:00000000000004ab .LASF1
     /tmp/ccuDIygl.s:2873   .debug_str:000000000000039b .LASF2
     /tmp/ccuDIygl.s:2843   .debug_str:00000000000002e3 .LASF4
     /tmp/ccuDIygl.s:2943   .debug_str:0000000000000596 .LASF3
     /tmp/ccuDIygl.s:2775   .debug_str:00000000000000a2 .LASF5
     /tmp/ccuDIygl.s:2909   .debug_str:00000000000004be .LASF6
     /tmp/ccuDIygl.s:2895   .debug_str:000000000000044f .LASF7
     /tmp/ccuDIygl.s:2961   .debug_str:00000000000006c9 .LASF8
     /tmp/ccuDIygl.s:2827   .debug_str:0000000000000233 .LASF9
     /tmp/ccuDIygl.s:2921   .debug_str:0000000000000523 .LASF10
     /tmp/ccuDIygl.s:2957   .debug_str:00000000000006b5 .LASF11
     /tmp/ccuDIygl.s:2779   .debug_str:00000000000000b1 .LASF12
     /tmp/ccuDIygl.s:2763   .debug_str:0000000000000039 .LASF13
     /tmp/ccuDIygl.s:2785   .debug_str:00000000000000e3 .LASF14
     /tmp/ccuDIygl.s:2935   .debug_str:000000000000056f .LASF15
     /tmp/ccuDIygl.s:2793   .debug_str:000000000000012b .LASF16
     /tmp/ccuDIygl.s:2919   .debug_str:0000000000000519 .LASF17
     /tmp/ccuDIygl.s:2821   .debug_str:0000000000000204 .LASF75
     /tmp/ccuDIygl.s:2901   .debug_str:0000000000000478 .LASF19
     /tmp/ccuDIygl.s:2869   .debug_str:0000000000000382 .LASF106
     /tmp/ccuDIygl.s:2837   .debug_str:00000000000002a2 .LASF107
GAS LISTING /tmp/ccuDIygl.s 			page 13


     /tmp/ccuDIygl.s:2783   .debug_str:00000000000000cb .LASF108
     /tmp/ccuDIygl.s:2955   .debug_str:00000000000006a9 .LASF24
     /tmp/ccuDIygl.s:2911   .debug_str:00000000000004d1 .LASF26
     /tmp/ccuDIygl.s:2865   .debug_str:000000000000036b .LASF18
     /tmp/ccuDIygl.s:2959   .debug_str:00000000000006c4 .LASF41
     /tmp/ccuDIygl.s:2931   .debug_str:0000000000000553 .LASF20
     /tmp/ccuDIygl.s:2975   .debug_str:0000000000000749 .LASF21
     /tmp/ccuDIygl.s:2887   .debug_str:0000000000000409 .LASF65
     /tmp/ccuDIygl.s:2799   .debug_str:0000000000000152 .LASF22
     /tmp/ccuDIygl.s:2881   .debug_str:00000000000003db .LASF23
     /tmp/ccuDIygl.s:2841   .debug_str:00000000000002de .LASF25
     /tmp/ccuDIygl.s:2949   .debug_str:00000000000005c9 .LASF27
     /tmp/ccuDIygl.s:2933   .debug_str:0000000000000558 .LASF33
     /tmp/ccuDIygl.s:2889   .debug_str:0000000000000428 .LASF109
     /tmp/ccuDIygl.s:2831   .debug_str:000000000000024f .LASF110
     /tmp/ccuDIygl.s:2951   .debug_str:00000000000005dc .LASF28
     /tmp/ccuDIygl.s:2805   .debug_str:000000000000018a .LASF29
     /tmp/ccuDIygl.s:2825   .debug_str:000000000000022b .LASF30
     /tmp/ccuDIygl.s:2803   .debug_str:000000000000016e .LASF31
     /tmp/ccuDIygl.s:2877   .debug_str:00000000000003b5 .LASF32
     /tmp/ccuDIygl.s:2759   .debug_str:0000000000000008 .LASF34
     /tmp/ccuDIygl.s:2781   .debug_str:00000000000000c1 .LASF35
     /tmp/ccuDIygl.s:2857   .debug_str:000000000000032a .LASF36
     /tmp/ccuDIygl.s:2797   .debug_str:0000000000000147 .LASF37
     /tmp/ccuDIygl.s:2769   .debug_str:0000000000000058 .LASF38
     /tmp/ccuDIygl.s:2861   .debug_str:0000000000000356 .LASF39
     /tmp/ccuDIygl.s:2969   .debug_str:0000000000000707 .LASF40
     /tmp/ccuDIygl.s:2765   .debug_str:0000000000000049 .LASF42
     /tmp/ccuDIygl.s:2863   .debug_str:000000000000035f .LASF57
     /tmp/ccuDIygl.s:2807   .debug_str:00000000000001a7 .LASF43
     /tmp/ccuDIygl.s:2927   .debug_str:0000000000000542 .LASF44
     /tmp/ccuDIygl.s:2913   .debug_str:00000000000004ee .LASF45
     /tmp/ccuDIygl.s:2791   .debug_str:0000000000000114 .LASF46
     /tmp/ccuDIygl.s:2875   .debug_str:00000000000003a9 .LASF47
     /tmp/ccuDIygl.s:2977   .debug_str:000000000000074e .LASF48
     /tmp/ccuDIygl.s:2867   .debug_str:0000000000000375 .LASF49
     /tmp/ccuDIygl.s:2771   .debug_str:0000000000000075 .LASF50
     /tmp/ccuDIygl.s:2929   .debug_str:000000000000054e .LASF111
     /tmp/ccuDIygl.s:2891   .debug_str:0000000000000432 .LASF51
     /tmp/ccuDIygl.s:2851   .debug_str:0000000000000303 .LASF52
     /tmp/ccuDIygl.s:2767   .debug_str:0000000000000051 .LASF53
     /tmp/ccuDIygl.s:2859   .debug_str:0000000000000345 .LASF54
     /tmp/ccuDIygl.s:2855   .debug_str:000000000000031d .LASF55
     /tmp/ccuDIygl.s:2905   .debug_str:000000000000048b .LASF56
     /tmp/ccuDIygl.s:2937   .debug_str:0000000000000585 .LASF71
     /tmp/ccuDIygl.s:2883   .debug_str:00000000000003e0 .LASF73
     /tmp/ccuDIygl.s:2811   .debug_str:00000000000001b2 .LASF112
     /tmp/ccuDIygl.s:2893   .debug_str:000000000000043a .LASF58
     /tmp/ccuDIygl.s:2849   .debug_str:00000000000002fe .LASF59
     /tmp/ccuDIygl.s:2787   .debug_str:00000000000000ef .LASF60
     /tmp/ccuDIygl.s:2853   .debug_str:0000000000000315 .LASF61
     /tmp/ccuDIygl.s:2903   .debug_str:0000000000000481 .LASF62
     /tmp/ccuDIygl.s:2847   .debug_str:00000000000002f5 .LASF63
     /tmp/ccuDIygl.s:2829   .debug_str:0000000000000241 .LASF67
     /tmp/ccuDIygl.s:2833   .debug_str:0000000000000266 .LASF69
     /tmp/ccuDIygl.s:2965   .debug_str:00000000000006ec .LASF64
     /tmp/ccuDIygl.s:2839   .debug_str:00000000000002b6 .LASF66
GAS LISTING /tmp/ccuDIygl.s 			page 14


     /tmp/ccuDIygl.s:2899   .debug_str:000000000000046f .LASF68
     /tmp/ccuDIygl.s:2815   .debug_str:00000000000001ce .LASF70
     /tmp/ccuDIygl.s:2923   .debug_str:0000000000000532 .LASF72
     /tmp/ccuDIygl.s:2823   .debug_str:0000000000000215 .LASF74
     /tmp/ccuDIygl.s:2945   .debug_str:00000000000005a8 .LASF76
     /tmp/ccuDIygl.s:2817   .debug_str:00000000000001e1 .LASF77
     /tmp/ccuDIygl.s:2845   .debug_str:00000000000002ea .LASF78
     /tmp/ccuDIygl.s:2773   .debug_str:000000000000008e .LASF79
     /tmp/ccuDIygl.s:2979   .debug_str:0000000000000765 .LASF80
     /tmp/ccuDIygl.s:2801   .debug_str:0000000000000157 .LASF81
     /tmp/ccuDIygl.s:2917   .debug_str:0000000000000512 .LASF82
     /tmp/ccuDIygl.s:2885   .debug_str:00000000000003f0 .LASF83
     /tmp/ccuDIygl.s:2795   .debug_str:0000000000000141 .LASF84
     /tmp/ccuDIygl.s:2915   .debug_str:00000000000004f9 .LASF85
     /tmp/ccuDIygl.s:2971   .debug_str:0000000000000721 .LASF86
     /tmp/ccuDIygl.s:2835   .debug_str:000000000000027f .LASF87
     /tmp/ccuDIygl.s:2809   .debug_str:00000000000001ac .LASF88
     /tmp/ccuDIygl.s:2973   .debug_str:0000000000000731 .LASF89
     /tmp/ccuDIygl.s:2777   .debug_str:00000000000000a9 .LASF90
     /tmp/ccuDIygl.s:2879   .debug_str:00000000000003c1 .LASF91
     /tmp/ccuDIygl.s:2757   .debug_str:0000000000000000 .LASF92
     /tmp/ccuDIygl.s:2925   .debug_str:000000000000053d .LASF93
     /tmp/ccuDIygl.s:2789   .debug_str:00000000000000f5 .LASF95
     /tmp/ccuDIygl.s:2939   .debug_str:000000000000058b .LASF94
     /tmp/ccuDIygl.s:2963   .debug_str:00000000000006d9 .LASF96
     /tmp/ccuDIygl.s:288    .text:000000000000017c .LFB30
     /tmp/ccuDIygl.s:337    .text:00000000000001c0 .LFE30
     /tmp/ccuDIygl.s:2981   .debug_str:000000000000076a .LASF97
     /tmp/ccuDIygl.s:2477   .debug_loc:0000000000000000 .LLST14
     /tmp/ccuDIygl.s:309    .text:00000000000001a0 .LBB32
     /tmp/ccuDIygl.s:324    .text:00000000000001ac .LBE32
     /tmp/ccuDIygl.s:2491   .debug_loc:0000000000000039 .LLST15
     /tmp/ccuDIygl.s:2498   .debug_loc:000000000000005c .LLST16
     /tmp/ccuDIygl.s:315    .text:00000000000001a4 .LBB34
     /tmp/ccuDIygl.s:322    .text:00000000000001ac .LBE34
     /tmp/ccuDIygl.s:2505   .debug_loc:000000000000007f .LLST17
     /tmp/ccuDIygl.s:308    .text:00000000000001a0 .LVL29
     /tmp/ccuDIygl.s:235    .text:0000000000000134 .LFB29
     /tmp/ccuDIygl.s:282    .text:000000000000017c .LFE29
     /tmp/ccuDIygl.s:2514   .debug_loc:00000000000000a4 .LLST13
     /tmp/ccuDIygl.s:261    .text:0000000000000160 .LVL24
     /tmp/ccuDIygl.s:182    .text:00000000000000ec .LFB28
     /tmp/ccuDIygl.s:229    .text:0000000000000134 .LFE28
     /tmp/ccuDIygl.s:2539   .debug_loc:0000000000000106 .LLST12
     /tmp/ccuDIygl.s:208    .text:0000000000000118 .LVL20
     /tmp/ccuDIygl.s:101    .text:0000000000000084 .LFB27
     /tmp/ccuDIygl.s:176    .text:00000000000000ec .LFE27
     /tmp/ccuDIygl.s:2564   .debug_loc:0000000000000168 .LLST7
     /tmp/ccuDIygl.s:2586   .debug_loc:00000000000001c7 .LLST8
     /tmp/ccuDIygl.s:118    .text:000000000000009c .LBB28
     /tmp/ccuDIygl.s:2741   .debug_ranges:0000000000000000 .Ldebug_ranges0
     /tmp/ccuDIygl.s:2593   .debug_loc:00000000000001ea .LLST9
     /tmp/ccuDIygl.s:2623   .debug_loc:0000000000000251 .LLST10
     /tmp/ccuDIygl.s:2634   .debug_loc:0000000000000287 .LLST11
     /tmp/ccuDIygl.s:138    .text:00000000000000bc .LVL14
     /tmp/ccuDIygl.s:146    .text:00000000000000c8 .LVL15
     /tmp/ccuDIygl.s:10     .text:0000000000000000 .LFB26
GAS LISTING /tmp/ccuDIygl.s 			page 15


     /tmp/ccuDIygl.s:95     .text:0000000000000084 .LFE26
     /tmp/ccuDIygl.s:2641   .debug_loc:00000000000002aa .LLST0
     /tmp/ccuDIygl.s:33     .text:0000000000000028 .LBB22
     /tmp/ccuDIygl.s:2663   .debug_loc:0000000000000309 .LLST1
     /tmp/ccuDIygl.s:2674   .debug_loc:000000000000033f .LLST2
     /tmp/ccuDIygl.s:2695   .debug_loc:000000000000038e .LLST3
     /tmp/ccuDIygl.s:41     .text:0000000000000034 .LBB24
     /tmp/ccuDIygl.s:48     .text:000000000000003c .LBE24
     /tmp/ccuDIygl.s:2706   .debug_loc:00000000000003c4 .LLST4
     /tmp/ccuDIygl.s:2714   .debug_loc:00000000000003e8 .LLST5
     /tmp/ccuDIygl.s:2721   .debug_loc:000000000000040b .LLST6
     /tmp/ccuDIygl.s:40     .text:0000000000000034 .LVL3
     /tmp/ccuDIygl.s:64     .text:0000000000000054 .LVL6
     /tmp/ccuDIygl.s:2813   .debug_str:00000000000001ba .LASF98
     /tmp/ccuDIygl.s:2941   .debug_str:0000000000000590 .LASF99
     /tmp/ccuDIygl.s:2967   .debug_str:00000000000006fa .LASF101
     /tmp/ccuDIygl.s:2871   .debug_str:0000000000000394 .LASF100
     /tmp/ccuDIygl.s:2947   .debug_str:00000000000005b9 .LASF102
     /tmp/ccuDIygl.s:291    .text:000000000000017c .LVL27
     /tmp/ccuDIygl.s:306    .text:0000000000000198 .LVL28
     /tmp/ccuDIygl.s:320    .text:00000000000001ac .LVL31
     /tmp/ccuDIygl.s:314    .text:00000000000001a4 .LVL30
     /tmp/ccuDIygl.s:238    .text:0000000000000134 .LVL23
     /tmp/ccuDIygl.s:274    .text:0000000000000174 .LVL25
     /tmp/ccuDIygl.s:278    .text:0000000000000178 .LVL26
     /tmp/ccuDIygl.s:185    .text:00000000000000ec .LVL19
     /tmp/ccuDIygl.s:221    .text:000000000000012c .LVL21
     /tmp/ccuDIygl.s:225    .text:0000000000000130 .LVL22
     /tmp/ccuDIygl.s:104    .text:0000000000000084 .LVL9
     /tmp/ccuDIygl.s:122    .text:00000000000000a0 .LVL11
     /tmp/ccuDIygl.s:160    .text:00000000000000dc .LVL17
     /tmp/ccuDIygl.s:156    .text:00000000000000d4 .LVL16
     /tmp/ccuDIygl.s:117    .text:000000000000009c .LVL10
     /tmp/ccuDIygl.s:125    .text:00000000000000a4 .LVL12
     /tmp/ccuDIygl.s:168    .text:00000000000000e4 .LVL18
     /tmp/ccuDIygl.s:135    .text:00000000000000b4 .LVL13
     /tmp/ccuDIygl.s:14     .text:0000000000000000 .LVL0
     /tmp/ccuDIygl.s:38     .text:000000000000002c .LVL2
     /tmp/ccuDIygl.s:77     .text:000000000000006c .LVL7
     /tmp/ccuDIygl.s:83     .text:0000000000000078 .LVL8
     /tmp/ccuDIygl.s:32     .text:0000000000000028 .LVL1
     /tmp/ccuDIygl.s:58     .text:000000000000004c .LVL5
     /tmp/ccuDIygl.s:46     .text:000000000000003c .LVL4
     /tmp/ccuDIygl.s:344    .debug_info:0000000000000000 .Ldebug_info0
     /tmp/ccuDIygl.s:60     .text:000000000000004c .LBE22
     /tmp/ccuDIygl.s:86     .text:0000000000000078 .LBB27
     /tmp/ccuDIygl.s:93     .text:0000000000000084 .LBE27
     /tmp/ccuDIygl.s:141    .text:00000000000000bc .LBE28
     /tmp/ccuDIygl.s:163    .text:00000000000000dc .LBB31
     /tmp/ccuDIygl.s:174    .text:00000000000000ec .LBE31

UNDEFINED SYMBOLS
_ZN3TCB7runningE
_Znwm
_ZN9Scheduler3getEv
_ZdlPv
_ZN9Scheduler3putEP3TCB
GAS LISTING /tmp/ccuDIygl.s 			page 16


