GAS LISTING /tmp/ccN0J4sw.s 			page 1


   1              		.file	"Ksemaphore.cpp"
   2              		.option pic
   3              		.option norelax
   4              		.text
   5              	.Ltext0:
   6              		.align	2
   7              		.globl	_ZN10Ksemaphore5blockEv
   9              	_ZN10Ksemaphore5blockEv:
  10              	.LFB30:
  11              		.file 1 "src/Ksemaphore.cpp"
   1:src/Ksemaphore.cpp **** #include "../h/Ksemaphore.hpp"
   2:src/Ksemaphore.cpp **** 
   3:src/Ksemaphore.cpp **** void Ksemaphore::block() {
  12              		.loc 1 3 26
  13              		.cfi_startproc
  14              	.LVL0:
  15 0000 130101FE 		addi	sp,sp,-32
  16              		.cfi_def_cfa_offset 32
  17 0004 233C1100 		sd	ra,24(sp)
  18 0008 23388100 		sd	s0,16(sp)
  19 000c 23349100 		sd	s1,8(sp)
  20 0010 23302101 		sd	s2,0(sp)
  21              		.cfi_offset 1, -8
  22              		.cfi_offset 8, -16
  23              		.cfi_offset 9, -24
  24              		.cfi_offset 18, -32
  25 0014 13040102 		addi	s0,sp,32
  26              		.cfi_def_cfa 8, 0
  27 0018 93040500 		mv	s1,a0
   4:src/Ksemaphore.cpp ****     TCB* tr=TCB::running;
  28              		.loc 1 4 5
  29              		.loc 1 4 10 is_stmt 0
  30 001c 97070000 		la	a5,_ZN3TCB7runningE
  30      83B70700 
  31 0024 03B90700 		ld	s2,0(a5)
  32              	.LVL1:
   5:src/Ksemaphore.cpp ****     blocked.addLast(tr);
  33              		.loc 1 5 5 is_stmt 1
  34              	.LBB26:
  35              	.LBB27:
  36              		.file 2 "src/../h/list.hpp"
   1:src/../h/list.hpp **** //
   2:src/../h/list.hpp **** // Created by os on 8/27/22.
   3:src/../h/list.hpp **** //
   4:src/../h/list.hpp **** 
   5:src/../h/list.hpp **** #ifndef PROJECT_BASE_LIST_HPP
   6:src/../h/list.hpp **** #define PROJECT_BASE_LIST_HPP
   7:src/../h/list.hpp **** 
   8:src/../h/list.hpp **** #include "../lib/mem.h"
   9:src/../h/list.hpp **** #include "MemoryAllocator.hpp"
  10:src/../h/list.hpp **** 
  11:src/../h/list.hpp **** template<typename T>
  12:src/../h/list.hpp **** class List
  13:src/../h/list.hpp **** {
  14:src/../h/list.hpp **** private:
  15:src/../h/list.hpp ****     struct Elem
  16:src/../h/list.hpp ****     {
GAS LISTING /tmp/ccN0J4sw.s 			page 2


  17:src/../h/list.hpp ****         T *data;
  18:src/../h/list.hpp ****         Elem *next;
  19:src/../h/list.hpp **** 
  20:src/../h/list.hpp ****         Elem(T *data, Elem *next) : data(data), next(next) {}
  21:src/../h/list.hpp ****     };
  22:src/../h/list.hpp **** 
  23:src/../h/list.hpp ****     Elem *head, *tail;
  24:src/../h/list.hpp **** 
  25:src/../h/list.hpp **** public:
  26:src/../h/list.hpp ****     List() : head(0), tail(0) {}
  27:src/../h/list.hpp **** 
  28:src/../h/list.hpp ****     List(const List<T> &) = delete;
  29:src/../h/list.hpp **** 
  30:src/../h/list.hpp ****     List<T> &operator=(const List<T> &) = delete;
  31:src/../h/list.hpp ****     static void* operator new (size_t n);
  32:src/../h/list.hpp ****     static void operator delete (void* p);
  33:src/../h/list.hpp **** 
  34:src/../h/list.hpp ****     void addFirst(T *data)
  35:src/../h/list.hpp ****     {
  36:src/../h/list.hpp ****         Elem *elem = new Elem(data, head);
  37:src/../h/list.hpp ****         head = elem;
  38:src/../h/list.hpp ****         if (!tail) { tail = head; }
  39:src/../h/list.hpp ****     }
  40:src/../h/list.hpp **** 
  41:src/../h/list.hpp ****     void addLast(T *data)
  42:src/../h/list.hpp ****     {
  43:src/../h/list.hpp ****         Elem *elem = new Elem(data, 0);
  37              		.loc 2 43 22 is_stmt 0
  38 0028 13050001 		li	a0,16
  39              	.LVL2:
  40 002c 97000000 		call	_Znwm@plt
  40      E7800000 
  41              	.LVL3:
  42              	.LBB28:
  43              	.LBB29:
  20:src/../h/list.hpp ****     };
  44              		.loc 2 20 58
  45 0034 23302501 		sd	s2,0(a0)
  46 0038 23340500 		sd	zero,8(a0)
  47              	.LVL4:
  48              	.LBE29:
  49              	.LBE28:
  44:src/../h/list.hpp ****         if (tail)
  50              		.loc 2 44 13
  51 003c 83B70401 		ld	a5,16(s1)
  52              		.loc 2 44 9
  53 0040 63840704 		beqz	a5,.L2
  45:src/../h/list.hpp ****         {
  46:src/../h/list.hpp ****             tail->next = elem;
  54              		.loc 2 46 13
  55 0044 23B4A700 		sd	a0,8(a5)
  47:src/../h/list.hpp ****             tail = elem;
  56              		.loc 2 47 13
  57 0048 23B8A400 		sd	a0,16(s1)
  58              	.L3:
  59              	.LVL5:
  60              	.LBE27:
GAS LISTING /tmp/ccN0J4sw.s 			page 3


  61              	.LBE26:
   6:src/Ksemaphore.cpp ****     TCB::running=Scheduler::get();
  62              		.loc 1 6 5 is_stmt 1
  63              		.loc 1 6 32 is_stmt 0
  64 004c 97000000 		call	_ZN9Scheduler3getEv@plt
  64      E7800000 
  65              	.LVL6:
  66              		.loc 1 6 17
  67 0054 97070000 		la	a5,_ZN3TCB7runningE
  67      83B70700 
  68 005c 23B0A700 		sd	a0,0(a5)
   7:src/Ksemaphore.cpp ****     TCB::contextSwitch(&tr->context, &TCB::running->context);
  69              		.loc 1 7 5 is_stmt 1
  70              		.loc 1 7 23 is_stmt 0
  71 0060 93058501 		addi	a1,a0,24
  72 0064 13058901 		addi	a0,s2,24
  73 0068 97000000 		call	_ZN3TCB13contextSwitchEPNS_7ContextES1_@plt
  73      E7800000 
  74              	.LVL7:
   8:src/Ksemaphore.cpp **** }
  75              		.loc 1 8 1
  76 0070 83308101 		ld	ra,24(sp)
  77              		.cfi_remember_state
  78              		.cfi_restore 1
  79 0074 03340101 		ld	s0,16(sp)
  80              		.cfi_restore 8
  81              		.cfi_def_cfa 2, 32
  82 0078 83348100 		ld	s1,8(sp)
  83              		.cfi_restore 9
  84              	.LVL8:
  85 007c 03390100 		ld	s2,0(sp)
  86              		.cfi_restore 18
  87              	.LVL9:
  88 0080 13010102 		addi	sp,sp,32
  89              		.cfi_def_cfa_offset 0
  90 0084 67800000 		jr	ra
  91              	.LVL10:
  92              	.L2:
  93              		.cfi_restore_state
  94              	.LBB31:
  95              	.LBB30:
  48:src/../h/list.hpp ****         } else
  49:src/../h/list.hpp ****         {
  50:src/../h/list.hpp ****             head = tail = elem;
  96              		.loc 2 50 13
  97 0088 23B8A400 		sd	a0,16(s1)
  98 008c 23B4A400 		sd	a0,8(s1)
  99 0090 6FF0DFFB 		j	.L3
 100              	.LBE30:
 101              	.LBE31:
 102              		.cfi_endproc
 103              	.LFE30:
 105              		.align	2
 106              		.globl	_ZN10Ksemaphore7unblockEv
 108              	_ZN10Ksemaphore7unblockEv:
 109              	.LFB31:
   9:src/Ksemaphore.cpp **** 
GAS LISTING /tmp/ccN0J4sw.s 			page 4


  10:src/Ksemaphore.cpp **** void Ksemaphore::unblock() {
 110              		.loc 1 10 28 is_stmt 1
 111              		.cfi_startproc
 112              	.LVL11:
 113 0094 130101FE 		addi	sp,sp,-32
 114              		.cfi_def_cfa_offset 32
 115 0098 233C1100 		sd	ra,24(sp)
 116 009c 23388100 		sd	s0,16(sp)
 117 00a0 23349100 		sd	s1,8(sp)
 118              		.cfi_offset 1, -8
 119              		.cfi_offset 8, -16
 120              		.cfi_offset 9, -24
 121 00a4 13040102 		addi	s0,sp,32
 122              		.cfi_def_cfa 8, 0
 123 00a8 93070500 		mv	a5,a0
  11:src/Ksemaphore.cpp ****     TCB *t = blocked.removeFirst();
 124              		.loc 1 11 5
 125              	.LVL12:
 126              	.LBB32:
 127              	.LBB33:
  51:src/../h/list.hpp ****         }
  52:src/../h/list.hpp ****     }
  53:src/../h/list.hpp **** 
  54:src/../h/list.hpp ****     T *removeFirst()
  55:src/../h/list.hpp ****     {
  56:src/../h/list.hpp ****         if (!head) { return 0; }
 128              		.loc 2 56 14 is_stmt 0
 129 00ac 03358500 		ld	a0,8(a0)
 130              	.LVL13:
 131              		.loc 2 56 9
 132 00b0 63020504 		beqz	a0,.L8
 133              	.LVL14:
  57:src/../h/list.hpp **** 
  58:src/../h/list.hpp ****         Elem *elem = head;
  59:src/../h/list.hpp ****         head = head->next;
 134              		.loc 2 59 22
 135 00b4 03378500 		ld	a4,8(a0)
 136              		.loc 2 59 9
 137 00b8 23B4E700 		sd	a4,8(a5)
  60:src/../h/list.hpp ****         if (!head) { tail = 0; }
 138              		.loc 2 60 9
 139 00bc 63080702 		beqz	a4,.L10
 140              	.L7:
  61:src/../h/list.hpp **** 
  62:src/../h/list.hpp ****         T *ret = elem->data;
 141              		.loc 2 62 12
 142 00c0 83340500 		ld	s1,0(a0)
 143              	.LVL15:
  63:src/../h/list.hpp ****         delete elem;
 144              		.loc 2 63 9
 145 00c4 97000000 		call	_ZdlPv@plt
 145      E7800000 
 146              	.LVL16:
 147              	.L6:
 148              	.LBE33:
 149              	.LBE32:
  12:src/Ksemaphore.cpp ****     Scheduler::put(t);
GAS LISTING /tmp/ccN0J4sw.s 			page 5


 150              		.loc 1 12 5 is_stmt 1
 151              		.loc 1 12 19 is_stmt 0
 152 00cc 13850400 		mv	a0,s1
 153 00d0 97000000 		call	_ZN9Scheduler3putEP3TCB@plt
 153      E7800000 
 154              	.LVL17:
  13:src/Ksemaphore.cpp **** }
 155              		.loc 1 13 1
 156 00d8 83308101 		ld	ra,24(sp)
 157              		.cfi_remember_state
 158              		.cfi_restore 1
 159 00dc 03340101 		ld	s0,16(sp)
 160              		.cfi_restore 8
 161              		.cfi_def_cfa 2, 32
 162 00e0 83348100 		ld	s1,8(sp)
 163              		.cfi_restore 9
 164              	.LVL18:
 165 00e4 13010102 		addi	sp,sp,32
 166              		.cfi_def_cfa_offset 0
 167 00e8 67800000 		jr	ra
 168              	.LVL19:
 169              	.L10:
 170              		.cfi_restore_state
 171              	.LBB35:
 172              	.LBB34:
  60:src/../h/list.hpp **** 
 173              		.loc 2 60 22
 174 00ec 23B80700 		sd	zero,16(a5)
 175 00f0 6FF01FFD 		j	.L7
 176              	.LVL20:
 177              	.L8:
  56:src/../h/list.hpp **** 
 178              		.loc 2 56 29
 179 00f4 93040500 		mv	s1,a0
 180 00f8 6FF05FFD 		j	.L6
 181              	.LBE34:
 182              	.LBE35:
 183              		.cfi_endproc
 184              	.LFE31:
 186              		.align	2
 187              		.globl	_ZN10Ksemaphore4waitEv
 189              	_ZN10Ksemaphore4waitEv:
 190              	.LFB32:
  14:src/Ksemaphore.cpp **** 
  15:src/Ksemaphore.cpp **** int Ksemaphore::wait() {
 191              		.loc 1 15 24 is_stmt 1
 192              		.cfi_startproc
 193              	.LVL21:
  16:src/Ksemaphore.cpp ****     if(--val<0){
 194              		.loc 1 16 5
 195              		.loc 1 16 10 is_stmt 0
 196 00fc 83270500 		lw	a5,0(a0)
 197              		.loc 1 16 8
 198 0100 9B87F7FF 		addiw	a5,a5,-1
 199              		.loc 1 16 13
 200 0104 2320F500 		sw	a5,0(a0)
 201              		.loc 1 16 5
GAS LISTING /tmp/ccN0J4sw.s 			page 6


 202 0108 13970702 		slli	a4,a5,32
 203 010c 63460700 		bltz	a4,.L17
  17:src/Ksemaphore.cpp ****         block();
  18:src/Ksemaphore.cpp **** //        TCB::dispatchWithoutScheduler();
  19:src/Ksemaphore.cpp ****         return 0;
  20:src/Ksemaphore.cpp ****     }
  21:src/Ksemaphore.cpp ****     return 0;
  22:src/Ksemaphore.cpp **** }
 204              		.loc 1 22 1
 205 0110 13050000 		li	a0,0
 206              	.LVL22:
 207 0114 67800000 		ret
 208              	.LVL23:
 209              	.L17:
  15:src/Ksemaphore.cpp ****     if(--val<0){
 210              		.loc 1 15 24
 211 0118 130101FF 		addi	sp,sp,-16
 212              		.cfi_def_cfa_offset 16
 213 011c 23341100 		sd	ra,8(sp)
 214 0120 23308100 		sd	s0,0(sp)
 215              		.cfi_offset 1, -8
 216              		.cfi_offset 8, -16
 217 0124 13040101 		addi	s0,sp,16
 218              		.cfi_def_cfa 8, 0
  17:src/Ksemaphore.cpp ****         block();
 219              		.loc 1 17 9 is_stmt 1
  17:src/Ksemaphore.cpp ****         block();
 220              		.loc 1 17 14 is_stmt 0
 221 0128 97000000 		call	_ZN10Ksemaphore5blockEv
 221      E7800000 
 222              	.LVL24:
  19:src/Ksemaphore.cpp ****     }
 223              		.loc 1 19 9 is_stmt 1
 224              		.loc 1 22 1 is_stmt 0
 225 0130 13050000 		li	a0,0
 226 0134 83308100 		ld	ra,8(sp)
 227              		.cfi_restore 1
 228 0138 03340100 		ld	s0,0(sp)
 229              		.cfi_restore 8
 230              		.cfi_def_cfa 2, 16
 231 013c 13010101 		addi	sp,sp,16
 232              		.cfi_def_cfa_offset 0
 233 0140 67800000 		jr	ra
 234              		.cfi_endproc
 235              	.LFE32:
 237              		.align	2
 238              		.globl	_ZN10Ksemaphore6signalEv
 240              	_ZN10Ksemaphore6signalEv:
 241              	.LFB33:
  23:src/Ksemaphore.cpp **** 
  24:src/Ksemaphore.cpp **** int Ksemaphore::signal() {
 242              		.loc 1 24 26 is_stmt 1
 243              		.cfi_startproc
 244              	.LVL25:
  25:src/Ksemaphore.cpp ****     if(++val<=0) {
 245              		.loc 1 25 5
 246              		.loc 1 25 10 is_stmt 0
GAS LISTING /tmp/ccN0J4sw.s 			page 7


 247 0144 83270500 		lw	a5,0(a0)
 248              		.loc 1 25 8
 249 0148 9B871700 		addiw	a5,a5,1
 250 014c 1B870700 		sext.w	a4,a5
 251              		.loc 1 25 13
 252 0150 2320F500 		sw	a5,0(a0)
 253              		.loc 1 25 5
 254 0154 6356E000 		blez	a4,.L25
  26:src/Ksemaphore.cpp ****         unblock();
  27:src/Ksemaphore.cpp ****         return 0;
  28:src/Ksemaphore.cpp ****     }
  29:src/Ksemaphore.cpp ****     return 1;
 255              		.loc 1 29 12
 256 0158 13051000 		li	a0,1
 257              	.LVL26:
  30:src/Ksemaphore.cpp **** }
 258              		.loc 1 30 1
 259 015c 67800000 		ret
 260              	.LVL27:
 261              	.L25:
  24:src/Ksemaphore.cpp ****     if(++val<=0) {
 262              		.loc 1 24 26
 263 0160 130101FF 		addi	sp,sp,-16
 264              		.cfi_def_cfa_offset 16
 265 0164 23341100 		sd	ra,8(sp)
 266 0168 23308100 		sd	s0,0(sp)
 267              		.cfi_offset 1, -8
 268              		.cfi_offset 8, -16
 269 016c 13040101 		addi	s0,sp,16
 270              		.cfi_def_cfa 8, 0
  26:src/Ksemaphore.cpp ****         unblock();
 271              		.loc 1 26 9 is_stmt 1
  26:src/Ksemaphore.cpp ****         unblock();
 272              		.loc 1 26 16 is_stmt 0
 273 0170 97000000 		call	_ZN10Ksemaphore7unblockEv
 273      E7800000 
 274              	.LVL28:
  27:src/Ksemaphore.cpp ****     }
 275              		.loc 1 27 9 is_stmt 1
  27:src/Ksemaphore.cpp ****     }
 276              		.loc 1 27 16 is_stmt 0
 277 0178 13050000 		li	a0,0
 278              		.loc 1 30 1
 279 017c 83308100 		ld	ra,8(sp)
 280              		.cfi_restore 1
 281 0180 03340100 		ld	s0,0(sp)
 282              		.cfi_restore 8
 283              		.cfi_def_cfa 2, 16
 284 0184 13010101 		addi	sp,sp,16
 285              		.cfi_def_cfa_offset 0
 286 0188 67800000 		jr	ra
 287              		.cfi_endproc
 288              	.LFE33:
 290              		.align	2
 291              		.globl	_ZN10Ksemaphore14closeSemaphoreEv
 293              	_ZN10Ksemaphore14closeSemaphoreEv:
 294              	.LFB35:
GAS LISTING /tmp/ccN0J4sw.s 			page 8


  31:src/Ksemaphore.cpp **** 
  32:src/Ksemaphore.cpp **** Ksemaphore *Ksemaphore::createSemaphore(unsigned int init) {
  33:src/Ksemaphore.cpp ****     Ksemaphore* ksem = (Ksemaphore*) new Ksemaphore(init);
  34:src/Ksemaphore.cpp ****     ksem->val=init;
  35:src/Ksemaphore.cpp ****     return ksem;
  36:src/Ksemaphore.cpp **** }
  37:src/Ksemaphore.cpp **** 
  38:src/Ksemaphore.cpp **** int Ksemaphore::closeSemaphore(){
 295              		.loc 1 38 33 is_stmt 1
 296              		.cfi_startproc
 297              	.LVL29:
 298 018c 130101FE 		addi	sp,sp,-32
 299              		.cfi_def_cfa_offset 32
 300 0190 233C1100 		sd	ra,24(sp)
 301 0194 23388100 		sd	s0,16(sp)
 302 0198 23349100 		sd	s1,8(sp)
 303 019c 23302101 		sd	s2,0(sp)
 304              		.cfi_offset 1, -8
 305              		.cfi_offset 8, -16
 306              		.cfi_offset 9, -24
 307              		.cfi_offset 18, -32
 308 01a0 13040102 		addi	s0,sp,32
 309              		.cfi_def_cfa 8, 0
 310 01a4 93040500 		mv	s1,a0
 311 01a8 6F000002 		j	.L29
 312              	.LVL30:
 313              	.L31:
 314              	.LBB36:
 315              	.LBB37:
  60:src/../h/list.hpp **** 
 316              		.loc 2 60 22 is_stmt 0
 317 01ac 23B80400 		sd	zero,16(s1)
 318              	.L28:
  62:src/../h/list.hpp ****         delete elem;
 319              		.loc 2 62 12
 320 01b0 03390500 		ld	s2,0(a0)
 321              	.LVL31:
 322              		.loc 2 63 9
 323 01b4 97000000 		call	_ZdlPv@plt
 323      E7800000 
 324              	.LVL32:
 325              	.LBE37:
 326              	.LBE36:
  39:src/Ksemaphore.cpp ****     TCB* tcb;
  40:src/Ksemaphore.cpp ****     while((tcb= blocked.peekFirst())!= nullptr){
  41:src/Ksemaphore.cpp ****         tcb=blocked.removeFirst();
  42:src/Ksemaphore.cpp ****         Scheduler::put(tcb);
 327              		.loc 1 42 9 is_stmt 1
 328              		.loc 1 42 23 is_stmt 0
 329 01bc 13050900 		mv	a0,s2
 330 01c0 97000000 		call	_ZN9Scheduler3putEP3TCB@plt
 330      E7800000 
 331              	.LVL33:
 332              	.L29:
  39:src/Ksemaphore.cpp ****     TCB* tcb;
 333              		.loc 1 39 5 is_stmt 1
  40:src/Ksemaphore.cpp ****         tcb=blocked.removeFirst();
GAS LISTING /tmp/ccN0J4sw.s 			page 9


 334              		.loc 1 40 5
  40:src/Ksemaphore.cpp ****         tcb=blocked.removeFirst();
 335              		.loc 1 40 37
 336              	.LBB39:
 337              	.LBB40:
  64:src/../h/list.hpp ****         return ret;
  65:src/../h/list.hpp ****     }
  66:src/../h/list.hpp **** 
  67:src/../h/list.hpp ****     T *peekFirst()
  68:src/../h/list.hpp ****     {
  69:src/../h/list.hpp ****         if (!head) { return 0; }
 338              		.loc 2 69 14 is_stmt 0
 339 01c8 03B58400 		ld	a0,8(s1)
 340              		.loc 2 69 9
 341 01cc 630E0500 		beqz	a0,.L27
  70:src/../h/list.hpp ****         return head->data;
 342              		.loc 2 70 22
 343 01d0 83370500 		ld	a5,0(a0)
 344              	.LVL34:
 345              	.LBE40:
 346              	.LBE39:
  40:src/Ksemaphore.cpp ****         tcb=blocked.removeFirst();
 347              		.loc 1 40 37
 348 01d4 638A0700 		beqz	a5,.L27
  41:src/Ksemaphore.cpp ****         Scheduler::put(tcb);
 349              		.loc 1 41 9 is_stmt 1
 350              	.LVL35:
 351              	.LBB41:
 352              	.LBB38:
  59:src/../h/list.hpp ****         if (!head) { tail = 0; }
 353              		.loc 2 59 22 is_stmt 0
 354 01d8 83378500 		ld	a5,8(a0)
 355              	.LVL36:
  59:src/../h/list.hpp ****         if (!head) { tail = 0; }
 356              		.loc 2 59 9
 357 01dc 23B4F400 		sd	a5,8(s1)
 358              	.LVL37:
  60:src/../h/list.hpp **** 
 359              		.loc 2 60 9
 360 01e0 E39807FC 		bnez	a5,.L28
 361 01e4 6FF09FFC 		j	.L31
 362              	.LVL38:
 363              	.L27:
 364              	.LBE38:
 365              	.LBE41:
  43:src/Ksemaphore.cpp ****     }
  44:src/Ksemaphore.cpp ****     return 0;
 366              		.loc 1 44 5 is_stmt 1
  45:src/Ksemaphore.cpp **** }
 367              		.loc 1 45 1 is_stmt 0
 368 01e8 13050000 		li	a0,0
 369 01ec 83308101 		ld	ra,24(sp)
 370              		.cfi_restore 1
 371 01f0 03340101 		ld	s0,16(sp)
 372              		.cfi_restore 8
 373              		.cfi_def_cfa 2, 32
 374 01f4 83348100 		ld	s1,8(sp)
GAS LISTING /tmp/ccN0J4sw.s 			page 10


 375              		.cfi_restore 9
 376              	.LVL39:
 377 01f8 03390100 		ld	s2,0(sp)
 378              		.cfi_restore 18
 379 01fc 13010102 		addi	sp,sp,32
 380              		.cfi_def_cfa_offset 0
 381 0200 67800000 		jr	ra
 382              		.cfi_endproc
 383              	.LFE35:
 385              		.align	2
 386              		.globl	_ZN10KsemaphoredlEPv
 388              	_ZN10KsemaphoredlEPv:
 389              	.LFB36:
  46:src/Ksemaphore.cpp **** void Ksemaphore::operator delete(void *p) {
 390              		.loc 1 46 43 is_stmt 1
 391              		.cfi_startproc
 392              	.LVL40:
 393 0204 130101FF 		addi	sp,sp,-16
 394              		.cfi_def_cfa_offset 16
 395 0208 23341100 		sd	ra,8(sp)
 396 020c 23308100 		sd	s0,0(sp)
 397              		.cfi_offset 1, -8
 398              		.cfi_offset 8, -16
 399 0210 13040101 		addi	s0,sp,16
 400              		.cfi_def_cfa 8, 0
  47:src/Ksemaphore.cpp ****     MemoryAllocator::free(p);
 401              		.loc 1 47 5
 402              		.loc 1 47 26 is_stmt 0
 403 0214 97000000 		call	_ZN15MemoryAllocator4freeEPv@plt
 403      E7800000 
 404              	.LVL41:
  48:src/Ksemaphore.cpp ****     return;
 405              		.loc 1 48 5 is_stmt 1
  49:src/Ksemaphore.cpp **** }
 406              		.loc 1 49 1 is_stmt 0
 407 021c 83308100 		ld	ra,8(sp)
 408              		.cfi_restore 1
 409 0220 03340100 		ld	s0,0(sp)
 410              		.cfi_restore 8
 411              		.cfi_def_cfa 2, 16
 412 0224 13010101 		addi	sp,sp,16
 413              		.cfi_def_cfa_offset 0
 414 0228 67800000 		jr	ra
 415              		.cfi_endproc
 416              	.LFE36:
 418              		.align	2
 419              		.globl	_ZN10KsemaphorenwEm
 421              	_ZN10KsemaphorenwEm:
 422              	.LFB37:
  50:src/Ksemaphore.cpp **** 
  51:src/Ksemaphore.cpp **** void *Ksemaphore::operator new(size_t n) {
 423              		.loc 1 51 42 is_stmt 1
 424              		.cfi_startproc
 425              	.LVL42:
 426 022c 130101FF 		addi	sp,sp,-16
 427              		.cfi_def_cfa_offset 16
 428 0230 23341100 		sd	ra,8(sp)
GAS LISTING /tmp/ccN0J4sw.s 			page 11


 429 0234 23308100 		sd	s0,0(sp)
 430              		.cfi_offset 1, -8
 431              		.cfi_offset 8, -16
 432 0238 13040101 		addi	s0,sp,16
 433              		.cfi_def_cfa 8, 0
  52:src/Ksemaphore.cpp ****     return MemoryAllocator::malloc(sizeof (Ksemaphore));
 434              		.loc 1 52 5
 435              		.loc 1 52 35 is_stmt 0
 436 023c 13058001 		li	a0,24
 437              	.LVL43:
 438 0240 97000000 		call	_ZN15MemoryAllocator6mallocEm@plt
 438      E7800000 
 439              	.LVL44:
  53:src/Ksemaphore.cpp **** }
 440              		.loc 1 53 1
 441 0248 83308100 		ld	ra,8(sp)
 442              		.cfi_restore 1
 443 024c 03340100 		ld	s0,0(sp)
 444              		.cfi_restore 8
 445              		.cfi_def_cfa 2, 16
 446 0250 13010101 		addi	sp,sp,16
 447              		.cfi_def_cfa_offset 0
 448 0254 67800000 		jr	ra
 449              		.cfi_endproc
 450              	.LFE37:
 452              		.align	2
 453              		.globl	_ZN10Ksemaphore15createSemaphoreEj
 455              	_ZN10Ksemaphore15createSemaphoreEj:
 456              	.LFB34:
  32:src/Ksemaphore.cpp ****     Ksemaphore* ksem = (Ksemaphore*) new Ksemaphore(init);
 457              		.loc 1 32 60 is_stmt 1
 458              		.cfi_startproc
 459              	.LVL45:
 460 0258 130101FE 		addi	sp,sp,-32
 461              		.cfi_def_cfa_offset 32
 462 025c 233C1100 		sd	ra,24(sp)
 463 0260 23388100 		sd	s0,16(sp)
 464 0264 23349100 		sd	s1,8(sp)
 465              		.cfi_offset 1, -8
 466              		.cfi_offset 8, -16
 467              		.cfi_offset 9, -24
 468 0268 13040102 		addi	s0,sp,32
 469              		.cfi_def_cfa 8, 0
 470 026c 93040500 		mv	s1,a0
  33:src/Ksemaphore.cpp ****     ksem->val=init;
 471              		.loc 1 33 5
  33:src/Ksemaphore.cpp ****     ksem->val=init;
 472              		.loc 1 33 57 is_stmt 0
 473 0270 13058001 		li	a0,24
 474              	.LVL46:
 475 0274 97000000 		call	_ZN10KsemaphorenwEm
 475      E7800000 
 476              	.LVL47:
 477              	.LBB42:
 478              	.LBB43:
 479              		.file 3 "src/../h/Ksemaphore.hpp"
   1:src/../h/Ksemaphore.hpp **** #ifndef PROJECT_BASE_KSEMAPHORE_HPP
GAS LISTING /tmp/ccN0J4sw.s 			page 12


   2:src/../h/Ksemaphore.hpp **** #define PROJECT_BASE_KSEMAPHORE_HPP
   3:src/../h/Ksemaphore.hpp **** #include "scheduler.hpp"
   4:src/../h/Ksemaphore.hpp **** #include "TCB.hpp"
   5:src/../h/Ksemaphore.hpp **** #include "../lib/hw.h"
   6:src/../h/Ksemaphore.hpp **** 
   7:src/../h/Ksemaphore.hpp **** typedef Ksemaphore* sem_t;
   8:src/../h/Ksemaphore.hpp **** 
   9:src/../h/Ksemaphore.hpp **** 
  10:src/../h/Ksemaphore.hpp **** class Ksemaphore{
  11:src/../h/Ksemaphore.hpp ****     Ksemaphore(unsigned init =1):val(init){}
 480              		.loc 3 11 42
 481 027c 23209500 		sw	s1,0(a0)
 482              	.LVL48:
 483              	.LBB44:
 484              	.LBB45:
  26:src/../h/list.hpp **** 
 485              		.loc 2 26 29
 486 0280 23340500 		sd	zero,8(a0)
 487 0284 23380500 		sd	zero,16(a0)
 488              	.LVL49:
 489              	.LBE45:
 490              	.LBE44:
 491              	.LBE43:
 492              	.LBE42:
  34:src/Ksemaphore.cpp ****     return ksem;
 493              		.loc 1 34 5 is_stmt 1
  35:src/Ksemaphore.cpp **** }
 494              		.loc 1 35 5
  36:src/Ksemaphore.cpp **** 
 495              		.loc 1 36 1 is_stmt 0
 496 0288 83308101 		ld	ra,24(sp)
 497              		.cfi_restore 1
 498 028c 03340101 		ld	s0,16(sp)
 499              		.cfi_restore 8
 500              		.cfi_def_cfa 2, 32
 501 0290 83348100 		ld	s1,8(sp)
 502              		.cfi_restore 9
 503 0294 13010102 		addi	sp,sp,32
 504              		.cfi_def_cfa_offset 0
 505 0298 67800000 		jr	ra
 506              		.cfi_endproc
 507              	.LFE34:
 509              	.Letext0:
 510              		.file 4 "src/../h/../lib/hw.h"
 511              		.file 5 "src/../h/MemoryAllocator.hpp"
 512              		.file 6 "src/../h/scheduler.hpp"
 513              		.file 7 "src/../h/TCB.hpp"
GAS LISTING /tmp/ccN0J4sw.s 			page 13


DEFINED SYMBOLS
                            *ABS*:0000000000000000 Ksemaphore.cpp
     /tmp/ccN0J4sw.s:9      .text:0000000000000000 _ZN10Ksemaphore5blockEv
     /tmp/ccN0J4sw.s:13     .text:0000000000000000 .L0 
     /tmp/ccN0J4sw.s:15     .text:0000000000000000 .L0 
     /tmp/ccN0J4sw.s:16     .text:0000000000000004 .L0 
     /tmp/ccN0J4sw.s:21     .text:0000000000000014 .L0 
     /tmp/ccN0J4sw.s:22     .text:0000000000000014 .L0 
     /tmp/ccN0J4sw.s:23     .text:0000000000000014 .L0 
     /tmp/ccN0J4sw.s:24     .text:0000000000000014 .L0 
     /tmp/ccN0J4sw.s:26     .text:0000000000000018 .L0 
     /tmp/ccN0J4sw.s:29     .text:000000000000001c .L0 
     /tmp/ccN0J4sw.s:30     .text:000000000000001c .L0 
     /tmp/ccN0J4sw.s:37     .text:0000000000000028 .L0 
     /tmp/ccN0J4sw.s:38     .text:0000000000000028 .L0 
     /tmp/ccN0J4sw.s:45     .text:0000000000000034 .L0 
     /tmp/ccN0J4sw.s:51     .text:000000000000003c .L0 
     /tmp/ccN0J4sw.s:53     .text:0000000000000040 .L0 
     /tmp/ccN0J4sw.s:55     .text:0000000000000044 .L0 
     /tmp/ccN0J4sw.s:57     .text:0000000000000048 .L0 
     /tmp/ccN0J4sw.s:63     .text:000000000000004c .L0 
     /tmp/ccN0J4sw.s:64     .text:000000000000004c .L0 
     /tmp/ccN0J4sw.s:67     .text:0000000000000054 .L0 
     /tmp/ccN0J4sw.s:70     .text:0000000000000060 .L0 
     /tmp/ccN0J4sw.s:71     .text:0000000000000060 .L0 
     /tmp/ccN0J4sw.s:76     .text:0000000000000070 .L0 
     /tmp/ccN0J4sw.s:77     .text:0000000000000074 .L0 
     /tmp/ccN0J4sw.s:78     .text:0000000000000074 .L0 
     /tmp/ccN0J4sw.s:80     .text:0000000000000078 .L0 
     /tmp/ccN0J4sw.s:81     .text:0000000000000078 .L0 
     /tmp/ccN0J4sw.s:83     .text:000000000000007c .L0 
     /tmp/ccN0J4sw.s:86     .text:0000000000000080 .L0 
     /tmp/ccN0J4sw.s:89     .text:0000000000000084 .L0 
     /tmp/ccN0J4sw.s:93     .text:0000000000000088 .L0 
     /tmp/ccN0J4sw.s:97     .text:0000000000000088 .L0 
     /tmp/ccN0J4sw.s:102    .text:0000000000000094 .L0 
     /tmp/ccN0J4sw.s:108    .text:0000000000000094 _ZN10Ksemaphore7unblockEv
     /tmp/ccN0J4sw.s:111    .text:0000000000000094 .L0 
     /tmp/ccN0J4sw.s:113    .text:0000000000000094 .L0 
     /tmp/ccN0J4sw.s:114    .text:0000000000000098 .L0 
     /tmp/ccN0J4sw.s:118    .text:00000000000000a4 .L0 
     /tmp/ccN0J4sw.s:119    .text:00000000000000a4 .L0 
     /tmp/ccN0J4sw.s:120    .text:00000000000000a4 .L0 
     /tmp/ccN0J4sw.s:122    .text:00000000000000a8 .L0 
     /tmp/ccN0J4sw.s:128    .text:00000000000000ac .L0 
     /tmp/ccN0J4sw.s:129    .text:00000000000000ac .L0 
     /tmp/ccN0J4sw.s:132    .text:00000000000000b0 .L0 
     /tmp/ccN0J4sw.s:135    .text:00000000000000b4 .L0 
     /tmp/ccN0J4sw.s:137    .text:00000000000000b8 .L0 
     /tmp/ccN0J4sw.s:139    .text:00000000000000bc .L0 
     /tmp/ccN0J4sw.s:142    .text:00000000000000c0 .L0 
     /tmp/ccN0J4sw.s:145    .text:00000000000000c4 .L0 
     /tmp/ccN0J4sw.s:151    .text:00000000000000cc .L0 
     /tmp/ccN0J4sw.s:152    .text:00000000000000cc .L0 
     /tmp/ccN0J4sw.s:156    .text:00000000000000d8 .L0 
     /tmp/ccN0J4sw.s:157    .text:00000000000000dc .L0 
     /tmp/ccN0J4sw.s:158    .text:00000000000000dc .L0 
GAS LISTING /tmp/ccN0J4sw.s 			page 14


     /tmp/ccN0J4sw.s:160    .text:00000000000000e0 .L0 
     /tmp/ccN0J4sw.s:161    .text:00000000000000e0 .L0 
     /tmp/ccN0J4sw.s:163    .text:00000000000000e4 .L0 
     /tmp/ccN0J4sw.s:166    .text:00000000000000e8 .L0 
     /tmp/ccN0J4sw.s:170    .text:00000000000000ec .L0 
     /tmp/ccN0J4sw.s:174    .text:00000000000000ec .L0 
     /tmp/ccN0J4sw.s:179    .text:00000000000000f4 .L0 
     /tmp/ccN0J4sw.s:183    .text:00000000000000fc .L0 
     /tmp/ccN0J4sw.s:189    .text:00000000000000fc _ZN10Ksemaphore4waitEv
     /tmp/ccN0J4sw.s:192    .text:00000000000000fc .L0 
     /tmp/ccN0J4sw.s:194    .text:00000000000000fc .L0 
     /tmp/ccN0J4sw.s:195    .text:00000000000000fc .L0 
     /tmp/ccN0J4sw.s:196    .text:00000000000000fc .L0 
     /tmp/ccN0J4sw.s:198    .text:0000000000000100 .L0 
     /tmp/ccN0J4sw.s:200    .text:0000000000000104 .L0 
     /tmp/ccN0J4sw.s:202    .text:0000000000000108 .L0 
     /tmp/ccN0J4sw.s:205    .text:0000000000000110 .L0 
     /tmp/ccN0J4sw.s:211    .text:0000000000000118 .L0 
     /tmp/ccN0J4sw.s:212    .text:000000000000011c .L0 
     /tmp/ccN0J4sw.s:215    .text:0000000000000124 .L0 
     /tmp/ccN0J4sw.s:216    .text:0000000000000124 .L0 
     /tmp/ccN0J4sw.s:218    .text:0000000000000128 .L0 
     /tmp/ccN0J4sw.s:220    .text:0000000000000128 .L0 
     /tmp/ccN0J4sw.s:221    .text:0000000000000128 .L0 
     /tmp/ccN0J4sw.s:224    .text:0000000000000130 .L0 
     /tmp/ccN0J4sw.s:225    .text:0000000000000130 .L0 
     /tmp/ccN0J4sw.s:227    .text:0000000000000138 .L0 
     /tmp/ccN0J4sw.s:229    .text:000000000000013c .L0 
     /tmp/ccN0J4sw.s:230    .text:000000000000013c .L0 
     /tmp/ccN0J4sw.s:232    .text:0000000000000140 .L0 
     /tmp/ccN0J4sw.s:234    .text:0000000000000144 .L0 
     /tmp/ccN0J4sw.s:240    .text:0000000000000144 _ZN10Ksemaphore6signalEv
     /tmp/ccN0J4sw.s:243    .text:0000000000000144 .L0 
     /tmp/ccN0J4sw.s:245    .text:0000000000000144 .L0 
     /tmp/ccN0J4sw.s:246    .text:0000000000000144 .L0 
     /tmp/ccN0J4sw.s:247    .text:0000000000000144 .L0 
     /tmp/ccN0J4sw.s:249    .text:0000000000000148 .L0 
     /tmp/ccN0J4sw.s:252    .text:0000000000000150 .L0 
     /tmp/ccN0J4sw.s:254    .text:0000000000000154 .L0 
     /tmp/ccN0J4sw.s:256    .text:0000000000000158 .L0 
     /tmp/ccN0J4sw.s:259    .text:000000000000015c .L0 
     /tmp/ccN0J4sw.s:263    .text:0000000000000160 .L0 
     /tmp/ccN0J4sw.s:264    .text:0000000000000164 .L0 
     /tmp/ccN0J4sw.s:267    .text:000000000000016c .L0 
     /tmp/ccN0J4sw.s:268    .text:000000000000016c .L0 
     /tmp/ccN0J4sw.s:270    .text:0000000000000170 .L0 
     /tmp/ccN0J4sw.s:272    .text:0000000000000170 .L0 
     /tmp/ccN0J4sw.s:273    .text:0000000000000170 .L0 
     /tmp/ccN0J4sw.s:276    .text:0000000000000178 .L0 
     /tmp/ccN0J4sw.s:277    .text:0000000000000178 .L0 
     /tmp/ccN0J4sw.s:279    .text:000000000000017c .L0 
     /tmp/ccN0J4sw.s:280    .text:0000000000000180 .L0 
     /tmp/ccN0J4sw.s:282    .text:0000000000000184 .L0 
     /tmp/ccN0J4sw.s:283    .text:0000000000000184 .L0 
     /tmp/ccN0J4sw.s:285    .text:0000000000000188 .L0 
     /tmp/ccN0J4sw.s:287    .text:000000000000018c .L0 
     /tmp/ccN0J4sw.s:293    .text:000000000000018c _ZN10Ksemaphore14closeSemaphoreEv
GAS LISTING /tmp/ccN0J4sw.s 			page 15


     /tmp/ccN0J4sw.s:296    .text:000000000000018c .L0 
     /tmp/ccN0J4sw.s:298    .text:000000000000018c .L0 
     /tmp/ccN0J4sw.s:299    .text:0000000000000190 .L0 
     /tmp/ccN0J4sw.s:304    .text:00000000000001a0 .L0 
     /tmp/ccN0J4sw.s:305    .text:00000000000001a0 .L0 
     /tmp/ccN0J4sw.s:306    .text:00000000000001a0 .L0 
     /tmp/ccN0J4sw.s:307    .text:00000000000001a0 .L0 
     /tmp/ccN0J4sw.s:309    .text:00000000000001a4 .L0 
     /tmp/ccN0J4sw.s:317    .text:00000000000001ac .L0 
     /tmp/ccN0J4sw.s:320    .text:00000000000001b0 .L0 
     /tmp/ccN0J4sw.s:323    .text:00000000000001b4 .L0 
     /tmp/ccN0J4sw.s:328    .text:00000000000001bc .L0 
     /tmp/ccN0J4sw.s:329    .text:00000000000001bc .L0 
     /tmp/ccN0J4sw.s:334    .text:00000000000001c8 .L0 
     /tmp/ccN0J4sw.s:335    .text:00000000000001c8 .L0 
     /tmp/ccN0J4sw.s:338    .text:00000000000001c8 .L0 
     /tmp/ccN0J4sw.s:339    .text:00000000000001c8 .L0 
     /tmp/ccN0J4sw.s:341    .text:00000000000001cc .L0 
     /tmp/ccN0J4sw.s:343    .text:00000000000001d0 .L0 
     /tmp/ccN0J4sw.s:348    .text:00000000000001d4 .L0 
     /tmp/ccN0J4sw.s:353    .text:00000000000001d8 .L0 
     /tmp/ccN0J4sw.s:354    .text:00000000000001d8 .L0 
     /tmp/ccN0J4sw.s:357    .text:00000000000001dc .L0 
     /tmp/ccN0J4sw.s:360    .text:00000000000001e0 .L0 
     /tmp/ccN0J4sw.s:367    .text:00000000000001e8 .L0 
     /tmp/ccN0J4sw.s:368    .text:00000000000001e8 .L0 
     /tmp/ccN0J4sw.s:370    .text:00000000000001f0 .L0 
     /tmp/ccN0J4sw.s:372    .text:00000000000001f4 .L0 
     /tmp/ccN0J4sw.s:373    .text:00000000000001f4 .L0 
     /tmp/ccN0J4sw.s:375    .text:00000000000001f8 .L0 
     /tmp/ccN0J4sw.s:378    .text:00000000000001fc .L0 
     /tmp/ccN0J4sw.s:380    .text:0000000000000200 .L0 
     /tmp/ccN0J4sw.s:382    .text:0000000000000204 .L0 
     /tmp/ccN0J4sw.s:388    .text:0000000000000204 _ZN10KsemaphoredlEPv
     /tmp/ccN0J4sw.s:391    .text:0000000000000204 .L0 
     /tmp/ccN0J4sw.s:393    .text:0000000000000204 .L0 
     /tmp/ccN0J4sw.s:394    .text:0000000000000208 .L0 
     /tmp/ccN0J4sw.s:397    .text:0000000000000210 .L0 
     /tmp/ccN0J4sw.s:398    .text:0000000000000210 .L0 
     /tmp/ccN0J4sw.s:400    .text:0000000000000214 .L0 
     /tmp/ccN0J4sw.s:402    .text:0000000000000214 .L0 
     /tmp/ccN0J4sw.s:403    .text:0000000000000214 .L0 
     /tmp/ccN0J4sw.s:406    .text:000000000000021c .L0 
     /tmp/ccN0J4sw.s:407    .text:000000000000021c .L0 
     /tmp/ccN0J4sw.s:408    .text:0000000000000220 .L0 
     /tmp/ccN0J4sw.s:410    .text:0000000000000224 .L0 
     /tmp/ccN0J4sw.s:411    .text:0000000000000224 .L0 
     /tmp/ccN0J4sw.s:413    .text:0000000000000228 .L0 
     /tmp/ccN0J4sw.s:415    .text:000000000000022c .L0 
     /tmp/ccN0J4sw.s:421    .text:000000000000022c _ZN10KsemaphorenwEm
     /tmp/ccN0J4sw.s:424    .text:000000000000022c .L0 
     /tmp/ccN0J4sw.s:426    .text:000000000000022c .L0 
     /tmp/ccN0J4sw.s:427    .text:0000000000000230 .L0 
     /tmp/ccN0J4sw.s:430    .text:0000000000000238 .L0 
     /tmp/ccN0J4sw.s:431    .text:0000000000000238 .L0 
     /tmp/ccN0J4sw.s:433    .text:000000000000023c .L0 
     /tmp/ccN0J4sw.s:435    .text:000000000000023c .L0 
GAS LISTING /tmp/ccN0J4sw.s 			page 16


     /tmp/ccN0J4sw.s:436    .text:000000000000023c .L0 
     /tmp/ccN0J4sw.s:441    .text:0000000000000248 .L0 
     /tmp/ccN0J4sw.s:442    .text:000000000000024c .L0 
     /tmp/ccN0J4sw.s:444    .text:0000000000000250 .L0 
     /tmp/ccN0J4sw.s:445    .text:0000000000000250 .L0 
     /tmp/ccN0J4sw.s:447    .text:0000000000000254 .L0 
     /tmp/ccN0J4sw.s:449    .text:0000000000000258 .L0 
     /tmp/ccN0J4sw.s:455    .text:0000000000000258 _ZN10Ksemaphore15createSemaphoreEj
     /tmp/ccN0J4sw.s:458    .text:0000000000000258 .L0 
     /tmp/ccN0J4sw.s:460    .text:0000000000000258 .L0 
     /tmp/ccN0J4sw.s:461    .text:000000000000025c .L0 
     /tmp/ccN0J4sw.s:465    .text:0000000000000268 .L0 
     /tmp/ccN0J4sw.s:466    .text:0000000000000268 .L0 
     /tmp/ccN0J4sw.s:467    .text:0000000000000268 .L0 
     /tmp/ccN0J4sw.s:469    .text:000000000000026c .L0 
     /tmp/ccN0J4sw.s:472    .text:0000000000000270 .L0 
     /tmp/ccN0J4sw.s:473    .text:0000000000000270 .L0 
     /tmp/ccN0J4sw.s:481    .text:000000000000027c .L0 
     /tmp/ccN0J4sw.s:486    .text:0000000000000280 .L0 
     /tmp/ccN0J4sw.s:494    .text:0000000000000288 .L0 
     /tmp/ccN0J4sw.s:495    .text:0000000000000288 .L0 
     /tmp/ccN0J4sw.s:496    .text:0000000000000288 .L0 
     /tmp/ccN0J4sw.s:497    .text:000000000000028c .L0 
     /tmp/ccN0J4sw.s:499    .text:0000000000000290 .L0 
     /tmp/ccN0J4sw.s:500    .text:0000000000000290 .L0 
     /tmp/ccN0J4sw.s:502    .text:0000000000000294 .L0 
     /tmp/ccN0J4sw.s:504    .text:0000000000000298 .L0 
     /tmp/ccN0J4sw.s:506    .text:000000000000029c .L0 
     /tmp/ccN0J4sw.s:514    .text:000000000000029c .L0 
     /tmp/ccN0J4sw.s:30     .text:000000000000001c .L0 
     /tmp/ccN0J4sw.s:67     .text:0000000000000054 .L0 
     /tmp/ccN0J4sw.s:92     .text:0000000000000088 .L2
     /tmp/ccN0J4sw.s:58     .text:000000000000004c .L3
     /tmp/ccN0J4sw.s:177    .text:00000000000000f4 .L8
     /tmp/ccN0J4sw.s:169    .text:00000000000000ec .L10
     /tmp/ccN0J4sw.s:140    .text:00000000000000c0 .L7
     /tmp/ccN0J4sw.s:147    .text:00000000000000cc .L6
     /tmp/ccN0J4sw.s:209    .text:0000000000000118 .L17
     /tmp/ccN0J4sw.s:261    .text:0000000000000160 .L25
     /tmp/ccN0J4sw.s:332    .text:00000000000001c8 .L29
     /tmp/ccN0J4sw.s:363    .text:00000000000001e8 .L27
     /tmp/ccN0J4sw.s:318    .text:00000000000001b0 .L28
     /tmp/ccN0J4sw.s:313    .text:00000000000001ac .L31
     /tmp/ccN0J4sw.s:2067   .debug_abbrev:0000000000000000 .Ldebug_abbrev0
     /tmp/ccN0J4sw.s:3848   .debug_str:0000000000000805 .LASF140
     /tmp/ccN0J4sw.s:3608   .debug_str:0000000000000035 .LASF141
     /tmp/ccN0J4sw.s:3686   .debug_str:0000000000000301 .LASF142
     /tmp/ccN0J4sw.s:5      .text:0000000000000000 .Ltext0
     /tmp/ccN0J4sw.s:509    .text:000000000000029c .Letext0
     /tmp/ccN0J4sw.s:3600   .debug_line:0000000000000000 .Ldebug_line0
     /tmp/ccN0J4sw.s:3774   .debug_str:00000000000005e2 .LASF0
     /tmp/ccN0J4sw.s:3788   .debug_str:0000000000000645 .LASF1
     /tmp/ccN0J4sw.s:3748   .debug_str:000000000000050a .LASF2
     /tmp/ccN0J4sw.s:3716   .debug_str:0000000000000431 .LASF4
     /tmp/ccN0J4sw.s:3832   .debug_str:0000000000000793 .LASF3
     /tmp/ccN0J4sw.s:3624   .debug_str:00000000000000c5 .LASF5
     /tmp/ccN0J4sw.s:3790   .debug_str:0000000000000658 .LASF6
GAS LISTING /tmp/ccN0J4sw.s 			page 17


     /tmp/ccN0J4sw.s:3772   .debug_str:00000000000005cf .LASF7
     /tmp/ccN0J4sw.s:3862   .debug_str:0000000000000905 .LASF8
     /tmp/ccN0J4sw.s:3696   .debug_str:0000000000000364 .LASF9
     /tmp/ccN0J4sw.s:3802   .debug_str:00000000000006a5 .LASF10
     /tmp/ccN0J4sw.s:3854   .debug_str:00000000000008db .LASF11
     /tmp/ccN0J4sw.s:3628   .debug_str:00000000000000d3 .LASF12
     /tmp/ccN0J4sw.s:3610   .debug_str:0000000000000048 .LASF13
     /tmp/ccN0J4sw.s:3642   .debug_str:000000000000014d .LASF14
     /tmp/ccN0J4sw.s:3824   .debug_str:000000000000076c .LASF15
     /tmp/ccN0J4sw.s:3656   .debug_str:000000000000020e .LASF16
     /tmp/ccN0J4sw.s:3744   .debug_str:00000000000004e1 .LASF30
     /tmp/ccN0J4sw.s:3868   .debug_str:0000000000000934 .LASF44
     /tmp/ccN0J4sw.s:3892   .debug_str:0000000000000a08 .LASF17
     /tmp/ccN0J4sw.s:3876   .debug_str:0000000000000967 .LASF18
     /tmp/ccN0J4sw.s:3844   .debug_str:00000000000007f7 .LASF19
     /tmp/ccN0J4sw.s:3720   .debug_str:0000000000000444 .LASF20
     /tmp/ccN0J4sw.s:3756   .debug_str:000000000000054a .LASF21
     /tmp/ccN0J4sw.s:3838   .debug_str:00000000000007c4 .LASF22
     /tmp/ccN0J4sw.s:3852   .debug_str:00000000000008d5 .LASF23
     /tmp/ccN0J4sw.s:3784   .debug_str:000000000000061e .LASF25
     /tmp/ccN0J4sw.s:3786   .debug_str:000000000000063b .LASF24
     /tmp/ccN0J4sw.s:3882   .debug_str:0000000000000996 .LASF26
     /tmp/ccN0J4sw.s:3644   .debug_str:0000000000000159 .LASF86
     /tmp/ccN0J4sw.s:3648   .debug_str:0000000000000173 .LASF88
     /tmp/ccN0J4sw.s:3626   .debug_str:00000000000000cc .LASF32
     /tmp/ccN0J4sw.s:3806   .debug_str:00000000000006bf .LASF34
     /tmp/ccN0J4sw.s:3680   .debug_str:00000000000002e4 .LASF27
     /tmp/ccN0J4sw.s:3818   .debug_str:0000000000000714 .LASF28
     /tmp/ccN0J4sw.s:3796   .debug_str:000000000000068f .LASF29
     /tmp/ccN0J4sw.s:3800   .debug_str:000000000000069b .LASF31
     /tmp/ccN0J4sw.s:3874   .debug_str:000000000000095a .LASF33
     /tmp/ccN0J4sw.s:3886   .debug_str:00000000000009bc .LASF35
     /tmp/ccN0J4sw.s:3840   .debug_str:00000000000007d2 .LASF36
     /tmp/ccN0J4sw.s:3778   .debug_str:00000000000005f8 .LASF37
     /tmp/ccN0J4sw.s:3688   .debug_str:000000000000031f .LASF38
     /tmp/ccN0J4sw.s:3780   .debug_str:000000000000060b .LASF39
     /tmp/ccN0J4sw.s:3836   .debug_str:00000000000007b2 .LASF40
     /tmp/ccN0J4sw.s:3708   .debug_str:00000000000003dd .LASF143
     /tmp/ccN0J4sw.s:3640   .debug_str:0000000000000135 .LASF144
     /tmp/ccN0J4sw.s:3850   .debug_str:00000000000008c9 .LASF41
     /tmp/ccN0J4sw.s:3662   .debug_str:000000000000022f .LASF42
     /tmp/ccN0J4sw.s:3740   .debug_str:00000000000004ca .LASF43
     /tmp/ccN0J4sw.s:3856   .debug_str:00000000000008ea .LASF45
     /tmp/ccN0J4sw.s:3816   .debug_str:000000000000070f .LASF46
     /tmp/ccN0J4sw.s:3764   .debug_str:0000000000000589 .LASF100
     /tmp/ccN0J4sw.s:3660   .debug_str:000000000000022a .LASF47
     /tmp/ccN0J4sw.s:3714   .debug_str:000000000000042c .LASF48
     /tmp/ccN0J4sw.s:3698   .debug_str:0000000000000372 .LASF49
     /tmp/ccN0J4sw.s:3822   .debug_str:0000000000000755 .LASF57
     /tmp/ccN0J4sw.s:3766   .debug_str:00000000000005a8 .LASF145
     /tmp/ccN0J4sw.s:3702   .debug_str:000000000000038a .LASF146
     /tmp/ccN0J4sw.s:3712   .debug_str:0000000000000419 .LASF50
     /tmp/ccN0J4sw.s:3636   .debug_str:0000000000000117 .LASF51
     /tmp/ccN0J4sw.s:3846   .debug_str:00000000000007fc .LASF52
     /tmp/ccN0J4sw.s:3670   .debug_str:00000000000002a0 .LASF53
     /tmp/ccN0J4sw.s:3694   .debug_str:000000000000035c .LASF54
     /tmp/ccN0J4sw.s:3666   .debug_str:0000000000000263 .LASF55
GAS LISTING /tmp/ccN0J4sw.s 			page 18


     /tmp/ccN0J4sw.s:3752   .debug_str:0000000000000524 .LASF56
     /tmp/ccN0J4sw.s:3604   .debug_str:0000000000000008 .LASF58
     /tmp/ccN0J4sw.s:3638   .debug_str:000000000000012b .LASF59
     /tmp/ccN0J4sw.s:3732   .debug_str:0000000000000487 .LASF60
     /tmp/ccN0J4sw.s:3858   .debug_str:00000000000008ef .LASF61
     /tmp/ccN0J4sw.s:3618   .debug_str:000000000000007b .LASF62
     /tmp/ccN0J4sw.s:3736   .debug_str:00000000000004b3 .LASF63
     /tmp/ccN0J4sw.s:3878   .debug_str:000000000000096c .LASF64
     /tmp/ccN0J4sw.s:3612   .debug_str:0000000000000058 .LASF65
     /tmp/ccN0J4sw.s:3738   .debug_str:00000000000004bc .LASF102
     /tmp/ccN0J4sw.s:3704   .debug_str:00000000000003a1 .LASF104
     /tmp/ccN0J4sw.s:3866   .debug_str:0000000000000928 .LASF92
     /tmp/ccN0J4sw.s:3672   .debug_str:00000000000002bd .LASF66
     /tmp/ccN0J4sw.s:3812   .debug_str:00000000000006fe .LASF67
     /tmp/ccN0J4sw.s:3792   .debug_str:000000000000066b .LASF68
     /tmp/ccN0J4sw.s:3652   .debug_str:00000000000001be .LASF69
     /tmp/ccN0J4sw.s:3750   .debug_str:0000000000000518 .LASF70
     /tmp/ccN0J4sw.s:3894   .debug_str:0000000000000a0d .LASF71
     /tmp/ccN0J4sw.s:3742   .debug_str:00000000000004d4 .LASF72
     /tmp/ccN0J4sw.s:3620   .debug_str:0000000000000098 .LASF73
     /tmp/ccN0J4sw.s:3814   .debug_str:000000000000070a .LASF147
     /tmp/ccN0J4sw.s:3768   .debug_str:00000000000005b2 .LASF74
     /tmp/ccN0J4sw.s:3726   .debug_str:0000000000000460 .LASF75
     /tmp/ccN0J4sw.s:3616   .debug_str:0000000000000074 .LASF76
     /tmp/ccN0J4sw.s:3734   .debug_str:00000000000004a2 .LASF77
     /tmp/ccN0J4sw.s:3718   .debug_str:0000000000000438 .LASF78
     /tmp/ccN0J4sw.s:3834   .debug_str:00000000000007a5 .LASF79
     /tmp/ccN0J4sw.s:3730   .debug_str:000000000000047a .LASF80
     /tmp/ccN0J4sw.s:3634   .debug_str:00000000000000f7 .LASF81
     /tmp/ccN0J4sw.s:3896   .debug_str:0000000000000a24 .LASF82
     /tmp/ccN0J4sw.s:3654   .debug_str:00000000000001d5 .LASF83
     /tmp/ccN0J4sw.s:3632   .debug_str:00000000000000e8 .LASF84
     /tmp/ccN0J4sw.s:3810   .debug_str:00000000000006e2 .LASF85
     /tmp/ccN0J4sw.s:3826   .debug_str:0000000000000782 .LASF87
     /tmp/ccN0J4sw.s:3760   .debug_str:0000000000000560 .LASF89
     /tmp/ccN0J4sw.s:3690   .debug_str:0000000000000330 .LASF90
     /tmp/ccN0J4sw.s:3668   .debug_str:000000000000027f .LASF91
     /tmp/ccN0J4sw.s:3676   .debug_str:00000000000002c8 .LASF148
     /tmp/ccN0J4sw.s:3770   .debug_str:00000000000005ba .LASF93
     /tmp/ccN0J4sw.s:3724   .debug_str:000000000000045b .LASF94
     /tmp/ccN0J4sw.s:3646   .debug_str:000000000000016d .LASF95
     /tmp/ccN0J4sw.s:3728   .debug_str:0000000000000472 .LASF96
     /tmp/ccN0J4sw.s:3782   .debug_str:0000000000000614 .LASF97
     /tmp/ccN0J4sw.s:3722   .debug_str:0000000000000452 .LASF98
     /tmp/ccN0J4sw.s:3870   .debug_str:0000000000000944 .LASF99
     /tmp/ccN0J4sw.s:3710   .debug_str:00000000000003f1 .LASF101
     /tmp/ccN0J4sw.s:3776   .debug_str:00000000000005ef .LASF103
     /tmp/ccN0J4sw.s:3682   .debug_str:00000000000002e9 .LASF105
     /tmp/ccN0J4sw.s:3746   .debug_str:00000000000004f1 .LASF106
     /tmp/ccN0J4sw.s:3820   .debug_str:0000000000000731 .LASF107
     /tmp/ccN0J4sw.s:3804   .debug_str:00000000000006b4 .LASF108
     /tmp/ccN0J4sw.s:3692   .debug_str:0000000000000346 .LASF109
     /tmp/ccN0J4sw.s:3758   .debug_str:000000000000054f .LASF110
     /tmp/ccN0J4sw.s:3684   .debug_str:00000000000002fc .LASF111
     /tmp/ccN0J4sw.s:3860   .debug_str:00000000000008fa .LASF112
     /tmp/ccN0J4sw.s:3622   .debug_str:00000000000000b1 .LASF113
     /tmp/ccN0J4sw.s:3630   .debug_str:00000000000000e3 .LASF114
GAS LISTING /tmp/ccN0J4sw.s 			page 19


     /tmp/ccN0J4sw.s:3664   .debug_str:000000000000024c .LASF115
     /tmp/ccN0J4sw.s:3798   .debug_str:0000000000000694 .LASF116
     /tmp/ccN0J4sw.s:3762   .debug_str:0000000000000570 .LASF117
     /tmp/ccN0J4sw.s:3658   .debug_str:0000000000000224 .LASF118
     /tmp/ccN0J4sw.s:3794   .debug_str:0000000000000676 .LASF119
     /tmp/ccN0J4sw.s:3880   .debug_str:0000000000000986 .LASF120
     /tmp/ccN0J4sw.s:3706   .debug_str:00000000000003ba .LASF121
     /tmp/ccN0J4sw.s:3606   .debug_str:0000000000000026 .LASF122
     /tmp/ccN0J4sw.s:3890   .debug_str:00000000000009e6 .LASF123
     /tmp/ccN0J4sw.s:3674   .debug_str:00000000000002c2 .LASF124
     /tmp/ccN0J4sw.s:3888   .debug_str:00000000000009ce .LASF125
     /tmp/ccN0J4sw.s:3872   .debug_str:0000000000000952 .LASF126
     /tmp/ccN0J4sw.s:3754   .debug_str:0000000000000530 .LASF127
     /tmp/ccN0J4sw.s:3614   .debug_str:0000000000000060 .LASF128
     /tmp/ccN0J4sw.s:3842   .debug_str:00000000000007e2 .LASF129
     /tmp/ccN0J4sw.s:3602   .debug_str:0000000000000000 .LASF130
     /tmp/ccN0J4sw.s:3808   .debug_str:00000000000006dd .LASF131
     /tmp/ccN0J4sw.s:3650   .debug_str:000000000000019f .LASF133
     /tmp/ccN0J4sw.s:3828   .debug_str:0000000000000788 .LASF132
     /tmp/ccN0J4sw.s:3864   .debug_str:0000000000000915 .LASF134
     /tmp/ccN0J4sw.s:422    .text:000000000000022c .LFB37
     /tmp/ccN0J4sw.s:450    .text:0000000000000258 .LFE37
     /tmp/ccN0J4sw.s:3201   .debug_loc:0000000000000000 .LLST22
     /tmp/ccN0J4sw.s:439    .text:0000000000000248 .LVL44
     /tmp/ccN0J4sw.s:389    .text:0000000000000204 .LFB36
     /tmp/ccN0J4sw.s:416    .text:000000000000022c .LFE36
     /tmp/ccN0J4sw.s:3215   .debug_loc:0000000000000039 .LLST21
     /tmp/ccN0J4sw.s:404    .text:000000000000021c .LVL41
     /tmp/ccN0J4sw.s:294    .text:000000000000018c .LFB35
     /tmp/ccN0J4sw.s:383    .text:0000000000000204 .LFE35
     /tmp/ccN0J4sw.s:3229   .debug_loc:0000000000000072 .LLST15
     /tmp/ccN0J4sw.s:3247   .debug_loc:00000000000000be .LLST16
     /tmp/ccN0J4sw.s:314    .text:00000000000001ac .LBB36
     /tmp/ccN0J4sw.s:3580   .debug_ranges:0000000000000000 .Ldebug_ranges0
     /tmp/ccN0J4sw.s:3263   .debug_loc:0000000000000108 .LLST17
     /tmp/ccN0J4sw.s:3278   .debug_loc:0000000000000142 .LLST18
     /tmp/ccN0J4sw.s:3289   .debug_loc:0000000000000178 .LLST19
     /tmp/ccN0J4sw.s:324    .text:00000000000001bc .LVL32
     /tmp/ccN0J4sw.s:336    .text:00000000000001c8 .LBB39
     /tmp/ccN0J4sw.s:346    .text:00000000000001d4 .LBE39
     /tmp/ccN0J4sw.s:3296   .debug_loc:000000000000019b .LLST20
     /tmp/ccN0J4sw.s:331    .text:00000000000001c8 .LVL33
     /tmp/ccN0J4sw.s:456    .text:0000000000000258 .LFB34
     /tmp/ccN0J4sw.s:507    .text:000000000000029c .LFE34
     /tmp/ccN0J4sw.s:3700   .debug_str:0000000000000385 .LASF135
     /tmp/ccN0J4sw.s:3305   .debug_loc:00000000000001c0 .LLST23
     /tmp/ccN0J4sw.s:3884   .debug_str:00000000000009b7 .LASF136
     /tmp/ccN0J4sw.s:477    .text:000000000000027c .LBB42
     /tmp/ccN0J4sw.s:492    .text:0000000000000288 .LBE42
     /tmp/ccN0J4sw.s:3319   .debug_loc:00000000000001f9 .LLST24
     /tmp/ccN0J4sw.s:3326   .debug_loc:000000000000021c .LLST25
     /tmp/ccN0J4sw.s:483    .text:0000000000000280 .LBB44
     /tmp/ccN0J4sw.s:490    .text:0000000000000288 .LBE44
     /tmp/ccN0J4sw.s:3333   .debug_loc:000000000000023f .LLST26
     /tmp/ccN0J4sw.s:476    .text:000000000000027c .LVL47
     /tmp/ccN0J4sw.s:241    .text:0000000000000144 .LFB33
     /tmp/ccN0J4sw.s:288    .text:000000000000018c .LFE33
GAS LISTING /tmp/ccN0J4sw.s 			page 20


     /tmp/ccN0J4sw.s:3342   .debug_loc:0000000000000264 .LLST14
     /tmp/ccN0J4sw.s:274    .text:0000000000000178 .LVL28
     /tmp/ccN0J4sw.s:190    .text:00000000000000fc .LFB32
     /tmp/ccN0J4sw.s:235    .text:0000000000000144 .LFE32
     /tmp/ccN0J4sw.s:3367   .debug_loc:00000000000002c6 .LLST13
     /tmp/ccN0J4sw.s:222    .text:0000000000000130 .LVL24
     /tmp/ccN0J4sw.s:109    .text:0000000000000094 .LFB31
     /tmp/ccN0J4sw.s:184    .text:00000000000000fc .LFE31
     /tmp/ccN0J4sw.s:3392   .debug_loc:0000000000000328 .LLST8
     /tmp/ccN0J4sw.s:3414   .debug_loc:0000000000000387 .LLST9
     /tmp/ccN0J4sw.s:126    .text:00000000000000ac .LBB32
     /tmp/ccN0J4sw.s:3421   .debug_loc:00000000000003aa .LLST10
     /tmp/ccN0J4sw.s:3451   .debug_loc:0000000000000411 .LLST11
     /tmp/ccN0J4sw.s:3462   .debug_loc:0000000000000447 .LLST12
     /tmp/ccN0J4sw.s:146    .text:00000000000000cc .LVL16
     /tmp/ccN0J4sw.s:154    .text:00000000000000d8 .LVL17
     /tmp/ccN0J4sw.s:10     .text:0000000000000000 .LFB30
     /tmp/ccN0J4sw.s:103    .text:0000000000000094 .LFE30
     /tmp/ccN0J4sw.s:3469   .debug_loc:000000000000046a .LLST0
     /tmp/ccN0J4sw.s:3491   .debug_loc:00000000000004c9 .LLST1
     /tmp/ccN0J4sw.s:34     .text:0000000000000028 .LBB26
     /tmp/ccN0J4sw.s:3502   .debug_loc:00000000000004ff .LLST2
     /tmp/ccN0J4sw.s:3513   .debug_loc:0000000000000535 .LLST3
     /tmp/ccN0J4sw.s:3534   .debug_loc:0000000000000584 .LLST4
     /tmp/ccN0J4sw.s:42     .text:0000000000000034 .LBB28
     /tmp/ccN0J4sw.s:49     .text:000000000000003c .LBE28
     /tmp/ccN0J4sw.s:3545   .debug_loc:00000000000005ba .LLST5
     /tmp/ccN0J4sw.s:3553   .debug_loc:00000000000005de .LLST6
     /tmp/ccN0J4sw.s:3560   .debug_loc:0000000000000601 .LLST7
     /tmp/ccN0J4sw.s:41     .text:0000000000000034 .LVL3
     /tmp/ccN0J4sw.s:65     .text:0000000000000054 .LVL6
     /tmp/ccN0J4sw.s:74     .text:0000000000000070 .LVL7
     /tmp/ccN0J4sw.s:3678   .debug_str:00000000000002d0 .LASF137
     /tmp/ccN0J4sw.s:3898   .debug_str:0000000000000a4a .LASF138
     /tmp/ccN0J4sw.s:3830   .debug_str:000000000000078d .LASF139
     /tmp/ccN0J4sw.s:425    .text:000000000000022c .LVL42
     /tmp/ccN0J4sw.s:437    .text:0000000000000240 .LVL43
     /tmp/ccN0J4sw.s:392    .text:0000000000000204 .LVL40
     /tmp/ccN0J4sw.s:297    .text:000000000000018c .LVL29
     /tmp/ccN0J4sw.s:312    .text:00000000000001ac .LVL30
     /tmp/ccN0J4sw.s:376    .text:00000000000001f8 .LVL39
     /tmp/ccN0J4sw.s:344    .text:00000000000001d4 .LVL34
     /tmp/ccN0J4sw.s:355    .text:00000000000001dc .LVL36
     /tmp/ccN0J4sw.s:358    .text:00000000000001e0 .LVL37
     /tmp/ccN0J4sw.s:350    .text:00000000000001d8 .LVL35
     /tmp/ccN0J4sw.s:362    .text:00000000000001e8 .LVL38
     /tmp/ccN0J4sw.s:321    .text:00000000000001b4 .LVL31
     /tmp/ccN0J4sw.s:459    .text:0000000000000258 .LVL45
     /tmp/ccN0J4sw.s:474    .text:0000000000000274 .LVL46
     /tmp/ccN0J4sw.s:488    .text:0000000000000288 .LVL49
     /tmp/ccN0J4sw.s:482    .text:0000000000000280 .LVL48
     /tmp/ccN0J4sw.s:244    .text:0000000000000144 .LVL25
     /tmp/ccN0J4sw.s:257    .text:000000000000015c .LVL26
     /tmp/ccN0J4sw.s:260    .text:0000000000000160 .LVL27
     /tmp/ccN0J4sw.s:193    .text:00000000000000fc .LVL21
     /tmp/ccN0J4sw.s:206    .text:0000000000000114 .LVL22
     /tmp/ccN0J4sw.s:208    .text:0000000000000118 .LVL23
GAS LISTING /tmp/ccN0J4sw.s 			page 21


     /tmp/ccN0J4sw.s:112    .text:0000000000000094 .LVL11
     /tmp/ccN0J4sw.s:130    .text:00000000000000b0 .LVL13
     /tmp/ccN0J4sw.s:168    .text:00000000000000ec .LVL19
     /tmp/ccN0J4sw.s:164    .text:00000000000000e4 .LVL18
     /tmp/ccN0J4sw.s:125    .text:00000000000000ac .LVL12
     /tmp/ccN0J4sw.s:133    .text:00000000000000b4 .LVL14
     /tmp/ccN0J4sw.s:176    .text:00000000000000f4 .LVL20
     /tmp/ccN0J4sw.s:143    .text:00000000000000c4 .LVL15
     /tmp/ccN0J4sw.s:14     .text:0000000000000000 .LVL0
     /tmp/ccN0J4sw.s:39     .text:000000000000002c .LVL2
     /tmp/ccN0J4sw.s:84     .text:000000000000007c .LVL8
     /tmp/ccN0J4sw.s:91     .text:0000000000000088 .LVL10
     /tmp/ccN0J4sw.s:32     .text:0000000000000028 .LVL1
     /tmp/ccN0J4sw.s:87     .text:0000000000000080 .LVL9
     /tmp/ccN0J4sw.s:59     .text:000000000000004c .LVL5
     /tmp/ccN0J4sw.s:47     .text:000000000000003c .LVL4
     /tmp/ccN0J4sw.s:515    .debug_info:0000000000000000 .Ldebug_info0
     /tmp/ccN0J4sw.s:61     .text:000000000000004c .LBE26
     /tmp/ccN0J4sw.s:94     .text:0000000000000088 .LBB31
     /tmp/ccN0J4sw.s:101    .text:0000000000000094 .LBE31
     /tmp/ccN0J4sw.s:149    .text:00000000000000cc .LBE32
     /tmp/ccN0J4sw.s:171    .text:00000000000000ec .LBB35
     /tmp/ccN0J4sw.s:182    .text:00000000000000fc .LBE35
     /tmp/ccN0J4sw.s:326    .text:00000000000001bc .LBE36
     /tmp/ccN0J4sw.s:351    .text:00000000000001d8 .LBB41
     /tmp/ccN0J4sw.s:365    .text:00000000000001e8 .LBE41

UNDEFINED SYMBOLS
_ZN3TCB7runningE
_Znwm
_ZN9Scheduler3getEv
_ZN3TCB13contextSwitchEPNS_7ContextES1_
_ZdlPv
_ZN9Scheduler3putEP3TCB
_ZN15MemoryAllocator4freeEPv
_ZN15MemoryAllocator6mallocEm
