GAS LISTING /tmp/ccnHQPl6.s 			page 1


   1              		.file	"Ksemaphore.cpp"
   2              		.option pic
   3              		.option norelax
   4              		.text
   5              	.Ltext0:
   6              		.align	2
   7              		.globl	_ZN10Ksemaphore5blockEv
   9              	_ZN10Ksemaphore5blockEv:
  10              	.LFB30:
  11              		.file 1 "src/Ksemaphore.cpp"
   1:src/Ksemaphore.cpp **** #include "../h/Ksemaphore.hpp"
   2:src/Ksemaphore.cpp **** 
   3:src/Ksemaphore.cpp **** void Ksemaphore::block() {
  12              		.loc 1 3 26
  13              		.cfi_startproc
  14              	.LVL0:
  15 0000 130101FE 		addi	sp,sp,-32
  16              		.cfi_def_cfa_offset 32
  17 0004 233C1100 		sd	ra,24(sp)
  18 0008 23388100 		sd	s0,16(sp)
  19 000c 23349100 		sd	s1,8(sp)
  20 0010 23302101 		sd	s2,0(sp)
  21              		.cfi_offset 1, -8
  22              		.cfi_offset 8, -16
  23              		.cfi_offset 9, -24
  24              		.cfi_offset 18, -32
  25 0014 13040102 		addi	s0,sp,32
  26              		.cfi_def_cfa 8, 0
  27 0018 93040500 		mv	s1,a0
   4:src/Ksemaphore.cpp ****     blocked.addLast(TCB::running);
  28              		.loc 1 4 5
  29              		.loc 1 4 20 is_stmt 0
  30 001c 97070000 		la	a5,_ZN3TCB7runningE
  30      83B70700 
  31 0024 03B90700 		ld	s2,0(a5)
  32              	.LVL1:
  33              	.LBB26:
  34              	.LBB27:
  35              		.file 2 "src/../h/list.hpp"
   1:src/../h/list.hpp **** //
   2:src/../h/list.hpp **** // Created by os on 8/27/22.
   3:src/../h/list.hpp **** //
   4:src/../h/list.hpp **** 
   5:src/../h/list.hpp **** #ifndef PROJECT_BASE_LIST_HPP
   6:src/../h/list.hpp **** #define PROJECT_BASE_LIST_HPP
   7:src/../h/list.hpp **** 
   8:src/../h/list.hpp **** #include "../lib/mem.h"
   9:src/../h/list.hpp **** #include "MemoryAllocator.hpp"
  10:src/../h/list.hpp **** 
  11:src/../h/list.hpp **** template<typename T>
  12:src/../h/list.hpp **** class List
  13:src/../h/list.hpp **** {
  14:src/../h/list.hpp **** private:
  15:src/../h/list.hpp ****     struct Elem
  16:src/../h/list.hpp ****     {
  17:src/../h/list.hpp ****         T *data;
  18:src/../h/list.hpp ****         Elem *next;
GAS LISTING /tmp/ccnHQPl6.s 			page 2


  19:src/../h/list.hpp **** 
  20:src/../h/list.hpp ****         Elem(T *data, Elem *next) : data(data), next(next) {}
  21:src/../h/list.hpp ****     };
  22:src/../h/list.hpp **** 
  23:src/../h/list.hpp ****     Elem *head, *tail;
  24:src/../h/list.hpp **** 
  25:src/../h/list.hpp **** public:
  26:src/../h/list.hpp ****     List() : head(0), tail(0) {}
  27:src/../h/list.hpp **** 
  28:src/../h/list.hpp ****     List(const List<T> &) = delete;
  29:src/../h/list.hpp **** 
  30:src/../h/list.hpp ****     List<T> &operator=(const List<T> &) = delete;
  31:src/../h/list.hpp ****     static void* operator new (size_t n);
  32:src/../h/list.hpp ****     static void operator delete (void* p);
  33:src/../h/list.hpp **** 
  34:src/../h/list.hpp ****     void addFirst(T *data)
  35:src/../h/list.hpp ****     {
  36:src/../h/list.hpp ****         Elem *elem = new Elem(data, head);
  37:src/../h/list.hpp ****         head = elem;
  38:src/../h/list.hpp ****         if (!tail) { tail = head; }
  39:src/../h/list.hpp ****     }
  40:src/../h/list.hpp **** 
  41:src/../h/list.hpp ****     void addLast(T *data)
  42:src/../h/list.hpp ****     {
  43:src/../h/list.hpp ****         Elem *elem = new Elem(data, 0);
  36              		.loc 2 43 22
  37 0028 13050001 		li	a0,16
  38              	.LVL2:
  39 002c 97000000 		call	_Znwm@plt
  39      E7800000 
  40              	.LVL3:
  41              	.LBB28:
  42              	.LBB29:
  20:src/../h/list.hpp ****     };
  43              		.loc 2 20 58
  44 0034 23302501 		sd	s2,0(a0)
  45 0038 23340500 		sd	zero,8(a0)
  46              	.LVL4:
  47              	.LBE29:
  48              	.LBE28:
  44:src/../h/list.hpp ****         if (tail)
  49              		.loc 2 44 13
  50 003c 83B70401 		ld	a5,16(s1)
  51              		.loc 2 44 9
  52 0040 63820702 		beqz	a5,.L2
  45:src/../h/list.hpp ****         {
  46:src/../h/list.hpp ****             tail->next = elem;
  53              		.loc 2 46 13
  54 0044 23B4A700 		sd	a0,8(a5)
  47:src/../h/list.hpp ****             tail = elem;
  55              		.loc 2 47 13
  56 0048 23B8A400 		sd	a0,16(s1)
  57              	.LVL5:
  58              	.L1:
  59              	.LBE27:
  60              	.LBE26:
   5:src/Ksemaphore.cpp **** }
GAS LISTING /tmp/ccnHQPl6.s 			page 3


  61              		.loc 1 5 1
  62 004c 83308101 		ld	ra,24(sp)
  63              		.cfi_remember_state
  64              		.cfi_restore 1
  65 0050 03340101 		ld	s0,16(sp)
  66              		.cfi_restore 8
  67              		.cfi_def_cfa 2, 32
  68 0054 83348100 		ld	s1,8(sp)
  69              		.cfi_restore 9
  70              	.LVL6:
  71 0058 03390100 		ld	s2,0(sp)
  72              		.cfi_restore 18
  73 005c 13010102 		addi	sp,sp,32
  74              		.cfi_def_cfa_offset 0
  75 0060 67800000 		jr	ra
  76              	.LVL7:
  77              	.L2:
  78              		.cfi_restore_state
  79              	.LBB31:
  80              	.LBB30:
  48:src/../h/list.hpp ****         } else
  49:src/../h/list.hpp ****         {
  50:src/../h/list.hpp ****             head = tail = elem;
  81              		.loc 2 50 13
  82 0064 23B8A400 		sd	a0,16(s1)
  83 0068 23B4A400 		sd	a0,8(s1)
  84              	.LVL8:
  85              	.LBE30:
  86              	.LBE31:
  87              		.loc 1 5 1
  88 006c 6FF01FFE 		j	.L1
  89              		.cfi_endproc
  90              	.LFE30:
  92              		.align	2
  93              		.globl	_ZN10Ksemaphore7unblockEv
  95              	_ZN10Ksemaphore7unblockEv:
  96              	.LFB31:
   6:src/Ksemaphore.cpp **** 
   7:src/Ksemaphore.cpp **** void Ksemaphore::unblock() {
  97              		.loc 1 7 28 is_stmt 1
  98              		.cfi_startproc
  99              	.LVL9:
 100 0070 130101FE 		addi	sp,sp,-32
 101              		.cfi_def_cfa_offset 32
 102 0074 233C1100 		sd	ra,24(sp)
 103 0078 23388100 		sd	s0,16(sp)
 104 007c 23349100 		sd	s1,8(sp)
 105              		.cfi_offset 1, -8
 106              		.cfi_offset 8, -16
 107              		.cfi_offset 9, -24
 108 0080 13040102 		addi	s0,sp,32
 109              		.cfi_def_cfa 8, 0
 110 0084 93070500 		mv	a5,a0
   8:src/Ksemaphore.cpp ****     TCB *t = blocked.removeFirst();
 111              		.loc 1 8 5
 112              	.LVL10:
 113              	.LBB32:
GAS LISTING /tmp/ccnHQPl6.s 			page 4


 114              	.LBB33:
  51:src/../h/list.hpp ****         }
  52:src/../h/list.hpp ****     }
  53:src/../h/list.hpp **** 
  54:src/../h/list.hpp ****     T *removeFirst()
  55:src/../h/list.hpp ****     {
  56:src/../h/list.hpp ****         if (!head) { return 0; }
 115              		.loc 2 56 14 is_stmt 0
 116 0088 03358500 		ld	a0,8(a0)
 117              	.LVL11:
 118              		.loc 2 56 9
 119 008c 63020504 		beqz	a0,.L8
 120              	.LVL12:
  57:src/../h/list.hpp **** 
  58:src/../h/list.hpp ****         Elem *elem = head;
  59:src/../h/list.hpp ****         head = head->next;
 121              		.loc 2 59 22
 122 0090 03378500 		ld	a4,8(a0)
 123              		.loc 2 59 9
 124 0094 23B4E700 		sd	a4,8(a5)
  60:src/../h/list.hpp ****         if (!head) { tail = 0; }
 125              		.loc 2 60 9
 126 0098 63080702 		beqz	a4,.L10
 127              	.L7:
  61:src/../h/list.hpp **** 
  62:src/../h/list.hpp ****         T *ret = elem->data;
 128              		.loc 2 62 12
 129 009c 83340500 		ld	s1,0(a0)
 130              	.LVL13:
  63:src/../h/list.hpp ****         delete elem;
 131              		.loc 2 63 9
 132 00a0 97000000 		call	_ZdlPv@plt
 132      E7800000 
 133              	.LVL14:
 134              	.L6:
 135              	.LBE33:
 136              	.LBE32:
   9:src/Ksemaphore.cpp ****     Scheduler::put(t);
 137              		.loc 1 9 5 is_stmt 1
 138              		.loc 1 9 19 is_stmt 0
 139 00a8 13850400 		mv	a0,s1
 140 00ac 97000000 		call	_ZN9Scheduler3putEP3TCB@plt
 140      E7800000 
 141              	.LVL15:
  10:src/Ksemaphore.cpp **** }
 142              		.loc 1 10 1
 143 00b4 83308101 		ld	ra,24(sp)
 144              		.cfi_remember_state
 145              		.cfi_restore 1
 146 00b8 03340101 		ld	s0,16(sp)
 147              		.cfi_restore 8
 148              		.cfi_def_cfa 2, 32
 149 00bc 83348100 		ld	s1,8(sp)
 150              		.cfi_restore 9
 151              	.LVL16:
 152 00c0 13010102 		addi	sp,sp,32
 153              		.cfi_def_cfa_offset 0
GAS LISTING /tmp/ccnHQPl6.s 			page 5


 154 00c4 67800000 		jr	ra
 155              	.LVL17:
 156              	.L10:
 157              		.cfi_restore_state
 158              	.LBB35:
 159              	.LBB34:
  60:src/../h/list.hpp **** 
 160              		.loc 2 60 22
 161 00c8 23B80700 		sd	zero,16(a5)
 162 00cc 6FF01FFD 		j	.L7
 163              	.LVL18:
 164              	.L8:
  56:src/../h/list.hpp **** 
 165              		.loc 2 56 29
 166 00d0 93040500 		mv	s1,a0
 167 00d4 6FF05FFD 		j	.L6
 168              	.LBE34:
 169              	.LBE35:
 170              		.cfi_endproc
 171              	.LFE31:
 173              		.align	2
 174              		.globl	_ZN10Ksemaphore4waitEv
 176              	_ZN10Ksemaphore4waitEv:
 177              	.LFB32:
  11:src/Ksemaphore.cpp **** 
  12:src/Ksemaphore.cpp **** int Ksemaphore::wait() {
 178              		.loc 1 12 24 is_stmt 1
 179              		.cfi_startproc
 180              	.LVL19:
  13:src/Ksemaphore.cpp ****     if(--val<0){
 181              		.loc 1 13 5
 182              		.loc 1 13 10 is_stmt 0
 183 00d8 83270500 		lw	a5,0(a0)
 184              		.loc 1 13 8
 185 00dc 9B87F7FF 		addiw	a5,a5,-1
 186              		.loc 1 13 13
 187 00e0 2320F500 		sw	a5,0(a0)
 188              		.loc 1 13 5
 189 00e4 13970702 		slli	a4,a5,32
 190 00e8 635C0702 		bgez	a4,.L13
  12:src/Ksemaphore.cpp ****     if(--val<0){
 191              		.loc 1 12 24
 192 00ec 130101FF 		addi	sp,sp,-16
 193              		.cfi_def_cfa_offset 16
 194 00f0 23341100 		sd	ra,8(sp)
 195 00f4 23308100 		sd	s0,0(sp)
 196              		.cfi_offset 1, -8
 197              		.cfi_offset 8, -16
 198 00f8 13040101 		addi	s0,sp,16
 199              		.cfi_def_cfa 8, 0
  14:src/Ksemaphore.cpp ****         block();
 200              		.loc 1 14 9 is_stmt 1
 201              		.loc 1 14 14 is_stmt 0
 202 00fc 97000000 		call	_ZN10Ksemaphore5blockEv
 202      E7800000 
 203              	.LVL20:
  15:src/Ksemaphore.cpp **** //        TCB::yieldWithoutScheduler();
GAS LISTING /tmp/ccnHQPl6.s 			page 6


  16:src/Ksemaphore.cpp ****         TCB::dispatchWithoutScheduler();
 204              		.loc 1 16 9 is_stmt 1
 205              		.loc 1 16 38 is_stmt 0
 206 0104 97000000 		call	_ZN3TCB24dispatchWithoutSchedulerEv@plt
 206      E7800000 
 207              	.LVL21:
  17:src/Ksemaphore.cpp ****         return 0;
 208              		.loc 1 17 9 is_stmt 1
 209              		.loc 1 17 16 is_stmt 0
 210 010c 13050000 		li	a0,0
  18:src/Ksemaphore.cpp ****     }
  19:src/Ksemaphore.cpp ****     return -1;
  20:src/Ksemaphore.cpp **** }
 211              		.loc 1 20 1
 212 0110 83308100 		ld	ra,8(sp)
 213              		.cfi_restore 1
 214 0114 03340100 		ld	s0,0(sp)
 215              		.cfi_restore 8
 216              		.cfi_def_cfa 2, 16
 217 0118 13010101 		addi	sp,sp,16
 218              		.cfi_def_cfa_offset 0
 219 011c 67800000 		jr	ra
 220              	.LVL22:
 221              	.L13:
  19:src/Ksemaphore.cpp **** }
 222              		.loc 1 19 13
 223 0120 1305F0FF 		li	a0,-1
 224              	.LVL23:
 225              		.loc 1 20 1
 226 0124 67800000 		ret
 227              		.cfi_endproc
 228              	.LFE32:
 230              		.align	2
 231              		.globl	_ZN10Ksemaphore6signalEv
 233              	_ZN10Ksemaphore6signalEv:
 234              	.LFB33:
  21:src/Ksemaphore.cpp **** 
  22:src/Ksemaphore.cpp **** int Ksemaphore::signal() {
 235              		.loc 1 22 26 is_stmt 1
 236              		.cfi_startproc
 237              	.LVL24:
  23:src/Ksemaphore.cpp ****     if(++val<=0) {
 238              		.loc 1 23 5
 239              		.loc 1 23 10 is_stmt 0
 240 0128 83270500 		lw	a5,0(a0)
 241              		.loc 1 23 8
 242 012c 9B871700 		addiw	a5,a5,1
 243 0130 1B870700 		sext.w	a4,a5
 244              		.loc 1 23 13
 245 0134 2320F500 		sw	a5,0(a0)
 246              		.loc 1 23 5
 247 0138 6348E002 		bgtz	a4,.L20
  22:src/Ksemaphore.cpp ****     if(++val<=0) {
 248              		.loc 1 22 26
 249 013c 130101FF 		addi	sp,sp,-16
 250              		.cfi_def_cfa_offset 16
 251 0140 23341100 		sd	ra,8(sp)
GAS LISTING /tmp/ccnHQPl6.s 			page 7


 252 0144 23308100 		sd	s0,0(sp)
 253              		.cfi_offset 1, -8
 254              		.cfi_offset 8, -16
 255 0148 13040101 		addi	s0,sp,16
 256              		.cfi_def_cfa 8, 0
  24:src/Ksemaphore.cpp ****         unblock();
 257              		.loc 1 24 9 is_stmt 1
 258              		.loc 1 24 16 is_stmt 0
 259 014c 97000000 		call	_ZN10Ksemaphore7unblockEv
 259      E7800000 
 260              	.LVL25:
  25:src/Ksemaphore.cpp ****         return 0;
 261              		.loc 1 25 9 is_stmt 1
 262              		.loc 1 25 16 is_stmt 0
 263 0154 13050000 		li	a0,0
  26:src/Ksemaphore.cpp ****     }
  27:src/Ksemaphore.cpp ****     return -1;
  28:src/Ksemaphore.cpp **** }
 264              		.loc 1 28 1
 265 0158 83308100 		ld	ra,8(sp)
 266              		.cfi_restore 1
 267 015c 03340100 		ld	s0,0(sp)
 268              		.cfi_restore 8
 269              		.cfi_def_cfa 2, 16
 270 0160 13010101 		addi	sp,sp,16
 271              		.cfi_def_cfa_offset 0
 272 0164 67800000 		jr	ra
 273              	.LVL26:
 274              	.L20:
  27:src/Ksemaphore.cpp **** }
 275              		.loc 1 27 13
 276 0168 1305F0FF 		li	a0,-1
 277              	.LVL27:
 278              		.loc 1 28 1
 279 016c 67800000 		ret
 280              		.cfi_endproc
 281              	.LFE33:
 283              		.align	2
 284              		.globl	_ZN10Ksemaphore14closeSemaphoreEv
 286              	_ZN10Ksemaphore14closeSemaphoreEv:
 287              	.LFB35:
  29:src/Ksemaphore.cpp **** 
  30:src/Ksemaphore.cpp **** Ksemaphore *Ksemaphore::createSemaphore(unsigned int init) {
  31:src/Ksemaphore.cpp ****     Ksemaphore* ksem = (Ksemaphore*) new Ksemaphore(init);
  32:src/Ksemaphore.cpp ****     ksem->val=init;
  33:src/Ksemaphore.cpp ****     return ksem;
  34:src/Ksemaphore.cpp **** }
  35:src/Ksemaphore.cpp **** 
  36:src/Ksemaphore.cpp **** int Ksemaphore::closeSemaphore(){
 288              		.loc 1 36 33 is_stmt 1
 289              		.cfi_startproc
 290              	.LVL28:
 291 0170 130101FE 		addi	sp,sp,-32
 292              		.cfi_def_cfa_offset 32
 293 0174 233C1100 		sd	ra,24(sp)
 294 0178 23388100 		sd	s0,16(sp)
 295 017c 23349100 		sd	s1,8(sp)
GAS LISTING /tmp/ccnHQPl6.s 			page 8


 296 0180 23302101 		sd	s2,0(sp)
 297              		.cfi_offset 1, -8
 298              		.cfi_offset 8, -16
 299              		.cfi_offset 9, -24
 300              		.cfi_offset 18, -32
 301 0184 13040102 		addi	s0,sp,32
 302              		.cfi_def_cfa 8, 0
 303 0188 93040500 		mv	s1,a0
 304 018c 6F000002 		j	.L28
 305              	.LVL29:
 306              	.L30:
 307              	.LBB36:
 308              	.LBB37:
  60:src/../h/list.hpp **** 
 309              		.loc 2 60 22 is_stmt 0
 310 0190 23B80400 		sd	zero,16(s1)
 311              	.L27:
  62:src/../h/list.hpp ****         delete elem;
 312              		.loc 2 62 12
 313 0194 03390500 		ld	s2,0(a0)
 314              	.LVL30:
 315              		.loc 2 63 9
 316 0198 97000000 		call	_ZdlPv@plt
 316      E7800000 
 317              	.LVL31:
 318              	.LBE37:
 319              	.LBE36:
  37:src/Ksemaphore.cpp ****     TCB* tcb;
  38:src/Ksemaphore.cpp ****     while(this->blocked.peekFirst()!= nullptr){
  39:src/Ksemaphore.cpp ****         tcb=this->blocked.removeFirst();
  40:src/Ksemaphore.cpp ****         Scheduler::put(tcb);
 320              		.loc 1 40 9 is_stmt 1
 321              		.loc 1 40 23 is_stmt 0
 322 01a0 13050900 		mv	a0,s2
 323 01a4 97000000 		call	_ZN9Scheduler3putEP3TCB@plt
 323      E7800000 
 324              	.LVL32:
 325              	.L28:
  37:src/Ksemaphore.cpp ****     TCB* tcb;
 326              		.loc 1 37 5 is_stmt 1
  38:src/Ksemaphore.cpp ****         tcb=this->blocked.removeFirst();
 327              		.loc 1 38 5
  38:src/Ksemaphore.cpp ****         tcb=this->blocked.removeFirst();
 328              		.loc 1 38 36
 329              	.LBB39:
 330              	.LBB40:
  64:src/../h/list.hpp ****         return ret;
  65:src/../h/list.hpp ****     }
  66:src/../h/list.hpp **** 
  67:src/../h/list.hpp ****     T *peekFirst()
  68:src/../h/list.hpp ****     {
  69:src/../h/list.hpp ****         if (!head) { return 0; }
 331              		.loc 2 69 14 is_stmt 0
 332 01ac 03B58400 		ld	a0,8(s1)
 333              		.loc 2 69 9
 334 01b0 630E0500 		beqz	a0,.L26
  70:src/../h/list.hpp ****         return head->data;
GAS LISTING /tmp/ccnHQPl6.s 			page 9


 335              		.loc 2 70 22
 336 01b4 83370500 		ld	a5,0(a0)
 337              	.LVL33:
 338              	.LBE40:
 339              	.LBE39:
  38:src/Ksemaphore.cpp ****         tcb=this->blocked.removeFirst();
 340              		.loc 1 38 36
 341 01b8 638A0700 		beqz	a5,.L26
  39:src/Ksemaphore.cpp ****         Scheduler::put(tcb);
 342              		.loc 1 39 9 is_stmt 1
 343              	.LVL34:
 344              	.LBB41:
 345              	.LBB38:
  59:src/../h/list.hpp ****         if (!head) { tail = 0; }
 346              		.loc 2 59 22 is_stmt 0
 347 01bc 83378500 		ld	a5,8(a0)
  59:src/../h/list.hpp ****         if (!head) { tail = 0; }
 348              		.loc 2 59 9
 349 01c0 23B4F400 		sd	a5,8(s1)
  60:src/../h/list.hpp **** 
 350              		.loc 2 60 9
 351 01c4 E39807FC 		bnez	a5,.L27
 352 01c8 6FF09FFC 		j	.L30
 353              	.LVL35:
 354              	.L26:
 355              	.LBE38:
 356              	.LBE41:
  41:src/Ksemaphore.cpp ****     }
  42:src/Ksemaphore.cpp ****     return 0;
 357              		.loc 1 42 5 is_stmt 1
  43:src/Ksemaphore.cpp **** }
 358              		.loc 1 43 1 is_stmt 0
 359 01cc 13050000 		li	a0,0
 360 01d0 83308101 		ld	ra,24(sp)
 361              		.cfi_restore 1
 362 01d4 03340101 		ld	s0,16(sp)
 363              		.cfi_restore 8
 364              		.cfi_def_cfa 2, 32
 365 01d8 83348100 		ld	s1,8(sp)
 366              		.cfi_restore 9
 367              	.LVL36:
 368 01dc 03390100 		ld	s2,0(sp)
 369              		.cfi_restore 18
 370 01e0 13010102 		addi	sp,sp,32
 371              		.cfi_def_cfa_offset 0
 372 01e4 67800000 		jr	ra
 373              		.cfi_endproc
 374              	.LFE35:
 376              		.align	2
 377              		.globl	_ZN10KsemaphoredlEPv
 379              	_ZN10KsemaphoredlEPv:
 380              	.LFB36:
  44:src/Ksemaphore.cpp **** void Ksemaphore::operator delete(void *p) {
 381              		.loc 1 44 43 is_stmt 1
 382              		.cfi_startproc
 383              	.LVL37:
 384 01e8 130101FF 		addi	sp,sp,-16
GAS LISTING /tmp/ccnHQPl6.s 			page 10


 385              		.cfi_def_cfa_offset 16
 386 01ec 23341100 		sd	ra,8(sp)
 387 01f0 23308100 		sd	s0,0(sp)
 388              		.cfi_offset 1, -8
 389              		.cfi_offset 8, -16
 390 01f4 13040101 		addi	s0,sp,16
 391              		.cfi_def_cfa 8, 0
  45:src/Ksemaphore.cpp ****     MemoryAllocator::free(p);
 392              		.loc 1 45 5
 393              		.loc 1 45 26 is_stmt 0
 394 01f8 97000000 		call	_ZN15MemoryAllocator4freeEPv@plt
 394      E7800000 
 395              	.LVL38:
  46:src/Ksemaphore.cpp ****     return;
 396              		.loc 1 46 5 is_stmt 1
  47:src/Ksemaphore.cpp **** }
 397              		.loc 1 47 1 is_stmt 0
 398 0200 83308100 		ld	ra,8(sp)
 399              		.cfi_restore 1
 400 0204 03340100 		ld	s0,0(sp)
 401              		.cfi_restore 8
 402              		.cfi_def_cfa 2, 16
 403 0208 13010101 		addi	sp,sp,16
 404              		.cfi_def_cfa_offset 0
 405 020c 67800000 		jr	ra
 406              		.cfi_endproc
 407              	.LFE36:
 409              		.align	2
 410              		.globl	_ZN10KsemaphorenwEm
 412              	_ZN10KsemaphorenwEm:
 413              	.LFB37:
  48:src/Ksemaphore.cpp **** 
  49:src/Ksemaphore.cpp **** void *Ksemaphore::operator new(size_t n) {
 414              		.loc 1 49 42 is_stmt 1
 415              		.cfi_startproc
 416              	.LVL39:
 417 0210 130101FF 		addi	sp,sp,-16
 418              		.cfi_def_cfa_offset 16
 419 0214 23341100 		sd	ra,8(sp)
 420 0218 23308100 		sd	s0,0(sp)
 421              		.cfi_offset 1, -8
 422              		.cfi_offset 8, -16
 423 021c 13040101 		addi	s0,sp,16
 424              		.cfi_def_cfa 8, 0
  50:src/Ksemaphore.cpp ****     return MemoryAllocator::malloc(sizeof (Ksemaphore));
 425              		.loc 1 50 5
 426              		.loc 1 50 35 is_stmt 0
 427 0220 13058001 		li	a0,24
 428              	.LVL40:
 429 0224 97000000 		call	_ZN15MemoryAllocator6mallocEm@plt
 429      E7800000 
 430              	.LVL41:
  51:src/Ksemaphore.cpp **** }
 431              		.loc 1 51 1
 432 022c 83308100 		ld	ra,8(sp)
 433              		.cfi_restore 1
 434 0230 03340100 		ld	s0,0(sp)
GAS LISTING /tmp/ccnHQPl6.s 			page 11


 435              		.cfi_restore 8
 436              		.cfi_def_cfa 2, 16
 437 0234 13010101 		addi	sp,sp,16
 438              		.cfi_def_cfa_offset 0
 439 0238 67800000 		jr	ra
 440              		.cfi_endproc
 441              	.LFE37:
 443              		.align	2
 444              		.globl	_ZN10Ksemaphore15createSemaphoreEj
 446              	_ZN10Ksemaphore15createSemaphoreEj:
 447              	.LFB34:
  30:src/Ksemaphore.cpp ****     Ksemaphore* ksem = (Ksemaphore*) new Ksemaphore(init);
 448              		.loc 1 30 60 is_stmt 1
 449              		.cfi_startproc
 450              	.LVL42:
 451 023c 130101FE 		addi	sp,sp,-32
 452              		.cfi_def_cfa_offset 32
 453 0240 233C1100 		sd	ra,24(sp)
 454 0244 23388100 		sd	s0,16(sp)
 455 0248 23349100 		sd	s1,8(sp)
 456              		.cfi_offset 1, -8
 457              		.cfi_offset 8, -16
 458              		.cfi_offset 9, -24
 459 024c 13040102 		addi	s0,sp,32
 460              		.cfi_def_cfa 8, 0
 461 0250 93040500 		mv	s1,a0
  31:src/Ksemaphore.cpp ****     ksem->val=init;
 462              		.loc 1 31 5
  31:src/Ksemaphore.cpp ****     ksem->val=init;
 463              		.loc 1 31 57 is_stmt 0
 464 0254 13058001 		li	a0,24
 465              	.LVL43:
 466 0258 97000000 		call	_ZN10KsemaphorenwEm
 466      E7800000 
 467              	.LVL44:
 468              	.LBB42:
 469              	.LBB43:
 470              		.file 3 "src/../h/Ksemaphore.hpp"
   1:src/../h/Ksemaphore.hpp **** #ifndef PROJECT_BASE_KSEMAPHORE_HPP
   2:src/../h/Ksemaphore.hpp **** #define PROJECT_BASE_KSEMAPHORE_HPP
   3:src/../h/Ksemaphore.hpp **** #include "scheduler.hpp"
   4:src/../h/Ksemaphore.hpp **** #include "TCB.hpp"
   5:src/../h/Ksemaphore.hpp **** #include "../lib/hw.h"
   6:src/../h/Ksemaphore.hpp **** 
   7:src/../h/Ksemaphore.hpp **** typedef Ksemaphore* sem_t;
   8:src/../h/Ksemaphore.hpp **** 
   9:src/../h/Ksemaphore.hpp **** 
  10:src/../h/Ksemaphore.hpp **** class Ksemaphore{
  11:src/../h/Ksemaphore.hpp ****     Ksemaphore(unsigned init =1):val(init){}
 471              		.loc 3 11 42
 472 0260 23209500 		sw	s1,0(a0)
 473              	.LVL45:
 474              	.LBB44:
 475              	.LBB45:
  26:src/../h/list.hpp **** 
 476              		.loc 2 26 29
 477 0264 23340500 		sd	zero,8(a0)
GAS LISTING /tmp/ccnHQPl6.s 			page 12


 478 0268 23380500 		sd	zero,16(a0)
 479              	.LVL46:
 480              	.LBE45:
 481              	.LBE44:
 482              	.LBE43:
 483              	.LBE42:
  32:src/Ksemaphore.cpp ****     return ksem;
 484              		.loc 1 32 5 is_stmt 1
  33:src/Ksemaphore.cpp **** }
 485              		.loc 1 33 5
  34:src/Ksemaphore.cpp **** 
 486              		.loc 1 34 1 is_stmt 0
 487 026c 83308101 		ld	ra,24(sp)
 488              		.cfi_restore 1
 489 0270 03340101 		ld	s0,16(sp)
 490              		.cfi_restore 8
 491              		.cfi_def_cfa 2, 32
 492 0274 83348100 		ld	s1,8(sp)
 493              		.cfi_restore 9
 494 0278 13010102 		addi	sp,sp,32
 495              		.cfi_def_cfa_offset 0
 496 027c 67800000 		jr	ra
 497              		.cfi_endproc
 498              	.LFE34:
 500              	.Letext0:
 501              		.file 4 "src/../h/../lib/hw.h"
 502              		.file 5 "src/../h/MemoryAllocator.hpp"
 503              		.file 6 "src/../h/scheduler.hpp"
 504              		.file 7 "src/../h/TCB.hpp"
GAS LISTING /tmp/ccnHQPl6.s 			page 13


DEFINED SYMBOLS
                            *ABS*:0000000000000000 Ksemaphore.cpp
     /tmp/ccnHQPl6.s:9      .text:0000000000000000 _ZN10Ksemaphore5blockEv
     /tmp/ccnHQPl6.s:13     .text:0000000000000000 .L0 
     /tmp/ccnHQPl6.s:15     .text:0000000000000000 .L0 
     /tmp/ccnHQPl6.s:16     .text:0000000000000004 .L0 
     /tmp/ccnHQPl6.s:21     .text:0000000000000014 .L0 
     /tmp/ccnHQPl6.s:22     .text:0000000000000014 .L0 
     /tmp/ccnHQPl6.s:23     .text:0000000000000014 .L0 
     /tmp/ccnHQPl6.s:24     .text:0000000000000014 .L0 
     /tmp/ccnHQPl6.s:26     .text:0000000000000018 .L0 
     /tmp/ccnHQPl6.s:29     .text:000000000000001c .L0 
     /tmp/ccnHQPl6.s:30     .text:000000000000001c .L0 
     /tmp/ccnHQPl6.s:37     .text:0000000000000028 .L0 
     /tmp/ccnHQPl6.s:44     .text:0000000000000034 .L0 
     /tmp/ccnHQPl6.s:50     .text:000000000000003c .L0 
     /tmp/ccnHQPl6.s:52     .text:0000000000000040 .L0 
     /tmp/ccnHQPl6.s:54     .text:0000000000000044 .L0 
     /tmp/ccnHQPl6.s:56     .text:0000000000000048 .L0 
     /tmp/ccnHQPl6.s:62     .text:000000000000004c .L0 
     /tmp/ccnHQPl6.s:63     .text:0000000000000050 .L0 
     /tmp/ccnHQPl6.s:64     .text:0000000000000050 .L0 
     /tmp/ccnHQPl6.s:66     .text:0000000000000054 .L0 
     /tmp/ccnHQPl6.s:67     .text:0000000000000054 .L0 
     /tmp/ccnHQPl6.s:69     .text:0000000000000058 .L0 
     /tmp/ccnHQPl6.s:72     .text:000000000000005c .L0 
     /tmp/ccnHQPl6.s:74     .text:0000000000000060 .L0 
     /tmp/ccnHQPl6.s:78     .text:0000000000000064 .L0 
     /tmp/ccnHQPl6.s:82     .text:0000000000000064 .L0 
     /tmp/ccnHQPl6.s:88     .text:000000000000006c .L0 
     /tmp/ccnHQPl6.s:89     .text:0000000000000070 .L0 
     /tmp/ccnHQPl6.s:95     .text:0000000000000070 _ZN10Ksemaphore7unblockEv
     /tmp/ccnHQPl6.s:98     .text:0000000000000070 .L0 
     /tmp/ccnHQPl6.s:100    .text:0000000000000070 .L0 
     /tmp/ccnHQPl6.s:101    .text:0000000000000074 .L0 
     /tmp/ccnHQPl6.s:105    .text:0000000000000080 .L0 
     /tmp/ccnHQPl6.s:106    .text:0000000000000080 .L0 
     /tmp/ccnHQPl6.s:107    .text:0000000000000080 .L0 
     /tmp/ccnHQPl6.s:109    .text:0000000000000084 .L0 
     /tmp/ccnHQPl6.s:115    .text:0000000000000088 .L0 
     /tmp/ccnHQPl6.s:116    .text:0000000000000088 .L0 
     /tmp/ccnHQPl6.s:119    .text:000000000000008c .L0 
     /tmp/ccnHQPl6.s:122    .text:0000000000000090 .L0 
     /tmp/ccnHQPl6.s:124    .text:0000000000000094 .L0 
     /tmp/ccnHQPl6.s:126    .text:0000000000000098 .L0 
     /tmp/ccnHQPl6.s:129    .text:000000000000009c .L0 
     /tmp/ccnHQPl6.s:132    .text:00000000000000a0 .L0 
     /tmp/ccnHQPl6.s:138    .text:00000000000000a8 .L0 
     /tmp/ccnHQPl6.s:139    .text:00000000000000a8 .L0 
     /tmp/ccnHQPl6.s:143    .text:00000000000000b4 .L0 
     /tmp/ccnHQPl6.s:144    .text:00000000000000b8 .L0 
     /tmp/ccnHQPl6.s:145    .text:00000000000000b8 .L0 
     /tmp/ccnHQPl6.s:147    .text:00000000000000bc .L0 
     /tmp/ccnHQPl6.s:148    .text:00000000000000bc .L0 
     /tmp/ccnHQPl6.s:150    .text:00000000000000c0 .L0 
     /tmp/ccnHQPl6.s:153    .text:00000000000000c4 .L0 
     /tmp/ccnHQPl6.s:157    .text:00000000000000c8 .L0 
GAS LISTING /tmp/ccnHQPl6.s 			page 14


     /tmp/ccnHQPl6.s:161    .text:00000000000000c8 .L0 
     /tmp/ccnHQPl6.s:166    .text:00000000000000d0 .L0 
     /tmp/ccnHQPl6.s:170    .text:00000000000000d8 .L0 
     /tmp/ccnHQPl6.s:176    .text:00000000000000d8 _ZN10Ksemaphore4waitEv
     /tmp/ccnHQPl6.s:179    .text:00000000000000d8 .L0 
     /tmp/ccnHQPl6.s:181    .text:00000000000000d8 .L0 
     /tmp/ccnHQPl6.s:182    .text:00000000000000d8 .L0 
     /tmp/ccnHQPl6.s:183    .text:00000000000000d8 .L0 
     /tmp/ccnHQPl6.s:185    .text:00000000000000dc .L0 
     /tmp/ccnHQPl6.s:187    .text:00000000000000e0 .L0 
     /tmp/ccnHQPl6.s:189    .text:00000000000000e4 .L0 
     /tmp/ccnHQPl6.s:192    .text:00000000000000ec .L0 
     /tmp/ccnHQPl6.s:193    .text:00000000000000f0 .L0 
     /tmp/ccnHQPl6.s:196    .text:00000000000000f8 .L0 
     /tmp/ccnHQPl6.s:197    .text:00000000000000f8 .L0 
     /tmp/ccnHQPl6.s:199    .text:00000000000000fc .L0 
     /tmp/ccnHQPl6.s:201    .text:00000000000000fc .L0 
     /tmp/ccnHQPl6.s:202    .text:00000000000000fc .L0 
     /tmp/ccnHQPl6.s:205    .text:0000000000000104 .L0 
     /tmp/ccnHQPl6.s:206    .text:0000000000000104 .L0 
     /tmp/ccnHQPl6.s:209    .text:000000000000010c .L0 
     /tmp/ccnHQPl6.s:210    .text:000000000000010c .L0 
     /tmp/ccnHQPl6.s:212    .text:0000000000000110 .L0 
     /tmp/ccnHQPl6.s:213    .text:0000000000000114 .L0 
     /tmp/ccnHQPl6.s:215    .text:0000000000000118 .L0 
     /tmp/ccnHQPl6.s:216    .text:0000000000000118 .L0 
     /tmp/ccnHQPl6.s:218    .text:000000000000011c .L0 
     /tmp/ccnHQPl6.s:223    .text:0000000000000120 .L0 
     /tmp/ccnHQPl6.s:226    .text:0000000000000124 .L0 
     /tmp/ccnHQPl6.s:227    .text:0000000000000128 .L0 
     /tmp/ccnHQPl6.s:233    .text:0000000000000128 _ZN10Ksemaphore6signalEv
     /tmp/ccnHQPl6.s:236    .text:0000000000000128 .L0 
     /tmp/ccnHQPl6.s:238    .text:0000000000000128 .L0 
     /tmp/ccnHQPl6.s:239    .text:0000000000000128 .L0 
     /tmp/ccnHQPl6.s:240    .text:0000000000000128 .L0 
     /tmp/ccnHQPl6.s:242    .text:000000000000012c .L0 
     /tmp/ccnHQPl6.s:245    .text:0000000000000134 .L0 
     /tmp/ccnHQPl6.s:247    .text:0000000000000138 .L0 
     /tmp/ccnHQPl6.s:249    .text:000000000000013c .L0 
     /tmp/ccnHQPl6.s:250    .text:0000000000000140 .L0 
     /tmp/ccnHQPl6.s:253    .text:0000000000000148 .L0 
     /tmp/ccnHQPl6.s:254    .text:0000000000000148 .L0 
     /tmp/ccnHQPl6.s:256    .text:000000000000014c .L0 
     /tmp/ccnHQPl6.s:258    .text:000000000000014c .L0 
     /tmp/ccnHQPl6.s:259    .text:000000000000014c .L0 
     /tmp/ccnHQPl6.s:262    .text:0000000000000154 .L0 
     /tmp/ccnHQPl6.s:263    .text:0000000000000154 .L0 
     /tmp/ccnHQPl6.s:265    .text:0000000000000158 .L0 
     /tmp/ccnHQPl6.s:266    .text:000000000000015c .L0 
     /tmp/ccnHQPl6.s:268    .text:0000000000000160 .L0 
     /tmp/ccnHQPl6.s:269    .text:0000000000000160 .L0 
     /tmp/ccnHQPl6.s:271    .text:0000000000000164 .L0 
     /tmp/ccnHQPl6.s:276    .text:0000000000000168 .L0 
     /tmp/ccnHQPl6.s:279    .text:000000000000016c .L0 
     /tmp/ccnHQPl6.s:280    .text:0000000000000170 .L0 
     /tmp/ccnHQPl6.s:286    .text:0000000000000170 _ZN10Ksemaphore14closeSemaphoreEv
     /tmp/ccnHQPl6.s:289    .text:0000000000000170 .L0 
GAS LISTING /tmp/ccnHQPl6.s 			page 15


     /tmp/ccnHQPl6.s:291    .text:0000000000000170 .L0 
     /tmp/ccnHQPl6.s:292    .text:0000000000000174 .L0 
     /tmp/ccnHQPl6.s:297    .text:0000000000000184 .L0 
     /tmp/ccnHQPl6.s:298    .text:0000000000000184 .L0 
     /tmp/ccnHQPl6.s:299    .text:0000000000000184 .L0 
     /tmp/ccnHQPl6.s:300    .text:0000000000000184 .L0 
     /tmp/ccnHQPl6.s:302    .text:0000000000000188 .L0 
     /tmp/ccnHQPl6.s:310    .text:0000000000000190 .L0 
     /tmp/ccnHQPl6.s:313    .text:0000000000000194 .L0 
     /tmp/ccnHQPl6.s:316    .text:0000000000000198 .L0 
     /tmp/ccnHQPl6.s:321    .text:00000000000001a0 .L0 
     /tmp/ccnHQPl6.s:322    .text:00000000000001a0 .L0 
     /tmp/ccnHQPl6.s:327    .text:00000000000001ac .L0 
     /tmp/ccnHQPl6.s:328    .text:00000000000001ac .L0 
     /tmp/ccnHQPl6.s:331    .text:00000000000001ac .L0 
     /tmp/ccnHQPl6.s:332    .text:00000000000001ac .L0 
     /tmp/ccnHQPl6.s:334    .text:00000000000001b0 .L0 
     /tmp/ccnHQPl6.s:336    .text:00000000000001b4 .L0 
     /tmp/ccnHQPl6.s:341    .text:00000000000001b8 .L0 
     /tmp/ccnHQPl6.s:346    .text:00000000000001bc .L0 
     /tmp/ccnHQPl6.s:347    .text:00000000000001bc .L0 
     /tmp/ccnHQPl6.s:349    .text:00000000000001c0 .L0 
     /tmp/ccnHQPl6.s:351    .text:00000000000001c4 .L0 
     /tmp/ccnHQPl6.s:358    .text:00000000000001cc .L0 
     /tmp/ccnHQPl6.s:359    .text:00000000000001cc .L0 
     /tmp/ccnHQPl6.s:361    .text:00000000000001d4 .L0 
     /tmp/ccnHQPl6.s:363    .text:00000000000001d8 .L0 
     /tmp/ccnHQPl6.s:364    .text:00000000000001d8 .L0 
     /tmp/ccnHQPl6.s:366    .text:00000000000001dc .L0 
     /tmp/ccnHQPl6.s:369    .text:00000000000001e0 .L0 
     /tmp/ccnHQPl6.s:371    .text:00000000000001e4 .L0 
     /tmp/ccnHQPl6.s:373    .text:00000000000001e8 .L0 
     /tmp/ccnHQPl6.s:379    .text:00000000000001e8 _ZN10KsemaphoredlEPv
     /tmp/ccnHQPl6.s:382    .text:00000000000001e8 .L0 
     /tmp/ccnHQPl6.s:384    .text:00000000000001e8 .L0 
     /tmp/ccnHQPl6.s:385    .text:00000000000001ec .L0 
     /tmp/ccnHQPl6.s:388    .text:00000000000001f4 .L0 
     /tmp/ccnHQPl6.s:389    .text:00000000000001f4 .L0 
     /tmp/ccnHQPl6.s:391    .text:00000000000001f8 .L0 
     /tmp/ccnHQPl6.s:393    .text:00000000000001f8 .L0 
     /tmp/ccnHQPl6.s:394    .text:00000000000001f8 .L0 
     /tmp/ccnHQPl6.s:397    .text:0000000000000200 .L0 
     /tmp/ccnHQPl6.s:398    .text:0000000000000200 .L0 
     /tmp/ccnHQPl6.s:399    .text:0000000000000204 .L0 
     /tmp/ccnHQPl6.s:401    .text:0000000000000208 .L0 
     /tmp/ccnHQPl6.s:402    .text:0000000000000208 .L0 
     /tmp/ccnHQPl6.s:404    .text:000000000000020c .L0 
     /tmp/ccnHQPl6.s:406    .text:0000000000000210 .L0 
     /tmp/ccnHQPl6.s:412    .text:0000000000000210 _ZN10KsemaphorenwEm
     /tmp/ccnHQPl6.s:415    .text:0000000000000210 .L0 
     /tmp/ccnHQPl6.s:417    .text:0000000000000210 .L0 
     /tmp/ccnHQPl6.s:418    .text:0000000000000214 .L0 
     /tmp/ccnHQPl6.s:421    .text:000000000000021c .L0 
     /tmp/ccnHQPl6.s:422    .text:000000000000021c .L0 
     /tmp/ccnHQPl6.s:424    .text:0000000000000220 .L0 
     /tmp/ccnHQPl6.s:426    .text:0000000000000220 .L0 
     /tmp/ccnHQPl6.s:427    .text:0000000000000220 .L0 
GAS LISTING /tmp/ccnHQPl6.s 			page 16


     /tmp/ccnHQPl6.s:432    .text:000000000000022c .L0 
     /tmp/ccnHQPl6.s:433    .text:0000000000000230 .L0 
     /tmp/ccnHQPl6.s:435    .text:0000000000000234 .L0 
     /tmp/ccnHQPl6.s:436    .text:0000000000000234 .L0 
     /tmp/ccnHQPl6.s:438    .text:0000000000000238 .L0 
     /tmp/ccnHQPl6.s:440    .text:000000000000023c .L0 
     /tmp/ccnHQPl6.s:446    .text:000000000000023c _ZN10Ksemaphore15createSemaphoreEj
     /tmp/ccnHQPl6.s:449    .text:000000000000023c .L0 
     /tmp/ccnHQPl6.s:451    .text:000000000000023c .L0 
     /tmp/ccnHQPl6.s:452    .text:0000000000000240 .L0 
     /tmp/ccnHQPl6.s:456    .text:000000000000024c .L0 
     /tmp/ccnHQPl6.s:457    .text:000000000000024c .L0 
     /tmp/ccnHQPl6.s:458    .text:000000000000024c .L0 
     /tmp/ccnHQPl6.s:460    .text:0000000000000250 .L0 
     /tmp/ccnHQPl6.s:463    .text:0000000000000254 .L0 
     /tmp/ccnHQPl6.s:464    .text:0000000000000254 .L0 
     /tmp/ccnHQPl6.s:472    .text:0000000000000260 .L0 
     /tmp/ccnHQPl6.s:477    .text:0000000000000264 .L0 
     /tmp/ccnHQPl6.s:485    .text:000000000000026c .L0 
     /tmp/ccnHQPl6.s:486    .text:000000000000026c .L0 
     /tmp/ccnHQPl6.s:487    .text:000000000000026c .L0 
     /tmp/ccnHQPl6.s:488    .text:0000000000000270 .L0 
     /tmp/ccnHQPl6.s:490    .text:0000000000000274 .L0 
     /tmp/ccnHQPl6.s:491    .text:0000000000000274 .L0 
     /tmp/ccnHQPl6.s:493    .text:0000000000000278 .L0 
     /tmp/ccnHQPl6.s:495    .text:000000000000027c .L0 
     /tmp/ccnHQPl6.s:497    .text:0000000000000280 .L0 
     /tmp/ccnHQPl6.s:505    .text:0000000000000280 .L0 
     /tmp/ccnHQPl6.s:30     .text:000000000000001c .L0 
     /tmp/ccnHQPl6.s:77     .text:0000000000000064 .L2
     /tmp/ccnHQPl6.s:58     .text:000000000000004c .L1
     /tmp/ccnHQPl6.s:164    .text:00000000000000d0 .L8
     /tmp/ccnHQPl6.s:156    .text:00000000000000c8 .L10
     /tmp/ccnHQPl6.s:127    .text:000000000000009c .L7
     /tmp/ccnHQPl6.s:134    .text:00000000000000a8 .L6
     /tmp/ccnHQPl6.s:221    .text:0000000000000120 .L13
     /tmp/ccnHQPl6.s:274    .text:0000000000000168 .L20
     /tmp/ccnHQPl6.s:325    .text:00000000000001ac .L28
     /tmp/ccnHQPl6.s:354    .text:00000000000001cc .L26
     /tmp/ccnHQPl6.s:311    .text:0000000000000194 .L27
     /tmp/ccnHQPl6.s:306    .text:0000000000000190 .L30
     /tmp/ccnHQPl6.s:2059   .debug_abbrev:0000000000000000 .Ldebug_abbrev0
     /tmp/ccnHQPl6.s:3823   .debug_str:0000000000000805 .LASF140
     /tmp/ccnHQPl6.s:3583   .debug_str:0000000000000035 .LASF141
     /tmp/ccnHQPl6.s:3661   .debug_str:0000000000000301 .LASF142
     /tmp/ccnHQPl6.s:5      .text:0000000000000000 .Ltext0
     /tmp/ccnHQPl6.s:500    .text:0000000000000280 .Letext0
     /tmp/ccnHQPl6.s:3575   .debug_line:0000000000000000 .Ldebug_line0
     /tmp/ccnHQPl6.s:3749   .debug_str:00000000000005e2 .LASF0
     /tmp/ccnHQPl6.s:3763   .debug_str:0000000000000645 .LASF1
     /tmp/ccnHQPl6.s:3723   .debug_str:000000000000050a .LASF2
     /tmp/ccnHQPl6.s:3691   .debug_str:0000000000000431 .LASF4
     /tmp/ccnHQPl6.s:3807   .debug_str:0000000000000793 .LASF3
     /tmp/ccnHQPl6.s:3599   .debug_str:00000000000000c5 .LASF5
     /tmp/ccnHQPl6.s:3765   .debug_str:0000000000000658 .LASF6
     /tmp/ccnHQPl6.s:3747   .debug_str:00000000000005cf .LASF7
     /tmp/ccnHQPl6.s:3837   .debug_str:0000000000000905 .LASF8
GAS LISTING /tmp/ccnHQPl6.s 			page 17


     /tmp/ccnHQPl6.s:3671   .debug_str:0000000000000364 .LASF9
     /tmp/ccnHQPl6.s:3777   .debug_str:00000000000006a5 .LASF10
     /tmp/ccnHQPl6.s:3829   .debug_str:00000000000008db .LASF11
     /tmp/ccnHQPl6.s:3603   .debug_str:00000000000000d3 .LASF12
     /tmp/ccnHQPl6.s:3585   .debug_str:0000000000000048 .LASF13
     /tmp/ccnHQPl6.s:3617   .debug_str:000000000000014d .LASF14
     /tmp/ccnHQPl6.s:3799   .debug_str:000000000000076c .LASF15
     /tmp/ccnHQPl6.s:3631   .debug_str:000000000000020e .LASF16
     /tmp/ccnHQPl6.s:3719   .debug_str:00000000000004e1 .LASF30
     /tmp/ccnHQPl6.s:3843   .debug_str:0000000000000934 .LASF44
     /tmp/ccnHQPl6.s:3867   .debug_str:0000000000000a08 .LASF17
     /tmp/ccnHQPl6.s:3851   .debug_str:0000000000000967 .LASF18
     /tmp/ccnHQPl6.s:3819   .debug_str:00000000000007f7 .LASF19
     /tmp/ccnHQPl6.s:3695   .debug_str:0000000000000444 .LASF20
     /tmp/ccnHQPl6.s:3731   .debug_str:000000000000054a .LASF21
     /tmp/ccnHQPl6.s:3813   .debug_str:00000000000007c4 .LASF22
     /tmp/ccnHQPl6.s:3827   .debug_str:00000000000008d5 .LASF23
     /tmp/ccnHQPl6.s:3759   .debug_str:000000000000061e .LASF25
     /tmp/ccnHQPl6.s:3761   .debug_str:000000000000063b .LASF24
     /tmp/ccnHQPl6.s:3857   .debug_str:0000000000000996 .LASF26
     /tmp/ccnHQPl6.s:3619   .debug_str:0000000000000159 .LASF86
     /tmp/ccnHQPl6.s:3623   .debug_str:0000000000000173 .LASF88
     /tmp/ccnHQPl6.s:3601   .debug_str:00000000000000cc .LASF32
     /tmp/ccnHQPl6.s:3781   .debug_str:00000000000006bf .LASF34
     /tmp/ccnHQPl6.s:3655   .debug_str:00000000000002e4 .LASF27
     /tmp/ccnHQPl6.s:3793   .debug_str:0000000000000714 .LASF28
     /tmp/ccnHQPl6.s:3771   .debug_str:000000000000068f .LASF29
     /tmp/ccnHQPl6.s:3775   .debug_str:000000000000069b .LASF31
     /tmp/ccnHQPl6.s:3849   .debug_str:000000000000095a .LASF33
     /tmp/ccnHQPl6.s:3861   .debug_str:00000000000009bc .LASF35
     /tmp/ccnHQPl6.s:3815   .debug_str:00000000000007d2 .LASF36
     /tmp/ccnHQPl6.s:3753   .debug_str:00000000000005f8 .LASF37
     /tmp/ccnHQPl6.s:3663   .debug_str:000000000000031f .LASF38
     /tmp/ccnHQPl6.s:3755   .debug_str:000000000000060b .LASF39
     /tmp/ccnHQPl6.s:3811   .debug_str:00000000000007b2 .LASF40
     /tmp/ccnHQPl6.s:3683   .debug_str:00000000000003dd .LASF143
     /tmp/ccnHQPl6.s:3615   .debug_str:0000000000000135 .LASF144
     /tmp/ccnHQPl6.s:3825   .debug_str:00000000000008c9 .LASF41
     /tmp/ccnHQPl6.s:3637   .debug_str:000000000000022f .LASF42
     /tmp/ccnHQPl6.s:3715   .debug_str:00000000000004ca .LASF43
     /tmp/ccnHQPl6.s:3831   .debug_str:00000000000008ea .LASF45
     /tmp/ccnHQPl6.s:3791   .debug_str:000000000000070f .LASF46
     /tmp/ccnHQPl6.s:3739   .debug_str:0000000000000589 .LASF100
     /tmp/ccnHQPl6.s:3635   .debug_str:000000000000022a .LASF47
     /tmp/ccnHQPl6.s:3689   .debug_str:000000000000042c .LASF48
     /tmp/ccnHQPl6.s:3673   .debug_str:0000000000000372 .LASF49
     /tmp/ccnHQPl6.s:3797   .debug_str:0000000000000755 .LASF57
     /tmp/ccnHQPl6.s:3741   .debug_str:00000000000005a8 .LASF145
     /tmp/ccnHQPl6.s:3677   .debug_str:000000000000038a .LASF146
     /tmp/ccnHQPl6.s:3687   .debug_str:0000000000000419 .LASF50
     /tmp/ccnHQPl6.s:3611   .debug_str:0000000000000117 .LASF51
     /tmp/ccnHQPl6.s:3821   .debug_str:00000000000007fc .LASF52
     /tmp/ccnHQPl6.s:3645   .debug_str:00000000000002a0 .LASF53
     /tmp/ccnHQPl6.s:3669   .debug_str:000000000000035c .LASF54
     /tmp/ccnHQPl6.s:3641   .debug_str:0000000000000263 .LASF55
     /tmp/ccnHQPl6.s:3727   .debug_str:0000000000000524 .LASF56
     /tmp/ccnHQPl6.s:3579   .debug_str:0000000000000008 .LASF58
GAS LISTING /tmp/ccnHQPl6.s 			page 18


     /tmp/ccnHQPl6.s:3613   .debug_str:000000000000012b .LASF59
     /tmp/ccnHQPl6.s:3707   .debug_str:0000000000000487 .LASF60
     /tmp/ccnHQPl6.s:3833   .debug_str:00000000000008ef .LASF61
     /tmp/ccnHQPl6.s:3593   .debug_str:000000000000007b .LASF62
     /tmp/ccnHQPl6.s:3711   .debug_str:00000000000004b3 .LASF63
     /tmp/ccnHQPl6.s:3853   .debug_str:000000000000096c .LASF64
     /tmp/ccnHQPl6.s:3587   .debug_str:0000000000000058 .LASF65
     /tmp/ccnHQPl6.s:3713   .debug_str:00000000000004bc .LASF102
     /tmp/ccnHQPl6.s:3679   .debug_str:00000000000003a1 .LASF104
     /tmp/ccnHQPl6.s:3841   .debug_str:0000000000000928 .LASF92
     /tmp/ccnHQPl6.s:3647   .debug_str:00000000000002bd .LASF66
     /tmp/ccnHQPl6.s:3787   .debug_str:00000000000006fe .LASF67
     /tmp/ccnHQPl6.s:3767   .debug_str:000000000000066b .LASF68
     /tmp/ccnHQPl6.s:3627   .debug_str:00000000000001be .LASF69
     /tmp/ccnHQPl6.s:3725   .debug_str:0000000000000518 .LASF70
     /tmp/ccnHQPl6.s:3869   .debug_str:0000000000000a0d .LASF71
     /tmp/ccnHQPl6.s:3717   .debug_str:00000000000004d4 .LASF72
     /tmp/ccnHQPl6.s:3595   .debug_str:0000000000000098 .LASF73
     /tmp/ccnHQPl6.s:3789   .debug_str:000000000000070a .LASF147
     /tmp/ccnHQPl6.s:3743   .debug_str:00000000000005b2 .LASF74
     /tmp/ccnHQPl6.s:3701   .debug_str:0000000000000460 .LASF75
     /tmp/ccnHQPl6.s:3591   .debug_str:0000000000000074 .LASF76
     /tmp/ccnHQPl6.s:3709   .debug_str:00000000000004a2 .LASF77
     /tmp/ccnHQPl6.s:3693   .debug_str:0000000000000438 .LASF78
     /tmp/ccnHQPl6.s:3809   .debug_str:00000000000007a5 .LASF79
     /tmp/ccnHQPl6.s:3705   .debug_str:000000000000047a .LASF80
     /tmp/ccnHQPl6.s:3609   .debug_str:00000000000000f7 .LASF81
     /tmp/ccnHQPl6.s:3871   .debug_str:0000000000000a24 .LASF82
     /tmp/ccnHQPl6.s:3629   .debug_str:00000000000001d5 .LASF83
     /tmp/ccnHQPl6.s:3607   .debug_str:00000000000000e8 .LASF84
     /tmp/ccnHQPl6.s:3785   .debug_str:00000000000006e2 .LASF85
     /tmp/ccnHQPl6.s:3801   .debug_str:0000000000000782 .LASF87
     /tmp/ccnHQPl6.s:3735   .debug_str:0000000000000560 .LASF89
     /tmp/ccnHQPl6.s:3665   .debug_str:0000000000000330 .LASF90
     /tmp/ccnHQPl6.s:3643   .debug_str:000000000000027f .LASF91
     /tmp/ccnHQPl6.s:3651   .debug_str:00000000000002c8 .LASF148
     /tmp/ccnHQPl6.s:3745   .debug_str:00000000000005ba .LASF93
     /tmp/ccnHQPl6.s:3699   .debug_str:000000000000045b .LASF94
     /tmp/ccnHQPl6.s:3621   .debug_str:000000000000016d .LASF95
     /tmp/ccnHQPl6.s:3703   .debug_str:0000000000000472 .LASF96
     /tmp/ccnHQPl6.s:3757   .debug_str:0000000000000614 .LASF97
     /tmp/ccnHQPl6.s:3697   .debug_str:0000000000000452 .LASF98
     /tmp/ccnHQPl6.s:3845   .debug_str:0000000000000944 .LASF99
     /tmp/ccnHQPl6.s:3685   .debug_str:00000000000003f1 .LASF101
     /tmp/ccnHQPl6.s:3751   .debug_str:00000000000005ef .LASF103
     /tmp/ccnHQPl6.s:3657   .debug_str:00000000000002e9 .LASF105
     /tmp/ccnHQPl6.s:3721   .debug_str:00000000000004f1 .LASF106
     /tmp/ccnHQPl6.s:3795   .debug_str:0000000000000731 .LASF107
     /tmp/ccnHQPl6.s:3779   .debug_str:00000000000006b4 .LASF108
     /tmp/ccnHQPl6.s:3667   .debug_str:0000000000000346 .LASF109
     /tmp/ccnHQPl6.s:3733   .debug_str:000000000000054f .LASF110
     /tmp/ccnHQPl6.s:3659   .debug_str:00000000000002fc .LASF111
     /tmp/ccnHQPl6.s:3835   .debug_str:00000000000008fa .LASF112
     /tmp/ccnHQPl6.s:3597   .debug_str:00000000000000b1 .LASF113
     /tmp/ccnHQPl6.s:3605   .debug_str:00000000000000e3 .LASF114
     /tmp/ccnHQPl6.s:3639   .debug_str:000000000000024c .LASF115
     /tmp/ccnHQPl6.s:3773   .debug_str:0000000000000694 .LASF116
GAS LISTING /tmp/ccnHQPl6.s 			page 19


     /tmp/ccnHQPl6.s:3737   .debug_str:0000000000000570 .LASF117
     /tmp/ccnHQPl6.s:3633   .debug_str:0000000000000224 .LASF118
     /tmp/ccnHQPl6.s:3769   .debug_str:0000000000000676 .LASF119
     /tmp/ccnHQPl6.s:3855   .debug_str:0000000000000986 .LASF120
     /tmp/ccnHQPl6.s:3681   .debug_str:00000000000003ba .LASF121
     /tmp/ccnHQPl6.s:3581   .debug_str:0000000000000026 .LASF122
     /tmp/ccnHQPl6.s:3865   .debug_str:00000000000009e6 .LASF123
     /tmp/ccnHQPl6.s:3649   .debug_str:00000000000002c2 .LASF124
     /tmp/ccnHQPl6.s:3863   .debug_str:00000000000009ce .LASF125
     /tmp/ccnHQPl6.s:3847   .debug_str:0000000000000952 .LASF126
     /tmp/ccnHQPl6.s:3729   .debug_str:0000000000000530 .LASF127
     /tmp/ccnHQPl6.s:3589   .debug_str:0000000000000060 .LASF128
     /tmp/ccnHQPl6.s:3817   .debug_str:00000000000007e2 .LASF129
     /tmp/ccnHQPl6.s:3577   .debug_str:0000000000000000 .LASF130
     /tmp/ccnHQPl6.s:3783   .debug_str:00000000000006dd .LASF131
     /tmp/ccnHQPl6.s:3625   .debug_str:000000000000019f .LASF133
     /tmp/ccnHQPl6.s:3803   .debug_str:0000000000000788 .LASF132
     /tmp/ccnHQPl6.s:3839   .debug_str:0000000000000915 .LASF134
     /tmp/ccnHQPl6.s:413    .text:0000000000000210 .LFB37
     /tmp/ccnHQPl6.s:441    .text:000000000000023c .LFE37
     /tmp/ccnHQPl6.s:3207   .debug_loc:0000000000000000 .LLST20
     /tmp/ccnHQPl6.s:430    .text:000000000000022c .LVL41
     /tmp/ccnHQPl6.s:380    .text:00000000000001e8 .LFB36
     /tmp/ccnHQPl6.s:407    .text:0000000000000210 .LFE36
     /tmp/ccnHQPl6.s:3221   .debug_loc:0000000000000039 .LLST19
     /tmp/ccnHQPl6.s:395    .text:0000000000000200 .LVL38
     /tmp/ccnHQPl6.s:287    .text:0000000000000170 .LFB35
     /tmp/ccnHQPl6.s:374    .text:00000000000001e8 .LFE35
     /tmp/ccnHQPl6.s:3235   .debug_loc:0000000000000072 .LLST13
     /tmp/ccnHQPl6.s:3253   .debug_loc:00000000000000be .LLST14
     /tmp/ccnHQPl6.s:307    .text:0000000000000190 .LBB36
     /tmp/ccnHQPl6.s:3555   .debug_ranges:0000000000000000 .Ldebug_ranges0
     /tmp/ccnHQPl6.s:3260   .debug_loc:00000000000000e1 .LLST15
     /tmp/ccnHQPl6.s:3275   .debug_loc:000000000000011b .LLST16
     /tmp/ccnHQPl6.s:3286   .debug_loc:0000000000000151 .LLST17
     /tmp/ccnHQPl6.s:317    .text:00000000000001a0 .LVL31
     /tmp/ccnHQPl6.s:329    .text:00000000000001ac .LBB39
     /tmp/ccnHQPl6.s:339    .text:00000000000001b8 .LBE39
     /tmp/ccnHQPl6.s:3293   .debug_loc:0000000000000174 .LLST18
     /tmp/ccnHQPl6.s:324    .text:00000000000001ac .LVL32
     /tmp/ccnHQPl6.s:447    .text:000000000000023c .LFB34
     /tmp/ccnHQPl6.s:498    .text:0000000000000280 .LFE34
     /tmp/ccnHQPl6.s:3675   .debug_str:0000000000000385 .LASF135
     /tmp/ccnHQPl6.s:3302   .debug_loc:0000000000000199 .LLST21
     /tmp/ccnHQPl6.s:3859   .debug_str:00000000000009b7 .LASF136
     /tmp/ccnHQPl6.s:468    .text:0000000000000260 .LBB42
     /tmp/ccnHQPl6.s:483    .text:000000000000026c .LBE42
     /tmp/ccnHQPl6.s:3316   .debug_loc:00000000000001d2 .LLST22
     /tmp/ccnHQPl6.s:3323   .debug_loc:00000000000001f5 .LLST23
     /tmp/ccnHQPl6.s:474    .text:0000000000000264 .LBB44
     /tmp/ccnHQPl6.s:481    .text:000000000000026c .LBE44
     /tmp/ccnHQPl6.s:3330   .debug_loc:0000000000000218 .LLST24
     /tmp/ccnHQPl6.s:467    .text:0000000000000260 .LVL44
     /tmp/ccnHQPl6.s:234    .text:0000000000000128 .LFB33
     /tmp/ccnHQPl6.s:281    .text:0000000000000170 .LFE33
     /tmp/ccnHQPl6.s:3339   .debug_loc:000000000000023d .LLST12
     /tmp/ccnHQPl6.s:260    .text:0000000000000154 .LVL25
GAS LISTING /tmp/ccnHQPl6.s 			page 20


     /tmp/ccnHQPl6.s:177    .text:00000000000000d8 .LFB32
     /tmp/ccnHQPl6.s:228    .text:0000000000000128 .LFE32
     /tmp/ccnHQPl6.s:3364   .debug_loc:000000000000029f .LLST11
     /tmp/ccnHQPl6.s:203    .text:0000000000000104 .LVL20
     /tmp/ccnHQPl6.s:207    .text:000000000000010c .LVL21
     /tmp/ccnHQPl6.s:96     .text:0000000000000070 .LFB31
     /tmp/ccnHQPl6.s:171    .text:00000000000000d8 .LFE31
     /tmp/ccnHQPl6.s:3389   .debug_loc:0000000000000301 .LLST6
     /tmp/ccnHQPl6.s:3411   .debug_loc:0000000000000360 .LLST7
     /tmp/ccnHQPl6.s:113    .text:0000000000000088 .LBB32
     /tmp/ccnHQPl6.s:3418   .debug_loc:0000000000000383 .LLST8
     /tmp/ccnHQPl6.s:3448   .debug_loc:00000000000003ea .LLST9
     /tmp/ccnHQPl6.s:3459   .debug_loc:0000000000000420 .LLST10
     /tmp/ccnHQPl6.s:133    .text:00000000000000a8 .LVL14
     /tmp/ccnHQPl6.s:141    .text:00000000000000b4 .LVL15
     /tmp/ccnHQPl6.s:10     .text:0000000000000000 .LFB30
     /tmp/ccnHQPl6.s:90     .text:0000000000000070 .LFE30
     /tmp/ccnHQPl6.s:3466   .debug_loc:0000000000000443 .LLST0
     /tmp/ccnHQPl6.s:33     .text:0000000000000028 .LBB26
     /tmp/ccnHQPl6.s:3488   .debug_loc:00000000000004a2 .LLST1
     /tmp/ccnHQPl6.s:3499   .debug_loc:00000000000004d8 .LLST2
     /tmp/ccnHQPl6.s:41     .text:0000000000000034 .LBB28
     /tmp/ccnHQPl6.s:48     .text:000000000000003c .LBE28
     /tmp/ccnHQPl6.s:3520   .debug_loc:0000000000000527 .LLST3
     /tmp/ccnHQPl6.s:3528   .debug_loc:000000000000054b .LLST4
     /tmp/ccnHQPl6.s:3535   .debug_loc:000000000000056e .LLST5
     /tmp/ccnHQPl6.s:40     .text:0000000000000034 .LVL3
     /tmp/ccnHQPl6.s:3653   .debug_str:00000000000002d0 .LASF137
     /tmp/ccnHQPl6.s:3873   .debug_str:0000000000000a4a .LASF138
     /tmp/ccnHQPl6.s:3805   .debug_str:000000000000078d .LASF139
     /tmp/ccnHQPl6.s:416    .text:0000000000000210 .LVL39
     /tmp/ccnHQPl6.s:428    .text:0000000000000224 .LVL40
     /tmp/ccnHQPl6.s:383    .text:00000000000001e8 .LVL37
     /tmp/ccnHQPl6.s:290    .text:0000000000000170 .LVL28
     /tmp/ccnHQPl6.s:305    .text:0000000000000190 .LVL29
     /tmp/ccnHQPl6.s:367    .text:00000000000001dc .LVL36
     /tmp/ccnHQPl6.s:343    .text:00000000000001bc .LVL34
     /tmp/ccnHQPl6.s:353    .text:00000000000001cc .LVL35
     /tmp/ccnHQPl6.s:314    .text:0000000000000198 .LVL30
     /tmp/ccnHQPl6.s:337    .text:00000000000001b8 .LVL33
     /tmp/ccnHQPl6.s:450    .text:000000000000023c .LVL42
     /tmp/ccnHQPl6.s:465    .text:0000000000000258 .LVL43
     /tmp/ccnHQPl6.s:479    .text:000000000000026c .LVL46
     /tmp/ccnHQPl6.s:473    .text:0000000000000264 .LVL45
     /tmp/ccnHQPl6.s:237    .text:0000000000000128 .LVL24
     /tmp/ccnHQPl6.s:273    .text:0000000000000168 .LVL26
     /tmp/ccnHQPl6.s:277    .text:000000000000016c .LVL27
     /tmp/ccnHQPl6.s:180    .text:00000000000000d8 .LVL19
     /tmp/ccnHQPl6.s:220    .text:0000000000000120 .LVL22
     /tmp/ccnHQPl6.s:224    .text:0000000000000124 .LVL23
     /tmp/ccnHQPl6.s:99     .text:0000000000000070 .LVL9
     /tmp/ccnHQPl6.s:117    .text:000000000000008c .LVL11
     /tmp/ccnHQPl6.s:155    .text:00000000000000c8 .LVL17
     /tmp/ccnHQPl6.s:151    .text:00000000000000c0 .LVL16
     /tmp/ccnHQPl6.s:112    .text:0000000000000088 .LVL10
     /tmp/ccnHQPl6.s:120    .text:0000000000000090 .LVL12
     /tmp/ccnHQPl6.s:163    .text:00000000000000d0 .LVL18
GAS LISTING /tmp/ccnHQPl6.s 			page 21


     /tmp/ccnHQPl6.s:130    .text:00000000000000a0 .LVL13
     /tmp/ccnHQPl6.s:14     .text:0000000000000000 .LVL0
     /tmp/ccnHQPl6.s:38     .text:000000000000002c .LVL2
     /tmp/ccnHQPl6.s:70     .text:0000000000000058 .LVL6
     /tmp/ccnHQPl6.s:76     .text:0000000000000064 .LVL7
     /tmp/ccnHQPl6.s:32     .text:0000000000000028 .LVL1
     /tmp/ccnHQPl6.s:57     .text:000000000000004c .LVL5
     /tmp/ccnHQPl6.s:84     .text:000000000000006c .LVL8
     /tmp/ccnHQPl6.s:46     .text:000000000000003c .LVL4
     /tmp/ccnHQPl6.s:506    .debug_info:0000000000000000 .Ldebug_info0
     /tmp/ccnHQPl6.s:60     .text:000000000000004c .LBE26
     /tmp/ccnHQPl6.s:79     .text:0000000000000064 .LBB31
     /tmp/ccnHQPl6.s:86     .text:000000000000006c .LBE31
     /tmp/ccnHQPl6.s:136    .text:00000000000000a8 .LBE32
     /tmp/ccnHQPl6.s:158    .text:00000000000000c8 .LBB35
     /tmp/ccnHQPl6.s:169    .text:00000000000000d8 .LBE35
     /tmp/ccnHQPl6.s:319    .text:00000000000001a0 .LBE36
     /tmp/ccnHQPl6.s:344    .text:00000000000001bc .LBB41
     /tmp/ccnHQPl6.s:356    .text:00000000000001cc .LBE41

UNDEFINED SYMBOLS
_ZN3TCB7runningE
_Znwm
_ZdlPv
_ZN9Scheduler3putEP3TCB
_ZN3TCB24dispatchWithoutSchedulerEv
_ZN15MemoryAllocator4freeEPv
_ZN15MemoryAllocator6mallocEm
