GAS LISTING /tmp/ccjrtqfq.s 			page 1


   1              		.file	"Ksemaphore.cpp"
   2              		.option pic
   3              		.option norelax
   4              		.text
   5              	.Ltext0:
   6              		.align	2
   7              		.globl	_ZN10Ksemaphore5blockEv
   9              	_ZN10Ksemaphore5blockEv:
  10              	.LFB33:
  11              		.file 1 "src/Ksemaphore.cpp"
   1:src/Ksemaphore.cpp **** #include "../h/Ksemaphore.hpp"
   2:src/Ksemaphore.cpp **** 
   3:src/Ksemaphore.cpp **** void Ksemaphore::block() {
  12              		.loc 1 3 26
  13              		.cfi_startproc
  14              	.LVL0:
  15 0000 130101FD 		addi	sp,sp,-48
  16              		.cfi_def_cfa_offset 48
  17 0004 23341102 		sd	ra,40(sp)
  18 0008 23308102 		sd	s0,32(sp)
  19 000c 233C9100 		sd	s1,24(sp)
  20 0010 23382101 		sd	s2,16(sp)
  21 0014 23343101 		sd	s3,8(sp)
  22              		.cfi_offset 1, -8
  23              		.cfi_offset 8, -16
  24              		.cfi_offset 9, -24
  25              		.cfi_offset 18, -32
  26              		.cfi_offset 19, -40
  27 0018 13040103 		addi	s0,sp,48
  28              		.cfi_def_cfa 8, 0
  29 001c 13090500 		mv	s2,a0
   4:src/Ksemaphore.cpp ****     TCB* tr=TCB::running;
  30              		.loc 1 4 5
  31              		.loc 1 4 10 is_stmt 0
  32 0020 97070000 		la	a5,_ZN3TCB7runningE
  32      83B70700 
  33 0028 83B90700 		ld	s3,0(a5)
  34              	.LVL1:
   5:src/Ksemaphore.cpp ****     blocked.addLast(tr);
  35              		.loc 1 5 5 is_stmt 1
  36              		.loc 1 5 20 is_stmt 0
  37 002c 93048500 		addi	s1,a0,8
  38              	.LVL2:
  39              	.LBB24:
  40              	.LBB25:
  41              		.file 2 "src/../h/list.hpp"
   1:src/../h/list.hpp **** //
   2:src/../h/list.hpp **** // Created by os on 8/27/22.
   3:src/../h/list.hpp **** //
   4:src/../h/list.hpp **** 
   5:src/../h/list.hpp **** #ifndef PROJECT_BASE_LIST_HPP
   6:src/../h/list.hpp **** #define PROJECT_BASE_LIST_HPP
   7:src/../h/list.hpp **** 
   8:src/../h/list.hpp **** #include "../lib/mem.h"
   9:src/../h/list.hpp **** #include "MemoryAllocator.hpp"
  10:src/../h/list.hpp **** 
  11:src/../h/list.hpp **** template<typename T>
GAS LISTING /tmp/ccjrtqfq.s 			page 2


  12:src/../h/list.hpp **** class List
  13:src/../h/list.hpp **** {
  14:src/../h/list.hpp **** private:
  15:src/../h/list.hpp ****     struct Elem
  16:src/../h/list.hpp ****     {
  17:src/../h/list.hpp ****         T *data;
  18:src/../h/list.hpp ****         Elem *next;
  19:src/../h/list.hpp **** 
  20:src/../h/list.hpp **** 
  21:src/../h/list.hpp ****         Elem(T *data, Elem *next) : data(data), next(next) {}
  22:src/../h/list.hpp ****     };
  23:src/../h/list.hpp **** 
  24:src/../h/list.hpp ****     Elem *head, *tail;
  25:src/../h/list.hpp ****     int num;
  26:src/../h/list.hpp **** 
  27:src/../h/list.hpp **** public:
  28:src/../h/list.hpp ****     List() : head(0), tail(0), num(0){}
  29:src/../h/list.hpp **** 
  30:src/../h/list.hpp ****     List(const List<T> &) = delete;
  31:src/../h/list.hpp **** 
  32:src/../h/list.hpp ****     List<T> &operator=(const List<T> &) = delete;
  33:src/../h/list.hpp ****     static void* operator new (size_t n);
  34:src/../h/list.hpp ****     static void operator delete (void* p);
  35:src/../h/list.hpp **** 
  36:src/../h/list.hpp ****     int getNum(){return num;}
  37:src/../h/list.hpp **** 
  38:src/../h/list.hpp ****     void addFirst(T *data)
  39:src/../h/list.hpp ****     {
  40:src/../h/list.hpp ****         Elem *elem = new Elem(data, head);
  41:src/../h/list.hpp ****         head = elem;
  42:src/../h/list.hpp ****         if (!tail) { tail = head; }
  43:src/../h/list.hpp ****     }
  44:src/../h/list.hpp **** 
  45:src/../h/list.hpp ****     void addLast(T *data)
  46:src/../h/list.hpp ****     {
  47:src/../h/list.hpp ****         Elem *elem = new Elem(data, 0);
  42              		.loc 2 47 22
  43 0030 13050001 		li	a0,16
  44              	.LVL3:
  45 0034 97000000 		call	_Znwm@plt
  45      E7800000 
  46              	.LVL4:
  47              	.LBB26:
  48              	.LBB27:
  21:src/../h/list.hpp ****     };
  49              		.loc 2 21 58
  50 003c 23303501 		sd	s3,0(a0)
  51 0040 23340500 		sd	zero,8(a0)
  52              	.LVL5:
  53              	.LBE27:
  54              	.LBE26:
  48:src/../h/list.hpp ****         if (tail)
  55              		.loc 2 48 13
  56 0044 83B78400 		ld	a5,8(s1)
  57              		.loc 2 48 9
  58 0048 638A0702 		beqz	a5,.L2
  49:src/../h/list.hpp ****         {
GAS LISTING /tmp/ccjrtqfq.s 			page 3


  50:src/../h/list.hpp ****             tail->next = elem;
  59              		.loc 2 50 13
  60 004c 23B4A700 		sd	a0,8(a5)
  51:src/../h/list.hpp ****             tail = elem;
  61              		.loc 2 51 13
  62 0050 23B4A400 		sd	a0,8(s1)
  63              	.L3:
  52:src/../h/list.hpp ****         } else
  53:src/../h/list.hpp ****         {
  54:src/../h/list.hpp ****             head = tail = elem;
  55:src/../h/list.hpp ****         }
  56:src/../h/list.hpp ****         num++;
  64              		.loc 2 56 9
  65 0054 83A70401 		lw	a5,16(s1)
  66 0058 9B871700 		addiw	a5,a5,1
  67 005c 23A8F400 		sw	a5,16(s1)
  68              	.LVL6:
  69              	.LBE25:
  70              	.LBE24:
   6:src/Ksemaphore.cpp **** }
  71              		.loc 1 6 1
  72 0060 83308102 		ld	ra,40(sp)
  73              		.cfi_remember_state
  74              		.cfi_restore 1
  75 0064 03340102 		ld	s0,32(sp)
  76              		.cfi_restore 8
  77              		.cfi_def_cfa 2, 48
  78 0068 83348101 		ld	s1,24(sp)
  79              		.cfi_restore 9
  80 006c 03390101 		ld	s2,16(sp)
  81              		.cfi_restore 18
  82              	.LVL7:
  83 0070 83398100 		ld	s3,8(sp)
  84              		.cfi_restore 19
  85              	.LVL8:
  86 0074 13010103 		addi	sp,sp,48
  87              		.cfi_def_cfa_offset 0
  88 0078 67800000 		jr	ra
  89              	.LVL9:
  90              	.L2:
  91              		.cfi_restore_state
  92              	.LBB29:
  93              	.LBB28:
  54:src/../h/list.hpp ****         }
  94              		.loc 2 54 13
  95 007c 23B4A400 		sd	a0,8(s1)
  96 0080 2334A900 		sd	a0,8(s2)
  97 0084 6FF01FFD 		j	.L3
  98              	.LBE28:
  99              	.LBE29:
 100              		.cfi_endproc
 101              	.LFE33:
 103              		.align	2
 104              		.globl	_ZN10Ksemaphore7unblockEv
 106              	_ZN10Ksemaphore7unblockEv:
 107              	.LFB34:
   7:src/Ksemaphore.cpp **** 
GAS LISTING /tmp/ccjrtqfq.s 			page 4


   8:src/Ksemaphore.cpp **** void Ksemaphore::unblock() {
 108              		.loc 1 8 28 is_stmt 1
 109              		.cfi_startproc
 110              	.LVL10:
 111 0088 130101FF 		addi	sp,sp,-16
 112              		.cfi_def_cfa_offset 16
 113 008c 23341100 		sd	ra,8(sp)
 114 0090 23308100 		sd	s0,0(sp)
 115              		.cfi_offset 1, -8
 116              		.cfi_offset 8, -16
 117 0094 13040101 		addi	s0,sp,16
 118              		.cfi_def_cfa 8, 0
 119 0098 93070500 		mv	a5,a0
   9:src/Ksemaphore.cpp ****     TCB *t = blocked.removeFirst();
 120              		.loc 1 9 5
 121              	.LVL11:
 122              	.LBB30:
 123              	.LBB31:
  57:src/../h/list.hpp **** 
  58:src/../h/list.hpp ****     }
  59:src/../h/list.hpp **** 
  60:src/../h/list.hpp ****     T *removeFirst()
  61:src/../h/list.hpp ****     {
  62:src/../h/list.hpp ****         if (!head) { return 0; }
 124              		.loc 2 62 14 is_stmt 0
 125 009c 03358500 		ld	a0,8(a0)
 126              	.LVL12:
 127              		.loc 2 62 9
 128 00a0 63000502 		beqz	a0,.L6
 129              	.LVL13:
  63:src/../h/list.hpp **** 
  64:src/../h/list.hpp ****         Elem *elem = head;
  65:src/../h/list.hpp ****         head = head->next;
 130              		.loc 2 65 22
 131 00a4 03378500 		ld	a4,8(a0)
 132              		.loc 2 65 9
 133 00a8 23B4E700 		sd	a4,8(a5)
  66:src/../h/list.hpp ****         if (!head) { tail = 0; }
 134              		.loc 2 66 9
 135 00ac 63060702 		beqz	a4,.L9
 136              	.L7:
  67:src/../h/list.hpp **** 
  68:src/../h/list.hpp ****         T *ret = elem->data;
 137              		.loc 2 68 12
 138 00b0 03350500 		ld	a0,0(a0)
 139              	.LVL14:
  69:src/../h/list.hpp **** //        delete elem;
  70:src/../h/list.hpp ****         num--;
 140              		.loc 2 70 9
 141 00b4 03A78701 		lw	a4,24(a5)
 142 00b8 1B07F7FF 		addiw	a4,a4,-1
 143 00bc 23ACE700 		sw	a4,24(a5)
 144              	.LVL15:
 145              	.L6:
 146              	.LBE31:
 147              	.LBE30:
  10:src/Ksemaphore.cpp ****     Scheduler::put(t);
GAS LISTING /tmp/ccjrtqfq.s 			page 5


 148              		.loc 1 10 5 is_stmt 1
 149              		.loc 1 10 19 is_stmt 0
 150 00c0 97000000 		call	_ZN9Scheduler3putEP3TCB@plt
 150      E7800000 
 151              	.LVL16:
  11:src/Ksemaphore.cpp **** }
 152              		.loc 1 11 1
 153 00c8 83308100 		ld	ra,8(sp)
 154              		.cfi_remember_state
 155              		.cfi_restore 1
 156 00cc 03340100 		ld	s0,0(sp)
 157              		.cfi_restore 8
 158              		.cfi_def_cfa 2, 16
 159 00d0 13010101 		addi	sp,sp,16
 160              		.cfi_def_cfa_offset 0
 161 00d4 67800000 		jr	ra
 162              	.LVL17:
 163              	.L9:
 164              		.cfi_restore_state
 165              	.LBB33:
 166              	.LBB32:
  66:src/../h/list.hpp **** 
 167              		.loc 2 66 22
 168 00d8 23B80700 		sd	zero,16(a5)
 169 00dc 6FF05FFD 		j	.L7
 170              	.LBE32:
 171              	.LBE33:
 172              		.cfi_endproc
 173              	.LFE34:
 175              		.align	2
 176              		.globl	_ZN10Ksemaphore4waitEv
 178              	_ZN10Ksemaphore4waitEv:
 179              	.LFB35:
  12:src/Ksemaphore.cpp **** 
  13:src/Ksemaphore.cpp **** int Ksemaphore::wait() {
 180              		.loc 1 13 24 is_stmt 1
 181              		.cfi_startproc
 182              	.LVL18:
  14:src/Ksemaphore.cpp ****     if(--val<0){
 183              		.loc 1 14 5
 184              		.loc 1 14 10 is_stmt 0
 185 00e0 83270500 		lw	a5,0(a0)
 186              		.loc 1 14 8
 187 00e4 9B87F7FF 		addiw	a5,a5,-1
 188              		.loc 1 14 13
 189 00e8 2320F500 		sw	a5,0(a0)
 190              		.loc 1 14 5
 191 00ec 13970702 		slli	a4,a5,32
 192 00f0 63460700 		bltz	a4,.L17
  15:src/Ksemaphore.cpp ****         block();
  16:src/Ksemaphore.cpp ****         TCB::dispatchWithoutScheduler();
  17:src/Ksemaphore.cpp ****         return 0;
  18:src/Ksemaphore.cpp ****     }
  19:src/Ksemaphore.cpp ****     return 1;
 193              		.loc 1 19 12
 194 00f4 13051000 		li	a0,1
 195              	.LVL19:
GAS LISTING /tmp/ccjrtqfq.s 			page 6


  20:src/Ksemaphore.cpp **** }
 196              		.loc 1 20 1
 197 00f8 67800000 		ret
 198              	.LVL20:
 199              	.L17:
  13:src/Ksemaphore.cpp ****     if(--val<0){
 200              		.loc 1 13 24
 201 00fc 130101FF 		addi	sp,sp,-16
 202              		.cfi_def_cfa_offset 16
 203 0100 23341100 		sd	ra,8(sp)
 204 0104 23308100 		sd	s0,0(sp)
 205              		.cfi_offset 1, -8
 206              		.cfi_offset 8, -16
 207 0108 13040101 		addi	s0,sp,16
 208              		.cfi_def_cfa 8, 0
  15:src/Ksemaphore.cpp ****         block();
 209              		.loc 1 15 9 is_stmt 1
  15:src/Ksemaphore.cpp ****         block();
 210              		.loc 1 15 14 is_stmt 0
 211 010c 97000000 		call	_ZN10Ksemaphore5blockEv
 211      E7800000 
 212              	.LVL21:
  16:src/Ksemaphore.cpp ****         return 0;
 213              		.loc 1 16 9 is_stmt 1
  16:src/Ksemaphore.cpp ****         return 0;
 214              		.loc 1 16 38 is_stmt 0
 215 0114 97000000 		call	_ZN3TCB24dispatchWithoutSchedulerEv@plt
 215      E7800000 
 216              	.LVL22:
  17:src/Ksemaphore.cpp ****     }
 217              		.loc 1 17 9 is_stmt 1
  17:src/Ksemaphore.cpp ****     }
 218              		.loc 1 17 16 is_stmt 0
 219 011c 13050000 		li	a0,0
 220              		.loc 1 20 1
 221 0120 83308100 		ld	ra,8(sp)
 222              		.cfi_restore 1
 223 0124 03340100 		ld	s0,0(sp)
 224              		.cfi_restore 8
 225              		.cfi_def_cfa 2, 16
 226 0128 13010101 		addi	sp,sp,16
 227              		.cfi_def_cfa_offset 0
 228 012c 67800000 		jr	ra
 229              		.cfi_endproc
 230              	.LFE35:
 232              		.align	2
 233              		.globl	_ZN10Ksemaphore6signalEv
 235              	_ZN10Ksemaphore6signalEv:
 236              	.LFB36:
  21:src/Ksemaphore.cpp **** 
  22:src/Ksemaphore.cpp **** int Ksemaphore::signal() {
 237              		.loc 1 22 26 is_stmt 1
 238              		.cfi_startproc
 239              	.LVL23:
  23:src/Ksemaphore.cpp ****     if(++val<=0) {
 240              		.loc 1 23 5
 241              		.loc 1 23 10 is_stmt 0
GAS LISTING /tmp/ccjrtqfq.s 			page 7


 242 0130 83270500 		lw	a5,0(a0)
 243              		.loc 1 23 8
 244 0134 9B871700 		addiw	a5,a5,1
 245 0138 1B870700 		sext.w	a4,a5
 246              		.loc 1 23 13
 247 013c 2320F500 		sw	a5,0(a0)
 248              		.loc 1 23 5
 249 0140 6356E000 		blez	a4,.L25
  24:src/Ksemaphore.cpp ****         unblock();
  25:src/Ksemaphore.cpp ****         return 0;
  26:src/Ksemaphore.cpp ****     }
  27:src/Ksemaphore.cpp ****     return 1;
 250              		.loc 1 27 12
 251 0144 13051000 		li	a0,1
 252              	.LVL24:
  28:src/Ksemaphore.cpp **** }
 253              		.loc 1 28 1
 254 0148 67800000 		ret
 255              	.LVL25:
 256              	.L25:
  22:src/Ksemaphore.cpp ****     if(++val<=0) {
 257              		.loc 1 22 26
 258 014c 130101FF 		addi	sp,sp,-16
 259              		.cfi_def_cfa_offset 16
 260 0150 23341100 		sd	ra,8(sp)
 261 0154 23308100 		sd	s0,0(sp)
 262              		.cfi_offset 1, -8
 263              		.cfi_offset 8, -16
 264 0158 13040101 		addi	s0,sp,16
 265              		.cfi_def_cfa 8, 0
  24:src/Ksemaphore.cpp ****         unblock();
 266              		.loc 1 24 9 is_stmt 1
  24:src/Ksemaphore.cpp ****         unblock();
 267              		.loc 1 24 16 is_stmt 0
 268 015c 97000000 		call	_ZN10Ksemaphore7unblockEv
 268      E7800000 
 269              	.LVL26:
  25:src/Ksemaphore.cpp ****     }
 270              		.loc 1 25 9 is_stmt 1
  25:src/Ksemaphore.cpp ****     }
 271              		.loc 1 25 16 is_stmt 0
 272 0164 13050000 		li	a0,0
 273              		.loc 1 28 1
 274 0168 83308100 		ld	ra,8(sp)
 275              		.cfi_restore 1
 276 016c 03340100 		ld	s0,0(sp)
 277              		.cfi_restore 8
 278              		.cfi_def_cfa 2, 16
 279 0170 13010101 		addi	sp,sp,16
 280              		.cfi_def_cfa_offset 0
 281 0174 67800000 		jr	ra
 282              		.cfi_endproc
 283              	.LFE36:
 285              		.align	2
 286              		.globl	_ZN10Ksemaphore14closeSemaphoreEv
 288              	_ZN10Ksemaphore14closeSemaphoreEv:
 289              	.LFB38:
GAS LISTING /tmp/ccjrtqfq.s 			page 8


  29:src/Ksemaphore.cpp **** 
  30:src/Ksemaphore.cpp **** Ksemaphore *Ksemaphore::createSemaphore(unsigned int init) {
  31:src/Ksemaphore.cpp ****     Ksemaphore* ksem = (Ksemaphore*) new Ksemaphore(init);
  32:src/Ksemaphore.cpp ****     ksem->val=init;
  33:src/Ksemaphore.cpp ****     return ksem;
  34:src/Ksemaphore.cpp **** }
  35:src/Ksemaphore.cpp **** 
  36:src/Ksemaphore.cpp **** int Ksemaphore::closeSemaphore(){
 290              		.loc 1 36 33 is_stmt 1
 291              		.cfi_startproc
 292              	.LVL27:
 293 0178 130101FE 		addi	sp,sp,-32
 294              		.cfi_def_cfa_offset 32
 295 017c 233C1100 		sd	ra,24(sp)
 296 0180 23388100 		sd	s0,16(sp)
 297 0184 23349100 		sd	s1,8(sp)
 298              		.cfi_offset 1, -8
 299              		.cfi_offset 8, -16
 300              		.cfi_offset 9, -24
 301 0188 13040102 		addi	s0,sp,32
 302              		.cfi_def_cfa 8, 0
 303 018c 93040500 		mv	s1,a0
 304 0190 6F004002 		j	.L29
 305              	.LVL28:
 306              	.L31:
 307              	.LBB34:
 308              	.LBB35:
  66:src/../h/list.hpp **** 
 309              		.loc 2 66 22 is_stmt 0
 310 0194 23B80400 		sd	zero,16(s1)
 311              	.L28:
  68:src/../h/list.hpp **** //        delete elem;
 312              		.loc 2 68 12
 313 0198 03B50700 		ld	a0,0(a5)
 314              	.LVL29:
 315              		.loc 2 70 9
 316 019c 83A78401 		lw	a5,24(s1)
 317              	.LVL30:
 318 01a0 9B87F7FF 		addiw	a5,a5,-1
 319 01a4 23ACF400 		sw	a5,24(s1)
 320              	.LVL31:
 321              	.LBE35:
 322              	.LBE34:
  37:src/Ksemaphore.cpp ****     TCB* tcb;
  38:src/Ksemaphore.cpp ****     while((tcb=blocked.removeFirst())!= nullptr){
 323              		.loc 1 38 38
 324 01a8 63020502 		beqz	a0,.L27
  39:src/Ksemaphore.cpp **** //        tcb=blocked.removeFirst();
  40:src/Ksemaphore.cpp ****         Scheduler::put(tcb);
 325              		.loc 1 40 9 is_stmt 1
 326              		.loc 1 40 23 is_stmt 0
 327 01ac 97000000 		call	_ZN9Scheduler3putEP3TCB@plt
 327      E7800000 
 328              	.LVL32:
 329              	.L29:
  37:src/Ksemaphore.cpp ****     TCB* tcb;
 330              		.loc 1 37 5 is_stmt 1
GAS LISTING /tmp/ccjrtqfq.s 			page 9


  38:src/Ksemaphore.cpp **** //        tcb=blocked.removeFirst();
 331              		.loc 1 38 5
  38:src/Ksemaphore.cpp **** //        tcb=blocked.removeFirst();
 332              		.loc 1 38 38
 333              	.LBB37:
 334              	.LBB36:
  62:src/../h/list.hpp **** 
 335              		.loc 2 62 14 is_stmt 0
 336 01b4 83B78400 		ld	a5,8(s1)
  62:src/../h/list.hpp **** 
 337              		.loc 2 62 9
 338 01b8 638A0700 		beqz	a5,.L27
 339              	.LVL33:
  65:src/../h/list.hpp ****         if (!head) { tail = 0; }
 340              		.loc 2 65 22
 341 01bc 03B78700 		ld	a4,8(a5)
  65:src/../h/list.hpp ****         if (!head) { tail = 0; }
 342              		.loc 2 65 9
 343 01c0 23B4E400 		sd	a4,8(s1)
  66:src/../h/list.hpp **** 
 344              		.loc 2 66 9
 345 01c4 E31A07FC 		bnez	a4,.L28
 346 01c8 6FF0DFFC 		j	.L31
 347              	.LVL34:
 348              	.L27:
 349              	.LBE36:
 350              	.LBE37:
  41:src/Ksemaphore.cpp ****     }
  42:src/Ksemaphore.cpp **** 
  43:src/Ksemaphore.cpp ****     return 0;
 351              		.loc 1 43 5 is_stmt 1
  44:src/Ksemaphore.cpp **** }
 352              		.loc 1 44 1 is_stmt 0
 353 01cc 13050000 		li	a0,0
 354 01d0 83308101 		ld	ra,24(sp)
 355              		.cfi_restore 1
 356 01d4 03340101 		ld	s0,16(sp)
 357              		.cfi_restore 8
 358              		.cfi_def_cfa 2, 32
 359 01d8 83348100 		ld	s1,8(sp)
 360              		.cfi_restore 9
 361              	.LVL35:
 362 01dc 13010102 		addi	sp,sp,32
 363              		.cfi_def_cfa_offset 0
 364 01e0 67800000 		jr	ra
 365              		.cfi_endproc
 366              	.LFE38:
 368              		.align	2
 369              		.globl	_ZN10KsemaphoredlEPv
 371              	_ZN10KsemaphoredlEPv:
 372              	.LFB39:
  45:src/Ksemaphore.cpp **** void Ksemaphore::operator delete(void *p) {
 373              		.loc 1 45 43 is_stmt 1
 374              		.cfi_startproc
 375              	.LVL36:
 376 01e4 130101FF 		addi	sp,sp,-16
 377              		.cfi_def_cfa_offset 16
GAS LISTING /tmp/ccjrtqfq.s 			page 10


 378 01e8 23341100 		sd	ra,8(sp)
 379 01ec 23308100 		sd	s0,0(sp)
 380              		.cfi_offset 1, -8
 381              		.cfi_offset 8, -16
 382 01f0 13040101 		addi	s0,sp,16
 383              		.cfi_def_cfa 8, 0
  46:src/Ksemaphore.cpp ****     MemoryAllocator::free(p);
 384              		.loc 1 46 5
 385              		.loc 1 46 26 is_stmt 0
 386 01f4 97000000 		call	_ZN15MemoryAllocator4freeEPv@plt
 386      E7800000 
 387              	.LVL37:
  47:src/Ksemaphore.cpp ****     return;
 388              		.loc 1 47 5 is_stmt 1
  48:src/Ksemaphore.cpp **** }
 389              		.loc 1 48 1 is_stmt 0
 390 01fc 83308100 		ld	ra,8(sp)
 391              		.cfi_restore 1
 392 0200 03340100 		ld	s0,0(sp)
 393              		.cfi_restore 8
 394              		.cfi_def_cfa 2, 16
 395 0204 13010101 		addi	sp,sp,16
 396              		.cfi_def_cfa_offset 0
 397 0208 67800000 		jr	ra
 398              		.cfi_endproc
 399              	.LFE39:
 401              		.align	2
 402              		.globl	_ZN10KsemaphorenwEm
 404              	_ZN10KsemaphorenwEm:
 405              	.LFB40:
  49:src/Ksemaphore.cpp **** 
  50:src/Ksemaphore.cpp **** void *Ksemaphore::operator new(size_t n) {
 406              		.loc 1 50 42 is_stmt 1
 407              		.cfi_startproc
 408              	.LVL38:
 409 020c 130101FF 		addi	sp,sp,-16
 410              		.cfi_def_cfa_offset 16
 411 0210 23341100 		sd	ra,8(sp)
 412 0214 23308100 		sd	s0,0(sp)
 413              		.cfi_offset 1, -8
 414              		.cfi_offset 8, -16
 415 0218 13040101 		addi	s0,sp,16
 416              		.cfi_def_cfa 8, 0
  51:src/Ksemaphore.cpp ****     return MemoryAllocator::malloc(sizeof (Ksemaphore));
 417              		.loc 1 51 5
 418              		.loc 1 51 35 is_stmt 0
 419 021c 13050002 		li	a0,32
 420              	.LVL39:
 421 0220 97000000 		call	_ZN15MemoryAllocator6mallocEm@plt
 421      E7800000 
 422              	.LVL40:
  52:src/Ksemaphore.cpp **** }
 423              		.loc 1 52 1
 424 0228 83308100 		ld	ra,8(sp)
 425              		.cfi_restore 1
 426 022c 03340100 		ld	s0,0(sp)
 427              		.cfi_restore 8
GAS LISTING /tmp/ccjrtqfq.s 			page 11


 428              		.cfi_def_cfa 2, 16
 429 0230 13010101 		addi	sp,sp,16
 430              		.cfi_def_cfa_offset 0
 431 0234 67800000 		jr	ra
 432              		.cfi_endproc
 433              	.LFE40:
 435              		.align	2
 436              		.globl	_ZN10Ksemaphore15createSemaphoreEj
 438              	_ZN10Ksemaphore15createSemaphoreEj:
 439              	.LFB37:
  30:src/Ksemaphore.cpp ****     Ksemaphore* ksem = (Ksemaphore*) new Ksemaphore(init);
 440              		.loc 1 30 60 is_stmt 1
 441              		.cfi_startproc
 442              	.LVL41:
 443 0238 130101FE 		addi	sp,sp,-32
 444              		.cfi_def_cfa_offset 32
 445 023c 233C1100 		sd	ra,24(sp)
 446 0240 23388100 		sd	s0,16(sp)
 447 0244 23349100 		sd	s1,8(sp)
 448              		.cfi_offset 1, -8
 449              		.cfi_offset 8, -16
 450              		.cfi_offset 9, -24
 451 0248 13040102 		addi	s0,sp,32
 452              		.cfi_def_cfa 8, 0
 453 024c 93040500 		mv	s1,a0
  31:src/Ksemaphore.cpp ****     ksem->val=init;
 454              		.loc 1 31 5
  31:src/Ksemaphore.cpp ****     ksem->val=init;
 455              		.loc 1 31 57 is_stmt 0
 456 0250 13050002 		li	a0,32
 457              	.LVL42:
 458 0254 97000000 		call	_ZN10KsemaphorenwEm
 458      E7800000 
 459              	.LVL43:
 460              	.LBB38:
 461              	.LBB39:
 462              		.file 3 "src/../h/Ksemaphore.hpp"
   1:src/../h/Ksemaphore.hpp **** #ifndef PROJECT_BASE_KSEMAPHORE_HPP
   2:src/../h/Ksemaphore.hpp **** #define PROJECT_BASE_KSEMAPHORE_HPP
   3:src/../h/Ksemaphore.hpp **** #include "scheduler.hpp"
   4:src/../h/Ksemaphore.hpp **** #include "TCB.hpp"
   5:src/../h/Ksemaphore.hpp **** #include "../lib/hw.h"
   6:src/../h/Ksemaphore.hpp **** 
   7:src/../h/Ksemaphore.hpp **** typedef Ksemaphore* sem_t;
   8:src/../h/Ksemaphore.hpp **** 
   9:src/../h/Ksemaphore.hpp **** 
  10:src/../h/Ksemaphore.hpp **** class Ksemaphore{
  11:src/../h/Ksemaphore.hpp ****     Ksemaphore(unsigned init =1):val(init){}
 463              		.loc 3 11 42
 464 025c 23209500 		sw	s1,0(a0)
 465              	.LVL44:
 466              	.LBB40:
 467              	.LBB41:
  28:src/../h/list.hpp **** 
 468              		.loc 2 28 37
 469 0260 23340500 		sd	zero,8(a0)
 470 0264 23380500 		sd	zero,16(a0)
GAS LISTING /tmp/ccjrtqfq.s 			page 12


 471 0268 232C0500 		sw	zero,24(a0)
 472              	.LVL45:
 473              	.LBE41:
 474              	.LBE40:
 475              	.LBE39:
 476              	.LBE38:
  32:src/Ksemaphore.cpp ****     return ksem;
 477              		.loc 1 32 5 is_stmt 1
  33:src/Ksemaphore.cpp **** }
 478              		.loc 1 33 5
  34:src/Ksemaphore.cpp **** 
 479              		.loc 1 34 1 is_stmt 0
 480 026c 83308101 		ld	ra,24(sp)
 481              		.cfi_restore 1
 482 0270 03340101 		ld	s0,16(sp)
 483              		.cfi_restore 8
 484              		.cfi_def_cfa 2, 32
 485 0274 83348100 		ld	s1,8(sp)
 486              		.cfi_restore 9
 487 0278 13010102 		addi	sp,sp,32
 488              		.cfi_def_cfa_offset 0
 489 027c 67800000 		jr	ra
 490              		.cfi_endproc
 491              	.LFE37:
 493              	.Letext0:
 494              		.file 4 "src/../h/../lib/hw.h"
 495              		.file 5 "src/../h/MemoryAllocator.hpp"
 496              		.file 6 "src/../h/scheduler.hpp"
 497              		.file 7 "src/../h/TCB.hpp"
GAS LISTING /tmp/ccjrtqfq.s 			page 13


DEFINED SYMBOLS
                            *ABS*:0000000000000000 Ksemaphore.cpp
     /tmp/ccjrtqfq.s:9      .text:0000000000000000 _ZN10Ksemaphore5blockEv
     /tmp/ccjrtqfq.s:13     .text:0000000000000000 .L0 
     /tmp/ccjrtqfq.s:15     .text:0000000000000000 .L0 
     /tmp/ccjrtqfq.s:16     .text:0000000000000004 .L0 
     /tmp/ccjrtqfq.s:22     .text:0000000000000018 .L0 
     /tmp/ccjrtqfq.s:23     .text:0000000000000018 .L0 
     /tmp/ccjrtqfq.s:24     .text:0000000000000018 .L0 
     /tmp/ccjrtqfq.s:25     .text:0000000000000018 .L0 
     /tmp/ccjrtqfq.s:26     .text:0000000000000018 .L0 
     /tmp/ccjrtqfq.s:28     .text:000000000000001c .L0 
     /tmp/ccjrtqfq.s:31     .text:0000000000000020 .L0 
     /tmp/ccjrtqfq.s:32     .text:0000000000000020 .L0 
     /tmp/ccjrtqfq.s:36     .text:000000000000002c .L0 
     /tmp/ccjrtqfq.s:37     .text:000000000000002c .L0 
     /tmp/ccjrtqfq.s:43     .text:0000000000000030 .L0 
     /tmp/ccjrtqfq.s:50     .text:000000000000003c .L0 
     /tmp/ccjrtqfq.s:56     .text:0000000000000044 .L0 
     /tmp/ccjrtqfq.s:58     .text:0000000000000048 .L0 
     /tmp/ccjrtqfq.s:60     .text:000000000000004c .L0 
     /tmp/ccjrtqfq.s:62     .text:0000000000000050 .L0 
     /tmp/ccjrtqfq.s:65     .text:0000000000000054 .L0 
     /tmp/ccjrtqfq.s:72     .text:0000000000000060 .L0 
     /tmp/ccjrtqfq.s:73     .text:0000000000000064 .L0 
     /tmp/ccjrtqfq.s:74     .text:0000000000000064 .L0 
     /tmp/ccjrtqfq.s:76     .text:0000000000000068 .L0 
     /tmp/ccjrtqfq.s:77     .text:0000000000000068 .L0 
     /tmp/ccjrtqfq.s:79     .text:000000000000006c .L0 
     /tmp/ccjrtqfq.s:81     .text:0000000000000070 .L0 
     /tmp/ccjrtqfq.s:84     .text:0000000000000074 .L0 
     /tmp/ccjrtqfq.s:87     .text:0000000000000078 .L0 
     /tmp/ccjrtqfq.s:91     .text:000000000000007c .L0 
     /tmp/ccjrtqfq.s:95     .text:000000000000007c .L0 
     /tmp/ccjrtqfq.s:100    .text:0000000000000088 .L0 
     /tmp/ccjrtqfq.s:106    .text:0000000000000088 _ZN10Ksemaphore7unblockEv
     /tmp/ccjrtqfq.s:109    .text:0000000000000088 .L0 
     /tmp/ccjrtqfq.s:111    .text:0000000000000088 .L0 
     /tmp/ccjrtqfq.s:112    .text:000000000000008c .L0 
     /tmp/ccjrtqfq.s:115    .text:0000000000000094 .L0 
     /tmp/ccjrtqfq.s:116    .text:0000000000000094 .L0 
     /tmp/ccjrtqfq.s:118    .text:0000000000000098 .L0 
     /tmp/ccjrtqfq.s:124    .text:000000000000009c .L0 
     /tmp/ccjrtqfq.s:125    .text:000000000000009c .L0 
     /tmp/ccjrtqfq.s:128    .text:00000000000000a0 .L0 
     /tmp/ccjrtqfq.s:131    .text:00000000000000a4 .L0 
     /tmp/ccjrtqfq.s:133    .text:00000000000000a8 .L0 
     /tmp/ccjrtqfq.s:135    .text:00000000000000ac .L0 
     /tmp/ccjrtqfq.s:138    .text:00000000000000b0 .L0 
     /tmp/ccjrtqfq.s:141    .text:00000000000000b4 .L0 
     /tmp/ccjrtqfq.s:149    .text:00000000000000c0 .L0 
     /tmp/ccjrtqfq.s:150    .text:00000000000000c0 .L0 
     /tmp/ccjrtqfq.s:153    .text:00000000000000c8 .L0 
     /tmp/ccjrtqfq.s:154    .text:00000000000000cc .L0 
     /tmp/ccjrtqfq.s:155    .text:00000000000000cc .L0 
     /tmp/ccjrtqfq.s:157    .text:00000000000000d0 .L0 
     /tmp/ccjrtqfq.s:158    .text:00000000000000d0 .L0 
GAS LISTING /tmp/ccjrtqfq.s 			page 14


     /tmp/ccjrtqfq.s:160    .text:00000000000000d4 .L0 
     /tmp/ccjrtqfq.s:164    .text:00000000000000d8 .L0 
     /tmp/ccjrtqfq.s:168    .text:00000000000000d8 .L0 
     /tmp/ccjrtqfq.s:172    .text:00000000000000e0 .L0 
     /tmp/ccjrtqfq.s:178    .text:00000000000000e0 _ZN10Ksemaphore4waitEv
     /tmp/ccjrtqfq.s:181    .text:00000000000000e0 .L0 
     /tmp/ccjrtqfq.s:183    .text:00000000000000e0 .L0 
     /tmp/ccjrtqfq.s:184    .text:00000000000000e0 .L0 
     /tmp/ccjrtqfq.s:185    .text:00000000000000e0 .L0 
     /tmp/ccjrtqfq.s:187    .text:00000000000000e4 .L0 
     /tmp/ccjrtqfq.s:189    .text:00000000000000e8 .L0 
     /tmp/ccjrtqfq.s:191    .text:00000000000000ec .L0 
     /tmp/ccjrtqfq.s:194    .text:00000000000000f4 .L0 
     /tmp/ccjrtqfq.s:197    .text:00000000000000f8 .L0 
     /tmp/ccjrtqfq.s:201    .text:00000000000000fc .L0 
     /tmp/ccjrtqfq.s:202    .text:0000000000000100 .L0 
     /tmp/ccjrtqfq.s:205    .text:0000000000000108 .L0 
     /tmp/ccjrtqfq.s:206    .text:0000000000000108 .L0 
     /tmp/ccjrtqfq.s:208    .text:000000000000010c .L0 
     /tmp/ccjrtqfq.s:210    .text:000000000000010c .L0 
     /tmp/ccjrtqfq.s:211    .text:000000000000010c .L0 
     /tmp/ccjrtqfq.s:214    .text:0000000000000114 .L0 
     /tmp/ccjrtqfq.s:215    .text:0000000000000114 .L0 
     /tmp/ccjrtqfq.s:218    .text:000000000000011c .L0 
     /tmp/ccjrtqfq.s:219    .text:000000000000011c .L0 
     /tmp/ccjrtqfq.s:221    .text:0000000000000120 .L0 
     /tmp/ccjrtqfq.s:222    .text:0000000000000124 .L0 
     /tmp/ccjrtqfq.s:224    .text:0000000000000128 .L0 
     /tmp/ccjrtqfq.s:225    .text:0000000000000128 .L0 
     /tmp/ccjrtqfq.s:227    .text:000000000000012c .L0 
     /tmp/ccjrtqfq.s:229    .text:0000000000000130 .L0 
     /tmp/ccjrtqfq.s:235    .text:0000000000000130 _ZN10Ksemaphore6signalEv
     /tmp/ccjrtqfq.s:238    .text:0000000000000130 .L0 
     /tmp/ccjrtqfq.s:240    .text:0000000000000130 .L0 
     /tmp/ccjrtqfq.s:241    .text:0000000000000130 .L0 
     /tmp/ccjrtqfq.s:242    .text:0000000000000130 .L0 
     /tmp/ccjrtqfq.s:244    .text:0000000000000134 .L0 
     /tmp/ccjrtqfq.s:247    .text:000000000000013c .L0 
     /tmp/ccjrtqfq.s:249    .text:0000000000000140 .L0 
     /tmp/ccjrtqfq.s:251    .text:0000000000000144 .L0 
     /tmp/ccjrtqfq.s:254    .text:0000000000000148 .L0 
     /tmp/ccjrtqfq.s:258    .text:000000000000014c .L0 
     /tmp/ccjrtqfq.s:259    .text:0000000000000150 .L0 
     /tmp/ccjrtqfq.s:262    .text:0000000000000158 .L0 
     /tmp/ccjrtqfq.s:263    .text:0000000000000158 .L0 
     /tmp/ccjrtqfq.s:265    .text:000000000000015c .L0 
     /tmp/ccjrtqfq.s:267    .text:000000000000015c .L0 
     /tmp/ccjrtqfq.s:268    .text:000000000000015c .L0 
     /tmp/ccjrtqfq.s:271    .text:0000000000000164 .L0 
     /tmp/ccjrtqfq.s:272    .text:0000000000000164 .L0 
     /tmp/ccjrtqfq.s:274    .text:0000000000000168 .L0 
     /tmp/ccjrtqfq.s:275    .text:000000000000016c .L0 
     /tmp/ccjrtqfq.s:277    .text:0000000000000170 .L0 
     /tmp/ccjrtqfq.s:278    .text:0000000000000170 .L0 
     /tmp/ccjrtqfq.s:280    .text:0000000000000174 .L0 
     /tmp/ccjrtqfq.s:282    .text:0000000000000178 .L0 
     /tmp/ccjrtqfq.s:288    .text:0000000000000178 _ZN10Ksemaphore14closeSemaphoreEv
GAS LISTING /tmp/ccjrtqfq.s 			page 15


     /tmp/ccjrtqfq.s:291    .text:0000000000000178 .L0 
     /tmp/ccjrtqfq.s:293    .text:0000000000000178 .L0 
     /tmp/ccjrtqfq.s:294    .text:000000000000017c .L0 
     /tmp/ccjrtqfq.s:298    .text:0000000000000188 .L0 
     /tmp/ccjrtqfq.s:299    .text:0000000000000188 .L0 
     /tmp/ccjrtqfq.s:300    .text:0000000000000188 .L0 
     /tmp/ccjrtqfq.s:302    .text:000000000000018c .L0 
     /tmp/ccjrtqfq.s:310    .text:0000000000000194 .L0 
     /tmp/ccjrtqfq.s:313    .text:0000000000000198 .L0 
     /tmp/ccjrtqfq.s:316    .text:000000000000019c .L0 
     /tmp/ccjrtqfq.s:324    .text:00000000000001a8 .L0 
     /tmp/ccjrtqfq.s:326    .text:00000000000001ac .L0 
     /tmp/ccjrtqfq.s:327    .text:00000000000001ac .L0 
     /tmp/ccjrtqfq.s:331    .text:00000000000001b4 .L0 
     /tmp/ccjrtqfq.s:332    .text:00000000000001b4 .L0 
     /tmp/ccjrtqfq.s:335    .text:00000000000001b4 .L0 
     /tmp/ccjrtqfq.s:336    .text:00000000000001b4 .L0 
     /tmp/ccjrtqfq.s:338    .text:00000000000001b8 .L0 
     /tmp/ccjrtqfq.s:341    .text:00000000000001bc .L0 
     /tmp/ccjrtqfq.s:343    .text:00000000000001c0 .L0 
     /tmp/ccjrtqfq.s:345    .text:00000000000001c4 .L0 
     /tmp/ccjrtqfq.s:352    .text:00000000000001cc .L0 
     /tmp/ccjrtqfq.s:353    .text:00000000000001cc .L0 
     /tmp/ccjrtqfq.s:355    .text:00000000000001d4 .L0 
     /tmp/ccjrtqfq.s:357    .text:00000000000001d8 .L0 
     /tmp/ccjrtqfq.s:358    .text:00000000000001d8 .L0 
     /tmp/ccjrtqfq.s:360    .text:00000000000001dc .L0 
     /tmp/ccjrtqfq.s:363    .text:00000000000001e0 .L0 
     /tmp/ccjrtqfq.s:365    .text:00000000000001e4 .L0 
     /tmp/ccjrtqfq.s:371    .text:00000000000001e4 _ZN10KsemaphoredlEPv
     /tmp/ccjrtqfq.s:374    .text:00000000000001e4 .L0 
     /tmp/ccjrtqfq.s:376    .text:00000000000001e4 .L0 
     /tmp/ccjrtqfq.s:377    .text:00000000000001e8 .L0 
     /tmp/ccjrtqfq.s:380    .text:00000000000001f0 .L0 
     /tmp/ccjrtqfq.s:381    .text:00000000000001f0 .L0 
     /tmp/ccjrtqfq.s:383    .text:00000000000001f4 .L0 
     /tmp/ccjrtqfq.s:385    .text:00000000000001f4 .L0 
     /tmp/ccjrtqfq.s:386    .text:00000000000001f4 .L0 
     /tmp/ccjrtqfq.s:389    .text:00000000000001fc .L0 
     /tmp/ccjrtqfq.s:390    .text:00000000000001fc .L0 
     /tmp/ccjrtqfq.s:391    .text:0000000000000200 .L0 
     /tmp/ccjrtqfq.s:393    .text:0000000000000204 .L0 
     /tmp/ccjrtqfq.s:394    .text:0000000000000204 .L0 
     /tmp/ccjrtqfq.s:396    .text:0000000000000208 .L0 
     /tmp/ccjrtqfq.s:398    .text:000000000000020c .L0 
     /tmp/ccjrtqfq.s:404    .text:000000000000020c _ZN10KsemaphorenwEm
     /tmp/ccjrtqfq.s:407    .text:000000000000020c .L0 
     /tmp/ccjrtqfq.s:409    .text:000000000000020c .L0 
     /tmp/ccjrtqfq.s:410    .text:0000000000000210 .L0 
     /tmp/ccjrtqfq.s:413    .text:0000000000000218 .L0 
     /tmp/ccjrtqfq.s:414    .text:0000000000000218 .L0 
     /tmp/ccjrtqfq.s:416    .text:000000000000021c .L0 
     /tmp/ccjrtqfq.s:418    .text:000000000000021c .L0 
     /tmp/ccjrtqfq.s:419    .text:000000000000021c .L0 
     /tmp/ccjrtqfq.s:424    .text:0000000000000228 .L0 
     /tmp/ccjrtqfq.s:425    .text:000000000000022c .L0 
     /tmp/ccjrtqfq.s:427    .text:0000000000000230 .L0 
GAS LISTING /tmp/ccjrtqfq.s 			page 16


     /tmp/ccjrtqfq.s:428    .text:0000000000000230 .L0 
     /tmp/ccjrtqfq.s:430    .text:0000000000000234 .L0 
     /tmp/ccjrtqfq.s:432    .text:0000000000000238 .L0 
     /tmp/ccjrtqfq.s:438    .text:0000000000000238 _ZN10Ksemaphore15createSemaphoreEj
     /tmp/ccjrtqfq.s:441    .text:0000000000000238 .L0 
     /tmp/ccjrtqfq.s:443    .text:0000000000000238 .L0 
     /tmp/ccjrtqfq.s:444    .text:000000000000023c .L0 
     /tmp/ccjrtqfq.s:448    .text:0000000000000248 .L0 
     /tmp/ccjrtqfq.s:449    .text:0000000000000248 .L0 
     /tmp/ccjrtqfq.s:450    .text:0000000000000248 .L0 
     /tmp/ccjrtqfq.s:452    .text:000000000000024c .L0 
     /tmp/ccjrtqfq.s:455    .text:0000000000000250 .L0 
     /tmp/ccjrtqfq.s:456    .text:0000000000000250 .L0 
     /tmp/ccjrtqfq.s:464    .text:000000000000025c .L0 
     /tmp/ccjrtqfq.s:469    .text:0000000000000260 .L0 
     /tmp/ccjrtqfq.s:478    .text:000000000000026c .L0 
     /tmp/ccjrtqfq.s:479    .text:000000000000026c .L0 
     /tmp/ccjrtqfq.s:480    .text:000000000000026c .L0 
     /tmp/ccjrtqfq.s:481    .text:0000000000000270 .L0 
     /tmp/ccjrtqfq.s:483    .text:0000000000000274 .L0 
     /tmp/ccjrtqfq.s:484    .text:0000000000000274 .L0 
     /tmp/ccjrtqfq.s:486    .text:0000000000000278 .L0 
     /tmp/ccjrtqfq.s:488    .text:000000000000027c .L0 
     /tmp/ccjrtqfq.s:490    .text:0000000000000280 .L0 
     /tmp/ccjrtqfq.s:498    .text:0000000000000280 .L0 
     /tmp/ccjrtqfq.s:32     .text:0000000000000020 .L0 
     /tmp/ccjrtqfq.s:90     .text:000000000000007c .L2
     /tmp/ccjrtqfq.s:63     .text:0000000000000054 .L3
     /tmp/ccjrtqfq.s:145    .text:00000000000000c0 .L6
     /tmp/ccjrtqfq.s:163    .text:00000000000000d8 .L9
     /tmp/ccjrtqfq.s:136    .text:00000000000000b0 .L7
     /tmp/ccjrtqfq.s:199    .text:00000000000000fc .L17
     /tmp/ccjrtqfq.s:256    .text:000000000000014c .L25
     /tmp/ccjrtqfq.s:329    .text:00000000000001b4 .L29
     /tmp/ccjrtqfq.s:348    .text:00000000000001cc .L27
     /tmp/ccjrtqfq.s:311    .text:0000000000000198 .L28
     /tmp/ccjrtqfq.s:306    .text:0000000000000194 .L31
     /tmp/ccjrtqfq.s:2138   .debug_abbrev:0000000000000000 .Ldebug_abbrev0
     /tmp/ccjrtqfq.s:3940   .debug_str:0000000000000862 .LASF159
     /tmp/ccjrtqfq.s:3976   .debug_str:0000000000000a59 .LASF160
     /tmp/ccjrtqfq.s:3770   .debug_str:0000000000000325 .LASF161
     /tmp/ccjrtqfq.s:5      .text:0000000000000000 .Ltext0
     /tmp/ccjrtqfq.s:493    .text:0000000000000280 .Letext0
     /tmp/ccjrtqfq.s:3668   .debug_line:0000000000000000 .Ldebug_line0
     /tmp/ccjrtqfq.s:3790   .debug_str:00000000000003cf .LASF0
     /tmp/ccjrtqfq.s:3812   .debug_str:0000000000000483 .LASF1
     /tmp/ccjrtqfq.s:3896   .debug_str:000000000000073a .LASF2
     /tmp/ccjrtqfq.s:3900   .debug_str:0000000000000752 .LASF4
     /tmp/ccjrtqfq.s:3798   .debug_str:0000000000000407 .LASF3
     /tmp/ccjrtqfq.s:3686   .debug_str:0000000000000082 .LASF5
     /tmp/ccjrtqfq.s:3870   .debug_str:0000000000000645 .LASF6
     /tmp/ccjrtqfq.s:3806   .debug_str:0000000000000466 .LASF7
     /tmp/ccjrtqfq.s:3766   .debug_str:0000000000000304 .LASF8
     /tmp/ccjrtqfq.s:3774   .debug_str:000000000000034f .LASF9
     /tmp/ccjrtqfq.s:3716   .debug_str:0000000000000172 .LASF10
     /tmp/ccjrtqfq.s:3756   .debug_str:00000000000002a0 .LASF11
     /tmp/ccjrtqfq.s:3728   .debug_str:00000000000001ae .LASF12
GAS LISTING /tmp/ccjrtqfq.s 			page 17


     /tmp/ccjrtqfq.s:3714   .debug_str:0000000000000162 .LASF13
     /tmp/ccjrtqfq.s:3926   .debug_str:000000000000082a .LASF14
     /tmp/ccjrtqfq.s:3744   .debug_str:000000000000020e .LASF15
     /tmp/ccjrtqfq.s:3916   .debug_str:00000000000007b6 .LASF16
     /tmp/ccjrtqfq.s:3866   .debug_str:0000000000000629 .LASF30
     /tmp/ccjrtqfq.s:3694   .debug_str:00000000000000b8 .LASF52
     /tmp/ccjrtqfq.s:3718   .debug_str:0000000000000181 .LASF17
     /tmp/ccjrtqfq.s:3692   .debug_str:00000000000000b3 .LASF18
     /tmp/ccjrtqfq.s:3810   .debug_str:000000000000047e .LASF19
     /tmp/ccjrtqfq.s:3720   .debug_str:0000000000000186 .LASF20
     /tmp/ccjrtqfq.s:3850   .debug_str:00000000000005cd .LASF21
     /tmp/ccjrtqfq.s:3912   .debug_str:000000000000079f .LASF22
     /tmp/ccjrtqfq.s:3784   .debug_str:00000000000003ab .LASF23
     /tmp/ccjrtqfq.s:3872   .debug_str:0000000000000658 .LASF25
     /tmp/ccjrtqfq.s:3948   .debug_str:000000000000094f .LASF24
     /tmp/ccjrtqfq.s:3742   .debug_str:00000000000001ed .LASF26
     /tmp/ccjrtqfq.s:3982   .debug_str:0000000000000a8a .LASF98
     /tmp/ccjrtqfq.s:3840   .debug_str:0000000000000575 .LASF100
     /tmp/ccjrtqfq.s:3672   .debug_str:000000000000000f .LASF32
     /tmp/ccjrtqfq.s:3818   .debug_str:00000000000004a7 .LASF34
     /tmp/ccjrtqfq.s:3954   .debug_str:000000000000097d .LASF27
     /tmp/ccjrtqfq.s:3800   .debug_str:0000000000000419 .LASF28
     /tmp/ccjrtqfq.s:3934   .debug_str:0000000000000850 .LASF29
     /tmp/ccjrtqfq.s:3764   .debug_str:00000000000002fa .LASF31
     /tmp/ccjrtqfq.s:4000   .debug_str:0000000000000b59 .LASF33
     /tmp/ccjrtqfq.s:3702   .debug_str:00000000000000ec .LASF35
     /tmp/ccjrtqfq.s:3676   .debug_str:000000000000001b .LASF36
     /tmp/ccjrtqfq.s:3862   .debug_str:000000000000060f .LASF37
     /tmp/ccjrtqfq.s:3910   .debug_str:000000000000078e .LASF38
     /tmp/ccjrtqfq.s:3726   .debug_str:00000000000001a5 .LASF39
     /tmp/ccjrtqfq.s:3990   .debug_str:0000000000000ad8 .LASF40
     /tmp/ccjrtqfq.s:3994   .debug_str:0000000000000b0b .LASF162
     /tmp/ccjrtqfq.s:3786   .debug_str:00000000000003b1 .LASF163
     /tmp/ccjrtqfq.s:3704   .debug_str:00000000000000fe .LASF41
     /tmp/ccjrtqfq.s:3776   .debug_str:000000000000035d .LASF42
     /tmp/ccjrtqfq.s:3906   .debug_str:000000000000076f .LASF43
     /tmp/ccjrtqfq.s:3760   .debug_str:00000000000002d2 .LASF44
     /tmp/ccjrtqfq.s:3740   .debug_str:00000000000001e5 .LASF45
     /tmp/ccjrtqfq.s:3712   .debug_str:000000000000014a .LASF47
     /tmp/ccjrtqfq.s:3762   .debug_str:00000000000002f2 .LASF46
     /tmp/ccjrtqfq.s:3980   .debug_str:0000000000000a72 .LASF48
     /tmp/ccjrtqfq.s:3986   .debug_str:0000000000000ab3 .LASF49
     /tmp/ccjrtqfq.s:3804   .debug_str:0000000000000449 .LASF50
     /tmp/ccjrtqfq.s:3972   .debug_str:0000000000000a31 .LASF51
     /tmp/ccjrtqfq.s:3962   .debug_str:00000000000009b5 .LASF53
     /tmp/ccjrtqfq.s:3808   .debug_str:0000000000000479 .LASF54
     /tmp/ccjrtqfq.s:3998   .debug_str:0000000000000b3a .LASF116
     /tmp/ccjrtqfq.s:3920   .debug_str:00000000000007df .LASF55
     /tmp/ccjrtqfq.s:3842   .debug_str:00000000000005a1 .LASF56
     /tmp/ccjrtqfq.s:3918   .debug_str:00000000000007cc .LASF57
     /tmp/ccjrtqfq.s:3752   .debug_str:0000000000000275 .LASF61
     /tmp/ccjrtqfq.s:3898   .debug_str:0000000000000748 .LASF164
     /tmp/ccjrtqfq.s:3890   .debug_str:000000000000070a .LASF165
     /tmp/ccjrtqfq.s:3878   .debug_str:00000000000006aa .LASF58
     /tmp/ccjrtqfq.s:3852   .debug_str:00000000000005d2 .LASF59
     /tmp/ccjrtqfq.s:3864   .debug_str:0000000000000622 .LASF60
     /tmp/ccjrtqfq.s:3778   .debug_str:000000000000037b .LASF62
GAS LISTING /tmp/ccjrtqfq.s 			page 18


     /tmp/ccjrtqfq.s:3892   .debug_str:0000000000000721 .LASF63
     /tmp/ccjrtqfq.s:3708   .debug_str:0000000000000116 .LASF64
     /tmp/ccjrtqfq.s:3832   .debug_str:0000000000000531 .LASF65
     /tmp/ccjrtqfq.s:3748   .debug_str:000000000000024a .LASF66
     /tmp/ccjrtqfq.s:3868   .debug_str:0000000000000639 .LASF67
     /tmp/ccjrtqfq.s:3974   .debug_str:0000000000000a3b .LASF68
     /tmp/ccjrtqfq.s:4004   .debug_str:0000000000000b71 .LASF69
     /tmp/ccjrtqfq.s:3996   .debug_str:0000000000000b1f .LASF70
     /tmp/ccjrtqfq.s:3792   .debug_str:00000000000003dc .LASF71
     /tmp/ccjrtqfq.s:3838   .debug_str:0000000000000558 .LASF72
     /tmp/ccjrtqfq.s:3886   .debug_str:00000000000006fc .LASF73
     /tmp/ccjrtqfq.s:3680   .debug_str:0000000000000034 .LASF74
     /tmp/ccjrtqfq.s:3930   .debug_str:000000000000083d .LASF75
     /tmp/ccjrtqfq.s:3706   .debug_str:0000000000000108 .LASF118
     /tmp/ccjrtqfq.s:3822   .debug_str:00000000000004d2 .LASF120
     /tmp/ccjrtqfq.s:3722   .debug_str:0000000000000194 .LASF108
     /tmp/ccjrtqfq.s:3902   .debug_str:0000000000000759 .LASF76
     /tmp/ccjrtqfq.s:3684   .debug_str:0000000000000076 .LASF77
     /tmp/ccjrtqfq.s:3932   .debug_str:0000000000000845 .LASF78
     /tmp/ccjrtqfq.s:3846   .debug_str:00000000000005ad .LASF79
     /tmp/ccjrtqfq.s:3700   .debug_str:00000000000000e0 .LASF80
     /tmp/ccjrtqfq.s:3956   .debug_str:0000000000000982 .LASF81
     /tmp/ccjrtqfq.s:3820   .debug_str:00000000000004c5 .LASF82
     /tmp/ccjrtqfq.s:3966   .debug_str:00000000000009de .LASF83
     /tmp/ccjrtqfq.s:3860   .debug_str:000000000000060a .LASF166
     /tmp/ccjrtqfq.s:3884   .debug_str:00000000000006f4 .LASF84
     /tmp/ccjrtqfq.s:3836   .debug_str:0000000000000546 .LASF85
     /tmp/ccjrtqfq.s:3844   .debug_str:00000000000005a6 .LASF86
     /tmp/ccjrtqfq.s:3690   .debug_str:00000000000000a2 .LASF87
     /tmp/ccjrtqfq.s:3978   .debug_str:0000000000000a6c .LASF88
     /tmp/ccjrtqfq.s:3828   .debug_str:0000000000000508 .LASF89
     /tmp/ccjrtqfq.s:3772   .debug_str:0000000000000343 .LASF90
     /tmp/ccjrtqfq.s:3834   .debug_str:0000000000000539 .LASF91
     /tmp/ccjrtqfq.s:3924   .debug_str:000000000000081d .LASF92
     /tmp/ccjrtqfq.s:3968   .debug_str:00000000000009f7 .LASF93
     /tmp/ccjrtqfq.s:3746   .debug_str:0000000000000224 .LASF94
     /tmp/ccjrtqfq.s:3922   .debug_str:00000000000007e4 .LASF95
     /tmp/ccjrtqfq.s:3750   .debug_str:0000000000000266 .LASF96
     /tmp/ccjrtqfq.s:3950   .debug_str:0000000000000959 .LASF97
     /tmp/ccjrtqfq.s:3816   .debug_str:00000000000004a1 .LASF99
     /tmp/ccjrtqfq.s:3944   .debug_str:0000000000000935 .LASF101
     /tmp/ccjrtqfq.s:3724   .debug_str:00000000000001a0 .LASF102
     /tmp/ccjrtqfq.s:3768   .debug_str:0000000000000314 .LASF103
     /tmp/ccjrtqfq.s:3958   .debug_str:0000000000000999 .LASF104
     /tmp/ccjrtqfq.s:3992   .debug_str:0000000000000aea .LASF105
     /tmp/ccjrtqfq.s:3938   .debug_str:000000000000085a .LASF106
     /tmp/ccjrtqfq.s:3780   .debug_str:0000000000000393 .LASF107
     /tmp/ccjrtqfq.s:3880   .debug_str:00000000000006bd .LASF109
     /tmp/ccjrtqfq.s:3674   .debug_str:0000000000000016 .LASF110
     /tmp/ccjrtqfq.s:3734   .debug_str:00000000000001d1 .LASF111
     /tmp/ccjrtqfq.s:3952   .debug_str:0000000000000975 .LASF112
     /tmp/ccjrtqfq.s:3946   .debug_str:0000000000000945 .LASF113
     /tmp/ccjrtqfq.s:3914   .debug_str:00000000000007ad .LASF114
     /tmp/ccjrtqfq.s:3730   .debug_str:00000000000001be .LASF115
     /tmp/ccjrtqfq.s:3682   .debug_str:000000000000004e .LASF117
     /tmp/ccjrtqfq.s:3736   .debug_str:00000000000001d7 .LASF119
     /tmp/ccjrtqfq.s:3802   .debug_str:0000000000000436 .LASF121
GAS LISTING /tmp/ccjrtqfq.s 			page 19


     /tmp/ccjrtqfq.s:3988   .debug_str:0000000000000abf .LASF122
     /tmp/ccjrtqfq.s:3964   .debug_str:00000000000009ba .LASF123
     /tmp/ccjrtqfq.s:4002   .debug_str:0000000000000b66 .LASF124
     /tmp/ccjrtqfq.s:3874   .debug_str:0000000000000675 .LASF125
     /tmp/ccjrtqfq.s:3936   .debug_str:0000000000000855 .LASF126
     /tmp/ccjrtqfq.s:3670   .debug_str:0000000000000000 .LASF127
     /tmp/ccjrtqfq.s:3904   .debug_str:000000000000075e .LASF128
     /tmp/ccjrtqfq.s:3678   .debug_str:000000000000002b .LASF129
     /tmp/ccjrtqfq.s:3888   .debug_str:0000000000000705 .LASF130
     /tmp/ccjrtqfq.s:3814   .debug_str:0000000000000496 .LASF131
     /tmp/ccjrtqfq.s:3858   .debug_str:00000000000005f6 .LASF132
     /tmp/ccjrtqfq.s:3738   .debug_str:00000000000001e0 .LASF133
     /tmp/ccjrtqfq.s:3710   .debug_str:0000000000000133 .LASF134
     /tmp/ccjrtqfq.s:3928   .debug_str:0000000000000836 .LASF135
     /tmp/ccjrtqfq.s:3688   .debug_str:0000000000000089 .LASF136
     /tmp/ccjrtqfq.s:3782   .debug_str:00000000000003a5 .LASF137
     /tmp/ccjrtqfq.s:3830   .debug_str:0000000000000518 .LASF138
     /tmp/ccjrtqfq.s:3894   .debug_str:000000000000072a .LASF139
     /tmp/ccjrtqfq.s:3758   .debug_str:00000000000002af .LASF140
     /tmp/ccjrtqfq.s:3942   .debug_str:0000000000000926 .LASF141
     /tmp/ccjrtqfq.s:3882   .debug_str:00000000000006d2 .LASF142
     /tmp/ccjrtqfq.s:3848   .debug_str:00000000000005c4 .LASF143
     /tmp/ccjrtqfq.s:3796   .debug_str:00000000000003ec .LASF144
     /tmp/ccjrtqfq.s:3788   .debug_str:00000000000003c9 .LASF145
     /tmp/ccjrtqfq.s:3826   .debug_str:00000000000004f0 .LASF146
     /tmp/ccjrtqfq.s:3854   .debug_str:00000000000005e6 .LASF147
     /tmp/ccjrtqfq.s:3970   .debug_str:0000000000000a17 .LASF148
     /tmp/ccjrtqfq.s:3908   .debug_str:000000000000077a .LASF149
     /tmp/ccjrtqfq.s:3984   .debug_str:0000000000000a9e .LASF150
     /tmp/ccjrtqfq.s:3856   .debug_str:00000000000005ee .LASF151
     /tmp/ccjrtqfq.s:3732   .debug_str:00000000000001cc .LASF152
     /tmp/ccjrtqfq.s:3876   .debug_str:000000000000068b .LASF154
     /tmp/ccjrtqfq.s:3794   .debug_str:00000000000003e7 .LASF153
     /tmp/ccjrtqfq.s:3698   .debug_str:00000000000000cd .LASF155
     /tmp/ccjrtqfq.s:405    .text:000000000000020c .LFB40
     /tmp/ccjrtqfq.s:433    .text:0000000000000238 .LFE40
     /tmp/ccjrtqfq.s:3317   .debug_loc:0000000000000000 .LLST20
     /tmp/ccjrtqfq.s:422    .text:0000000000000228 .LVL40
     /tmp/ccjrtqfq.s:372    .text:00000000000001e4 .LFB39
     /tmp/ccjrtqfq.s:399    .text:000000000000020c .LFE39
     /tmp/ccjrtqfq.s:3331   .debug_loc:0000000000000039 .LLST19
     /tmp/ccjrtqfq.s:387    .text:00000000000001fc .LVL37
     /tmp/ccjrtqfq.s:289    .text:0000000000000178 .LFB38
     /tmp/ccjrtqfq.s:366    .text:00000000000001e4 .LFE38
     /tmp/ccjrtqfq.s:3345   .debug_loc:0000000000000072 .LLST14
     /tmp/ccjrtqfq.s:3363   .debug_loc:00000000000000be .LLST15
     /tmp/ccjrtqfq.s:307    .text:0000000000000194 .LBB34
     /tmp/ccjrtqfq.s:3648   .debug_ranges:0000000000000000 .Ldebug_ranges0
     /tmp/ccjrtqfq.s:3370   .debug_loc:00000000000000e1 .LLST16
     /tmp/ccjrtqfq.s:3385   .debug_loc:000000000000011b .LLST17
     /tmp/ccjrtqfq.s:3396   .debug_loc:0000000000000151 .LLST18
     /tmp/ccjrtqfq.s:328    .text:00000000000001b4 .LVL32
     /tmp/ccjrtqfq.s:439    .text:0000000000000238 .LFB37
     /tmp/ccjrtqfq.s:491    .text:0000000000000280 .LFE37
     /tmp/ccjrtqfq.s:3696   .debug_str:00000000000000c8 .LASF156
     /tmp/ccjrtqfq.s:3403   .debug_loc:0000000000000174 .LLST21
     /tmp/ccjrtqfq.s:3824   .debug_str:00000000000004eb .LASF157
GAS LISTING /tmp/ccjrtqfq.s 			page 20


     /tmp/ccjrtqfq.s:460    .text:000000000000025c .LBB38
     /tmp/ccjrtqfq.s:476    .text:000000000000026c .LBE38
     /tmp/ccjrtqfq.s:3417   .debug_loc:00000000000001ad .LLST22
     /tmp/ccjrtqfq.s:3424   .debug_loc:00000000000001d0 .LLST23
     /tmp/ccjrtqfq.s:466    .text:0000000000000260 .LBB40
     /tmp/ccjrtqfq.s:474    .text:000000000000026c .LBE40
     /tmp/ccjrtqfq.s:3431   .debug_loc:00000000000001f3 .LLST24
     /tmp/ccjrtqfq.s:459    .text:000000000000025c .LVL43
     /tmp/ccjrtqfq.s:236    .text:0000000000000130 .LFB36
     /tmp/ccjrtqfq.s:283    .text:0000000000000178 .LFE36
     /tmp/ccjrtqfq.s:3440   .debug_loc:0000000000000218 .LLST13
     /tmp/ccjrtqfq.s:269    .text:0000000000000164 .LVL26
     /tmp/ccjrtqfq.s:179    .text:00000000000000e0 .LFB35
     /tmp/ccjrtqfq.s:230    .text:0000000000000130 .LFE35
     /tmp/ccjrtqfq.s:3465   .debug_loc:000000000000027a .LLST12
     /tmp/ccjrtqfq.s:212    .text:0000000000000114 .LVL21
     /tmp/ccjrtqfq.s:216    .text:000000000000011c .LVL22
     /tmp/ccjrtqfq.s:107    .text:0000000000000088 .LFB34
     /tmp/ccjrtqfq.s:173    .text:00000000000000e0 .LFE34
     /tmp/ccjrtqfq.s:3490   .debug_loc:00000000000002dc .LLST7
     /tmp/ccjrtqfq.s:3512   .debug_loc:000000000000033b .LLST8
     /tmp/ccjrtqfq.s:122    .text:000000000000009c .LBB30
     /tmp/ccjrtqfq.s:3519   .debug_loc:000000000000035e .LLST9
     /tmp/ccjrtqfq.s:3540   .debug_loc:00000000000003ad .LLST10
     /tmp/ccjrtqfq.s:3551   .debug_loc:00000000000003e3 .LLST11
     /tmp/ccjrtqfq.s:151    .text:00000000000000c8 .LVL16
     /tmp/ccjrtqfq.s:10     .text:0000000000000000 .LFB33
     /tmp/ccjrtqfq.s:101    .text:0000000000000088 .LFE33
     /tmp/ccjrtqfq.s:3558   .debug_loc:0000000000000406 .LLST0
     /tmp/ccjrtqfq.s:3580   .debug_loc:0000000000000465 .LLST1
     /tmp/ccjrtqfq.s:39     .text:0000000000000030 .LBB24
     /tmp/ccjrtqfq.s:3591   .debug_loc:000000000000049b .LLST2
     /tmp/ccjrtqfq.s:3602   .debug_loc:00000000000004d1 .LLST3
     /tmp/ccjrtqfq.s:47     .text:000000000000003c .LBB26
     /tmp/ccjrtqfq.s:54     .text:0000000000000044 .LBE26
     /tmp/ccjrtqfq.s:3613   .debug_loc:0000000000000507 .LLST4
     /tmp/ccjrtqfq.s:3621   .debug_loc:000000000000052b .LLST5
     /tmp/ccjrtqfq.s:3628   .debug_loc:000000000000054e .LLST6
     /tmp/ccjrtqfq.s:46     .text:000000000000003c .LVL4
     /tmp/ccjrtqfq.s:3754   .debug_str:000000000000028c .LASF158
     /tmp/ccjrtqfq.s:3960   .debug_str:00000000000009af .LASF167
     /tmp/ccjrtqfq.s:408    .text:000000000000020c .LVL38
     /tmp/ccjrtqfq.s:420    .text:0000000000000220 .LVL39
     /tmp/ccjrtqfq.s:375    .text:00000000000001e4 .LVL36
     /tmp/ccjrtqfq.s:292    .text:0000000000000178 .LVL27
     /tmp/ccjrtqfq.s:305    .text:0000000000000194 .LVL28
     /tmp/ccjrtqfq.s:361    .text:00000000000001dc .LVL35
     /tmp/ccjrtqfq.s:320    .text:00000000000001a8 .LVL31
     /tmp/ccjrtqfq.s:347    .text:00000000000001cc .LVL34
     /tmp/ccjrtqfq.s:317    .text:00000000000001a0 .LVL30
     /tmp/ccjrtqfq.s:339    .text:00000000000001bc .LVL33
     /tmp/ccjrtqfq.s:314    .text:000000000000019c .LVL29
     /tmp/ccjrtqfq.s:442    .text:0000000000000238 .LVL41
     /tmp/ccjrtqfq.s:457    .text:0000000000000254 .LVL42
     /tmp/ccjrtqfq.s:472    .text:000000000000026c .LVL45
     /tmp/ccjrtqfq.s:465    .text:0000000000000260 .LVL44
     /tmp/ccjrtqfq.s:239    .text:0000000000000130 .LVL23
GAS LISTING /tmp/ccjrtqfq.s 			page 21


     /tmp/ccjrtqfq.s:252    .text:0000000000000148 .LVL24
     /tmp/ccjrtqfq.s:255    .text:000000000000014c .LVL25
     /tmp/ccjrtqfq.s:182    .text:00000000000000e0 .LVL18
     /tmp/ccjrtqfq.s:195    .text:00000000000000f8 .LVL19
     /tmp/ccjrtqfq.s:198    .text:00000000000000fc .LVL20
     /tmp/ccjrtqfq.s:110    .text:0000000000000088 .LVL10
     /tmp/ccjrtqfq.s:126    .text:00000000000000a0 .LVL12
     /tmp/ccjrtqfq.s:162    .text:00000000000000d8 .LVL17
     /tmp/ccjrtqfq.s:144    .text:00000000000000c0 .LVL15
     /tmp/ccjrtqfq.s:121    .text:000000000000009c .LVL11
     /tmp/ccjrtqfq.s:129    .text:00000000000000a4 .LVL13
     /tmp/ccjrtqfq.s:139    .text:00000000000000b4 .LVL14
     /tmp/ccjrtqfq.s:14     .text:0000000000000000 .LVL0
     /tmp/ccjrtqfq.s:44     .text:0000000000000034 .LVL3
     /tmp/ccjrtqfq.s:82     .text:0000000000000070 .LVL7
     /tmp/ccjrtqfq.s:89     .text:000000000000007c .LVL9
     /tmp/ccjrtqfq.s:34     .text:000000000000002c .LVL1
     /tmp/ccjrtqfq.s:85     .text:0000000000000074 .LVL8
     /tmp/ccjrtqfq.s:38     .text:0000000000000030 .LVL2
     /tmp/ccjrtqfq.s:68     .text:0000000000000060 .LVL6
     /tmp/ccjrtqfq.s:52     .text:0000000000000044 .LVL5
     /tmp/ccjrtqfq.s:499    .debug_info:0000000000000000 .Ldebug_info0
     /tmp/ccjrtqfq.s:70     .text:0000000000000060 .LBE24
     /tmp/ccjrtqfq.s:92     .text:000000000000007c .LBB29
     /tmp/ccjrtqfq.s:99     .text:0000000000000088 .LBE29
     /tmp/ccjrtqfq.s:147    .text:00000000000000c0 .LBE30
     /tmp/ccjrtqfq.s:165    .text:00000000000000d8 .LBB33
     /tmp/ccjrtqfq.s:171    .text:00000000000000e0 .LBE33
     /tmp/ccjrtqfq.s:322    .text:00000000000001a8 .LBE34
     /tmp/ccjrtqfq.s:333    .text:00000000000001b4 .LBB37
     /tmp/ccjrtqfq.s:350    .text:00000000000001cc .LBE37

UNDEFINED SYMBOLS
_ZN3TCB7runningE
_Znwm
_ZN9Scheduler3putEP3TCB
_ZN3TCB24dispatchWithoutSchedulerEv
_ZN15MemoryAllocator4freeEPv
_ZN15MemoryAllocator6mallocEm
