GAS LISTING /tmp/ccN0J4sw.s 			page 1


   1              		.file	"Ksemaphore.cpp"
   2              		.option pic
   3              		.option norelax
   4              		.text
   5              	.Ltext0:
   6              		.align	2
   7              		.globl	_ZN10Ksemaphore5blockEv
   9              	_ZN10Ksemaphore5blockEv:
  10              	.LFB30:
  11              		.file 1 "src/Ksemaphore.cpp"
   1:src/Ksemaphore.cpp **** #include "../h/Ksemaphore.hpp"
   2:src/Ksemaphore.cpp **** 
   3:src/Ksemaphore.cpp **** void Ksemaphore::block() {
  12              		.loc 1 3 26
  13              		.cfi_startproc
  14              	.LVL0:
  15 0000 130101FE 		addi	sp,sp,-32
  16              		.cfi_def_cfa_offset 32
  17 0004 233C1100 		sd	ra,24(sp)
  18 0008 23388100 		sd	s0,16(sp)
  19 000c 23349100 		sd	s1,8(sp)
  20 0010 23302101 		sd	s2,0(sp)
  21              		.cfi_offset 1, -8
  22              		.cfi_offset 8, -16
  23              		.cfi_offset 9, -24
  24              		.cfi_offset 18, -32
  25 0014 13040102 		addi	s0,sp,32
  26              		.cfi_def_cfa 8, 0
  27 0018 93040500 		mv	s1,a0
   4:src/Ksemaphore.cpp ****     TCB* tr=TCB::running;
  28              		.loc 1 4 5
  29              		.loc 1 4 10 is_stmt 0
  30 001c 97070000 		la	a5,_ZN3TCB7runningE
  30      83B70700 
  31 0024 03B90700 		ld	s2,0(a5)
  32              	.LVL1:
   5:src/Ksemaphore.cpp ****     blocked.addLast(tr);
  33              		.loc 1 5 5 is_stmt 1
  34              	.LBB26:
  35              	.LBB27:
  36              		.file 2 "src/../h/list.hpp"
   1:src/../h/list.hpp **** //
   2:src/../h/list.hpp **** // Created by os on 8/27/22.
   3:src/../h/list.hpp **** //
   4:src/../h/list.hpp **** 
   5:src/../h/list.hpp **** #ifndef PROJECT_BASE_LIST_HPP
   6:src/../h/list.hpp **** #define PROJECT_BASE_LIST_HPP
   7:src/../h/list.hpp **** 
   8:src/../h/list.hpp **** #include "../lib/mem.h"
   9:src/../h/list.hpp **** #include "MemoryAllocator.hpp"
  10:src/../h/list.hpp **** 
  11:src/../h/list.hpp **** template<typename T>
  12:src/../h/list.hpp **** class List
  13:src/../h/list.hpp **** {
  14:src/../h/list.hpp **** private:
  15:src/../h/list.hpp ****     struct Elem
  16:src/../h/list.hpp ****     {
GAS LISTING /tmp/ccN0J4sw.s 			page 2


  17:src/../h/list.hpp ****         T *data;
  18:src/../h/list.hpp ****         Elem *next;
  19:src/../h/list.hpp **** 
  20:src/../h/list.hpp ****         Elem(T *data, Elem *next) : data(data), next(next) {}
  21:src/../h/list.hpp ****     };
  22:src/../h/list.hpp **** 
  23:src/../h/list.hpp ****     Elem *head, *tail;
  24:src/../h/list.hpp **** 
  25:src/../h/list.hpp **** public:
  26:src/../h/list.hpp ****     List() : head(0), tail(0) {}
  27:src/../h/list.hpp **** 
  28:src/../h/list.hpp ****     List(const List<T> &) = delete;
  29:src/../h/list.hpp **** 
  30:src/../h/list.hpp ****     List<T> &operator=(const List<T> &) = delete;
  31:src/../h/list.hpp ****     static void* operator new (size_t n);
  32:src/../h/list.hpp ****     static void operator delete (void* p);
  33:src/../h/list.hpp **** 
  34:src/../h/list.hpp ****     void addFirst(T *data)
  35:src/../h/list.hpp ****     {
  36:src/../h/list.hpp ****         Elem *elem = new Elem(data, head);
  37:src/../h/list.hpp ****         head = elem;
  38:src/../h/list.hpp ****         if (!tail) { tail = head; }
  39:src/../h/list.hpp ****     }
  40:src/../h/list.hpp **** 
  41:src/../h/list.hpp ****     void addLast(T *data)
  42:src/../h/list.hpp ****     {
  43:src/../h/list.hpp ****         Elem *elem = new Elem(data, 0);
  37              		.loc 2 43 22 is_stmt 0
  38 0028 13050001 		li	a0,16
  39              	.LVL2:
  40 002c 97000000 		call	_Znwm@plt
  40      E7800000 
  41              	.LVL3:
  42              	.LBB28:
  43              	.LBB29:
  20:src/../h/list.hpp ****     };
  44              		.loc 2 20 58
  45 0034 23302501 		sd	s2,0(a0)
  46 0038 23340500 		sd	zero,8(a0)
  47              	.LVL4:
  48              	.LBE29:
  49              	.LBE28:
  44:src/../h/list.hpp ****         if (tail)
  50              		.loc 2 44 13
  51 003c 83B70401 		ld	a5,16(s1)
  52              		.loc 2 44 9
  53 0040 63840704 		beqz	a5,.L2
  45:src/../h/list.hpp ****         {
  46:src/../h/list.hpp ****             tail->next = elem;
  54              		.loc 2 46 13
  55 0044 23B4A700 		sd	a0,8(a5)
  47:src/../h/list.hpp ****             tail = elem;
  56              		.loc 2 47 13
  57 0048 23B8A400 		sd	a0,16(s1)
  58              	.L3:
  59              	.LVL5:
  60              	.LBE27:
GAS LISTING /tmp/ccN0J4sw.s 			page 3


  61              	.LBE26:
   6:src/Ksemaphore.cpp ****     TCB::running=Scheduler::get();
  62              		.loc 1 6 5 is_stmt 1
  63              		.loc 1 6 32 is_stmt 0
  64 004c 97000000 		call	_ZN9Scheduler3getEv@plt
  64      E7800000 
  65              	.LVL6:
  66              		.loc 1 6 17
  67 0054 97070000 		la	a5,_ZN3TCB7runningE
  67      83B70700 
  68 005c 23B0A700 		sd	a0,0(a5)
   7:src/Ksemaphore.cpp ****     TCB::contextSwitch(&tr->context, &TCB::running->context);
  69              		.loc 1 7 5 is_stmt 1
  70              		.loc 1 7 23 is_stmt 0
  71 0060 93058501 		addi	a1,a0,24
  72 0064 13058901 		addi	a0,s2,24
  73 0068 97000000 		call	_ZN3TCB13contextSwitchEPNS_7ContextES1_@plt
  73      E7800000 
  74              	.LVL7:
   8:src/Ksemaphore.cpp **** }
  75              		.loc 1 8 1
  76 0070 83308101 		ld	ra,24(sp)
  77              		.cfi_remember_state
  78              		.cfi_restore 1
  79 0074 03340101 		ld	s0,16(sp)
  80              		.cfi_restore 8
  81              		.cfi_def_cfa 2, 32
  82 0078 83348100 		ld	s1,8(sp)
  83              		.cfi_restore 9
  84              	.LVL8:
  85 007c 03390100 		ld	s2,0(sp)
  86              		.cfi_restore 18
  87              	.LVL9:
  88 0080 13010102 		addi	sp,sp,32
  89              		.cfi_def_cfa_offset 0
  90 0084 67800000 		jr	ra
  91              	.LVL10:
  92              	.L2:
  93              		.cfi_restore_state
  94              	.LBB31:
  95              	.LBB30:
  48:src/../h/list.hpp ****         } else
  49:src/../h/list.hpp ****         {
  50:src/../h/list.hpp ****             head = tail = elem;
  96              		.loc 2 50 13
  97 0088 23B8A400 		sd	a0,16(s1)
  98 008c 23B4A400 		sd	a0,8(s1)
  99 0090 6FF0DFFB 		j	.L3
 100              	.LBE30:
 101              	.LBE31:
 102              		.cfi_endproc
 103              	.LFE30:
 105              		.align	2
 106              		.globl	_ZN10Ksemaphore7unblockEv
 108              	_ZN10Ksemaphore7unblockEv:
 109              	.LFB31:
   9:src/Ksemaphore.cpp **** 
GAS LISTING /tmp/ccN0J4sw.s 			page 4


  10:src/Ksemaphore.cpp **** void Ksemaphore::unblock() {
 110              		.loc 1 10 28 is_stmt 1
 111              		.cfi_startproc
 112              	.LVL11:
 113 0094 130101FE 		addi	sp,sp,-32
 114              		.cfi_def_cfa_offset 32
 115 0098 233C1100 		sd	ra,24(sp)
 116 009c 23388100 		sd	s0,16(sp)
 117 00a0 23349100 		sd	s1,8(sp)
 118              		.cfi_offset 1, -8
 119              		.cfi_offset 8, -16
 120              		.cfi_offset 9, -24
 121 00a4 13040102 		addi	s0,sp,32
 122              		.cfi_def_cfa 8, 0
 123 00a8 93070500 		mv	a5,a0
  11:src/Ksemaphore.cpp ****     TCB *t = blocked.removeFirst();
 124              		.loc 1 11 5
 125              	.LVL12:
 126              	.LBB32:
 127              	.LBB33:
  51:src/../h/list.hpp ****         }
  52:src/../h/list.hpp ****     }
  53:src/../h/list.hpp **** 
  54:src/../h/list.hpp ****     T *removeFirst()
  55:src/../h/list.hpp ****     {
  56:src/../h/list.hpp ****         if (!head) { return 0; }
 128              		.loc 2 56 14 is_stmt 0
 129 00ac 03358500 		ld	a0,8(a0)
 130              	.LVL13:
 131              		.loc 2 56 9
 132 00b0 63020504 		beqz	a0,.L8
 133              	.LVL14:
  57:src/../h/list.hpp **** 
  58:src/../h/list.hpp ****         Elem *elem = head;
  59:src/../h/list.hpp ****         head = head->next;
 134              		.loc 2 59 22
 135 00b4 03378500 		ld	a4,8(a0)
 136              		.loc 2 59 9
 137 00b8 23B4E700 		sd	a4,8(a5)
  60:src/../h/list.hpp ****         if (!head) { tail = 0; }
 138              		.loc 2 60 9
 139 00bc 63080702 		beqz	a4,.L10
 140              	.L7:
  61:src/../h/list.hpp **** 
  62:src/../h/list.hpp ****         T *ret = elem->data;
 141              		.loc 2 62 12
 142 00c0 83340500 		ld	s1,0(a0)
 143              	.LVL15:
  63:src/../h/list.hpp ****         delete elem;
 144              		.loc 2 63 9
 145 00c4 97000000 		call	_ZdlPv@plt
 145      E7800000 
 146              	.LVL16:
 147              	.L6:
 148              	.LBE33:
 149              	.LBE32:
  12:src/Ksemaphore.cpp ****     Scheduler::put(t);
GAS LISTING /tmp/ccN0J4sw.s 			page 5


 150              		.loc 1 12 5 is_stmt 1
 151              		.loc 1 12 19 is_stmt 0
 152 00cc 13850400 		mv	a0,s1
 153 00d0 97000000 		call	_ZN9Scheduler3putEP3TCB@plt
 153      E7800000 
 154              	.LVL17:
  13:src/Ksemaphore.cpp **** }
 155              		.loc 1 13 1
 156 00d8 83308101 		ld	ra,24(sp)
 157              		.cfi_remember_state
 158              		.cfi_restore 1
 159 00dc 03340101 		ld	s0,16(sp)
 160              		.cfi_restore 8
 161              		.cfi_def_cfa 2, 32
 162 00e0 83348100 		ld	s1,8(sp)
 163              		.cfi_restore 9
 164              	.LVL18:
 165 00e4 13010102 		addi	sp,sp,32
 166              		.cfi_def_cfa_offset 0
 167 00e8 67800000 		jr	ra
 168              	.LVL19:
 169              	.L10:
 170              		.cfi_restore_state
 171              	.LBB35:
 172              	.LBB34:
  60:src/../h/list.hpp **** 
 173              		.loc 2 60 22
 174 00ec 23B80700 		sd	zero,16(a5)
 175 00f0 6FF01FFD 		j	.L7
 176              	.LVL20:
 177              	.L8:
  56:src/../h/list.hpp **** 
 178              		.loc 2 56 29
 179 00f4 93040500 		mv	s1,a0
 180 00f8 6FF05FFD 		j	.L6
 181              	.LBE34:
 182              	.LBE35:
 183              		.cfi_endproc
 184              	.LFE31:
 186              		.align	2
 187              		.globl	_ZN10Ksemaphore4waitEv
 189              	_ZN10Ksemaphore4waitEv:
 190              	.LFB32:
  14:src/Ksemaphore.cpp **** 
  15:src/Ksemaphore.cpp **** int Ksemaphore::wait() {
 191              		.loc 1 15 24 is_stmt 1
 192              		.cfi_startproc
 193              	.LVL21:
  16:src/Ksemaphore.cpp ****     if(--val<0){
 194              		.loc 1 16 5
 195              		.loc 1 16 10 is_stmt 0
 196 00fc 83270500 		lw	a5,0(a0)
 197              		.loc 1 16 8
 198 0100 9B87F7FF 		addiw	a5,a5,-1
 199              		.loc 1 16 13
 200 0104 2320F500 		sw	a5,0(a0)
 201              		.loc 1 16 5
GAS LISTING /tmp/ccN0J4sw.s 			page 6


 202 0108 13970702 		slli	a4,a5,32
 203 010c 63460700 		bltz	a4,.L17
  17:src/Ksemaphore.cpp ****         block();
  18:src/Ksemaphore.cpp **** //        TCB::dispatchWithoutScheduler();
  19:src/Ksemaphore.cpp ****         return 0;
  20:src/Ksemaphore.cpp ****     }
  21:src/Ksemaphore.cpp ****     return 0;
  22:src/Ksemaphore.cpp **** }
 204              		.loc 1 22 1
 205 0110 13050000 		li	a0,0
 206              	.LVL22:
 207 0114 67800000 		ret
 208              	.LVL23:
 209              	.L17:
  15:src/Ksemaphore.cpp ****     if(--val<0){
 210              		.loc 1 15 24
 211 0118 130101FF 		addi	sp,sp,-16
 212              		.cfi_def_cfa_offset 16
 213 011c 23341100 		sd	ra,8(sp)
 214 0120 23308100 		sd	s0,0(sp)
 215              		.cfi_offset 1, -8
 216              		.cfi_offset 8, -16
 217 0124 13040101 		addi	s0,sp,16
 218              		.cfi_def_cfa 8, 0
  17:src/Ksemaphore.cpp ****         block();
 219              		.loc 1 17 9 is_stmt 1
  17:src/Ksemaphore.cpp ****         block();
 220              		.loc 1 17 14 is_stmt 0
 221 0128 97000000 		call	_ZN10Ksemaphore5blockEv
 221      E7800000 
 222              	.LVL24:
  19:src/Ksemaphore.cpp ****     }
 223              		.loc 1 19 9 is_stmt 1
 224              		.loc 1 22 1 is_stmt 0
 225 0130 13050000 		li	a0,0
 226 0134 83308100 		ld	ra,8(sp)
 227              		.cfi_restore 1
 228 0138 03340100 		ld	s0,0(sp)
 229              		.cfi_restore 8
 230              		.cfi_def_cfa 2, 16
 231 013c 13010101 		addi	sp,sp,16
 232              		.cfi_def_cfa_offset 0
 233 0140 67800000 		jr	ra
 234              		.cfi_endproc
 235              	.LFE32:
 237              		.align	2
 238              		.globl	_ZN10Ksemaphore6signalEv
 240              	_ZN10Ksemaphore6signalEv:
 241              	.LFB33:
  23:src/Ksemaphore.cpp **** 
  24:src/Ksemaphore.cpp **** int Ksemaphore::signal() {
 242              		.loc 1 24 26 is_stmt 1
 243              		.cfi_startproc
 244              	.LVL25:
  25:src/Ksemaphore.cpp ****     if(++val<=0) {
 245              		.loc 1 25 5
 246              		.loc 1 25 10 is_stmt 0
GAS LISTING /tmp/ccN0J4sw.s 			page 7


 247 0144 83270500 		lw	a5,0(a0)
 248              		.loc 1 25 8
 249 0148 9B871700 		addiw	a5,a5,1
 250 014c 1B870700 		sext.w	a4,a5
 251              		.loc 1 25 13
 252 0150 2320F500 		sw	a5,0(a0)
 253              		.loc 1 25 5
 254 0154 6356E000 		blez	a4,.L25
  26:src/Ksemaphore.cpp ****         unblock();
  27:src/Ksemaphore.cpp ****         return 0;
  28:src/Ksemaphore.cpp ****     }
  29:src/Ksemaphore.cpp ****     return 1;
 255              		.loc 1 29 12
 256 0158 13051000 		li	a0,1
 257              	.LVL26:
  30:src/Ksemaphore.cpp **** }
 258              		.loc 1 30 1
 259 015c 67800000 		ret
 260              	.LVL27:
 261              	.L25:
  24:src/Ksemaphore.cpp ****     if(++val<=0) {
 262              		.loc 1 24 26
 263 0160 130101FF 		addi	sp,sp,-16
 264              		.cfi_def_cfa_offset 16
 265 0164 23341100 		sd	ra,8(sp)
 266 0168 23308100 		sd	s0,0(sp)
 267              		.cfi_offset 1, -8
 268              		.cfi_offset 8, -16
 269 016c 13040101 		addi	s0,sp,16
 270              		.cfi_def_cfa 8, 0
  26:src/Ksemaphore.cpp ****         unblock();
 271              		.loc 1 26 9 is_stmt 1
  26:src/Ksemaphore.cpp ****         unblock();
 272              		.loc 1 26 16 is_stmt 0
 273 0170 97000000 		call	_ZN10Ksemaphore7unblockEv
 273      E7800000 
 274              	.LVL28:
  27:src/Ksemaphore.cpp ****     }
 275              		.loc 1 27 9 is_stmt 1
  27:src/Ksemaphore.cpp ****     }
 276              		.loc 1 27 16 is_stmt 0
 277 0178 13050000 		li	a0,0
 278              		.loc 1 30 1
 279 017c 83308100 		ld	ra,8(sp)
 280              		.cfi_restore 1
 281 0180 03340100 		ld	s0,0(sp)
 282              		.cfi_restore 8
 283              		.cfi_def_cfa 2, 16
 284 0184 13010101 		addi	sp,sp,16
 285              		.cfi_def_cfa_offset 0
 286 0188 67800000 		jr	ra
 287              		.cfi_endproc
 288              	.LFE33:
 290              		.align	2
 291              		.globl	_ZN10Ksemaphore14closeSemaphoreEv
 293              	_ZN10Ksemaphore14closeSemaphoreEv:
 294              	.LFB35:
GAS LISTING /tmp/ccN0J4sw.s 			page 8


  31:src/Ksemaphore.cpp **** 
  32:src/Ksemaphore.cpp **** Ksemaphore *Ksemaphore::createSemaphore(unsigned int init) {
  33:src/Ksemaphore.cpp ****     Ksemaphore* ksem = (Ksemaphore*) new Ksemaphore(init);
  34:src/Ksemaphore.cpp ****     ksem->val=init;
  35:src/Ksemaphore.cpp ****     return ksem;
  36:src/Ksemaphore.cpp **** }
  37:src/Ksemaphore.cpp **** 
  38:src/Ksemaphore.cpp **** int Ksemaphore::closeSemaphore(){
 295              		.loc 1 38 33 is_stmt 1
 296              		.cfi_startproc
 297              	.LVL29:
 298 018c 130101FE 		addi	sp,sp,-32
 299              		.cfi_def_cfa_offset 32
 300 0190 233C1100 		sd	ra,24(sp)
 301 0194 23388100 		sd	s0,16(sp)
 302 0198 23349100 		sd	s1,8(sp)
 303 019c 23302101 		sd	s2,0(sp)
 304              		.cfi_offset 1, -8
 305              		.cfi_offset 8, -16
 306              		.cfi_offset 9, -24
 307              		.cfi_offset 18, -32
 308 01a0 13040102 		addi	s0,sp,32
 309              		.cfi_def_cfa 8, 0
 310 01a4 93040500 		mv	s1,a0
 311 01a8 6F000002 		j	.L29
 312              	.LVL30:
 313              	.L31:
 314              	.LBB36:
 315              	.LBB37:
  60:src/../h/list.hpp **** 
 316              		.loc 2 60 22 is_stmt 0
 317 01ac 23B80400 		sd	zero,16(s1)
 318              	.L28:
  62:src/../h/list.hpp ****         delete elem;
 319              		.loc 2 62 12
 320 01b0 03390500 		ld	s2,0(a0)
 321              	.LVL31:
 322              		.loc 2 63 9
 323 01b4 97000000 		call	_ZdlPv@plt
 323      E7800000 
 324              	.LVL32:
 325              	.LBE37:
 326              	.LBE36:
  39:src/Ksemaphore.cpp ****     TCB* tcb;
  40:src/Ksemaphore.cpp ****     while((tcb= blocked.peekFirst())!= nullptr){
  41:src/Ksemaphore.cpp ****         tcb=blocked.removeFirst();
  42:src/Ksemaphore.cpp ****         Scheduler::put(tcb);
 327              		.loc 1 42 9 is_stmt 1
 328              		.loc 1 42 23 is_stmt 0
 329 01bc 13050900 		mv	a0,s2
 330 01c0 97000000 		call	_ZN9Scheduler3putEP3TCB@plt
 330      E7800000 
 331              	.LVL33:
 332              	.L29:
  39:src/Ksemaphore.cpp ****     TCB* tcb;
 333              		.loc 1 39 5 is_stmt 1
  40:src/Ksemaphore.cpp ****         tcb=blocked.removeFirst();
GAS LISTING /tmp/ccN0J4sw.s 			page 9


 334              		.loc 1 40 5
  40:src/Ksemaphore.cpp ****         tcb=blocked.removeFirst();
 335              		.loc 1 40 37
 336              	.LBB39:
 337              	.LBB40:
  64:src/../h/list.hpp ****         return ret;
  65:src/../h/list.hpp ****     }
  66:src/../h/list.hpp **** 
  67:src/../h/list.hpp ****     T *peekFirst()
  68:src/../h/list.hpp ****     {
  69:src/../h/list.hpp ****         if (!head) { return 0; }
 338              		.loc 2 69 14 is_stmt 0
 339 01c8 03B58400 		ld	a0,8(s1)
 340              		.loc 2 69 9
 341 01cc 630E0500 		beqz	a0,.L27
  70:src/../h/list.hpp ****         return head->data;
 342              		.loc 2 70 22
 343 01d0 83370500 		ld	a5,0(a0)
 344              	.LVL34:
 345              	.LBE40:
 346              	.LBE39:
  40:src/Ksemaphore.cpp ****         tcb=blocked.removeFirst();
 347              		.loc 1 40 37
 348 01d4 638A0700 		beqz	a5,.L27
  41:src/Ksemaphore.cpp ****         Scheduler::put(tcb);
 349              		.loc 1 41 9 is_stmt 1
 350              	.LVL35:
 351              	.LBB41:
 352              	.LBB38:
  59:src/../h/list.hpp ****         if (!head) { tail = 0; }
 353              		.loc 2 59 22 is_stmt 0
 354 01d8 83378500 		ld	a5,8(a0)
 355              	.LVL36:
  59:src/../h/list.hpp ****         if (!head) { tail = 0; }
 356              		.loc 2 59 9
 357 01dc 23B4F400 		sd	a5,8(s1)
 358              	.LVL37:
  60:src/../h/list.hpp **** 
 359              		.loc 2 60 9
 360 01e0 E39807FC 		bnez	a5,.L28
 361 01e4 6FF09FFC 		j	.L31
 362              	.LVL38:
 363              	.L27:
 364              	.LBE38:
 365              	.LBE41:
  43:src/Ksemaphore.cpp ****     }
  44:src/Ksemaphore.cpp ****     return 0;
 366              		.loc 1 44 5 is_stmt 1
  45:src/Ksemaphore.cpp **** }
 367              		.loc 1 45 1 is_stmt 0
 368 01e8 13050000 		li	a0,0
 369 01ec 83308101 		ld	ra,24(sp)
 370              		.cfi_restore 1
 371 01f0 03340101 		ld	s0,16(sp)
 372              		.cfi_restore 8
 373              		.cfi_def_cfa 2, 32
 374 01f4 83348100 		ld	s1,8(sp)
GAS LISTING /tmp/ccN0J4sw.s 			page 10


 375              		.cfi_restore 9
 376              	.LVL39:
 377 01f8 03390100 		ld	s2,0(sp)
 378              		.cfi_restore 18
 379 01fc 13010102 		addi	sp,sp,32
 380              		.cfi_def_cfa_offset 0
 381 0200 67800000 		jr	ra
 382              		.cfi_endproc
 383              	.LFE35:
 385              		.align	2
 386              		.globl	_ZN10KsemaphoredlEPv
 388              	_ZN10KsemaphoredlEPv:
 389              	.LFB36:
  46:src/Ksemaphore.cpp **** void Ksemaphore::operator delete(void *p) {
 390              		.loc 1 46 43 is_stmt 1
 391              		.cfi_startproc
 392              	.LVL40:
 393 0204 130101FF 		addi	sp,sp,-16
 394              		.cfi_def_cfa_offset 16
 395 0208 23341100 		sd	ra,8(sp)
 396 020c 23308100 		sd	s0,0(sp)
 397              		.cfi_offset 1, -8
 398              		.cfi_offset 8, -16
 399 0210 13040101 		addi	s0,sp,16
 400              		.cfi_def_cfa 8, 0
  47:src/Ksemaphore.cpp ****     MemoryAllocator::free(p);
 401              		.loc 1 47 5
 402              		.loc 1 47 26 is_stmt 0
 403 0214 97000000 		call	_ZN15MemoryAllocator4freeEPv@plt
 403      E7800000 
 404              	.LVL41:
  48:src/Ksemaphore.cpp ****     return;
 405              		.loc 1 48 5 is_stmt 1
  49:src/Ksemaphore.cpp **** }
 406              		.loc 1 49 1 is_stmt 0
 407 021c 83308100 		ld	ra,8(sp)
 408              		.cfi_restore 1
 409 0220 03340100 		ld	s0,0(sp)
 410              		.cfi_restore 8
 411              		.cfi_def_cfa 2, 16
 412 0224 13010101 		addi	sp,sp,16
 413              		.cfi_def_cfa_offset 0
 414 0228 67800000 		jr	ra
 415              		.cfi_endproc
 416              	.LFE36:
 418              		.align	2
 419              		.globl	_ZN10KsemaphorenwEm
 421              	_ZN10KsemaphorenwEm:
 422              	.LFB37:
  50:src/Ksemaphore.cpp **** 
  51:src/Ksemaphore.cpp **** void *Ksemaphore::operator new(size_t n) {
 423              		.loc 1 51 42 is_stmt 1
 424              		.cfi_startproc
 425              	.LVL42:
 426 022c 130101FF 		addi	sp,sp,-16
 427              		.cfi_def_cfa_offset 16
 428 0230 23341100 		sd	ra,8(sp)
GAS LISTING /tmp/ccN0J4sw.s 			page 11


 429 0234 23308100 		sd	s0,0(sp)
 430              		.cfi_offset 1, -8
 431              		.cfi_offset 8, -16
 432 0238 13040101 		addi	s0,sp,16
 433              		.cfi_def_cfa 8, 0
  52:src/Ksemaphore.cpp ****     return MemoryAllocator::malloc(sizeof (Ksemaphore));
 434              		.loc 1 52 5
 435              		.loc 1 52 35 is_stmt 0
 436 023c 13058001 		li	a0,24
 437              	.LVL43:
 438 0240 97000000 		call	_ZN15MemoryAllocator6mallocEm@plt
 438      E7800000 
 439              	.LVL44:
  53:src/Ksemaphore.cpp **** }
 440              		.loc 1 53 1
 441 0248 83308100 		ld	ra,8(sp)
 442              		.cfi_restore 1
 443 024c 03340100 		ld	s0,0(sp)
 444              		.cfi_restore 8
 445              		.cfi_def_cfa 2, 16
 446 0250 13010101 		addi	sp,sp,16
 447              		.cfi_def_cfa_offset 0
 448 0254 67800000 		jr	ra
 449              		.cfi_endproc
 450              	.LFE37:
 452              		.align	2
 453              		.globl	_ZN10Ksemaphore15createSemaphoreEj
 455              	_ZN10Ksemaphore15createSemaphoreEj:
 456              	.LFB34:
  32:src/Ksemaphore.cpp ****     Ksemaphore* ksem = (Ksemaphore*) new Ksemaphore(init);
 457              		.loc 1 32 60 is_stmt 1
 458              		.cfi_startproc
 459              	.LVL45:
 460 0258 130101FE 		addi	sp,sp,-32
 461              		.cfi_def_cfa_offset 32
 462 025c 233C1100 		sd	ra,24(sp)
 463 0260 23388100 		sd	s0,16(sp)
 464 0264 23349100 		sd	s1,8(sp)
 465              		.cfi_offset 1, -8
 466              		.cfi_offset 8, -16
 467              		.cfi_offset 9, -24
 468 0268 13040102 		addi	s0,sp,32
 469              		.cfi_def_cfa 8, 0
 470 026c 93040500 		mv	s1,a0
  33:src/Ksemaphore.cpp ****     ksem->val=init;
 471              		.loc 1 33 5
  33:src/Ksemaphore.cpp ****     ksem->val=init;
 472              		.loc 1 33 57 is_stmt 0
 473 0270 13058001 		li	a0,24
 474              	.LVL46:
 475 0274 97000000 		call	_ZN10KsemaphorenwEm
 475      E7800000 
 476              	.LVL47:
 477              	.LBB42:
 478              	.LBB43:
 479              		.file 3 "src/../h/Ksemaphore.hpp"
   1:src/../h/Ksemaphore.hpp **** #ifndef PROJECT_BASE_KSEMAPHORE_HPP
GAS LISTING /tmp/ccN0J4sw.s 			page 12


   2:src/../h/Ksemaphore.hpp **** #define PROJECT_BASE_KSEMAPHORE_HPP
   3:src/../h/Ksemaphore.hpp **** #include "scheduler.hpp"
   4:src/../h/Ksemaphore.hpp **** #include "TCB.hpp"
   5:src/../h/Ksemaphore.hpp **** #include "../lib/hw.h"
   6:src/../h/Ksemaphore.hpp **** 
   7:src/../h/Ksemaphore.hpp **** typedef Ksemaphore* sem_t;
   8:src/../h/Ksemaphore.hpp **** 
   9:src/../h/Ksemaphore.hpp **** 
  10:src/../h/Ksemaphore.hpp **** class Ksemaphore{
  11:src/../h/Ksemaphore.hpp ****     Ksemaphore(unsigned init =1):val(init){}
 480              		.loc 3 11 42
 481 027c 23209500 		sw	s1,0(a0)
 482              	.LVL48:
 483              	.LBB44:
 484              	.LBB45:
  26:src/../h/list.hpp **** 
 485              		.loc 2 26 29
 486 0280 23340500 		sd	zero,8(a0)
 487 0284 23380500 		sd	zero,16(a0)
 488              	.LVL49:
 489              	.LBE45:
 490              	.LBE44:
 491              	.LBE43:
 492              	.LBE42:
  34:src/Ksemaphore.cpp ****     return ksem;
 493              		.loc 1 34 5 is_stmt 1
  35:src/Ksemaphore.cpp **** }
 494              		.loc 1 35 5
  36:src/Ksemaphore.cpp **** 
 495              		.loc 1 36 1 is_stmt 0
 496 0288 83308101 		ld	ra,24(sp)
 497              		.cfi_restore 1
 498 028c 03340101 		ld	s0,16(sp)
 499              		.cfi_restore 8
 500              		.cfi_def_cfa 2, 32
 501 0290 83348100 		ld	s1,8(sp)
 502              		.cfi_restore 9
 503 0294 13010102 		addi	sp,sp,32
 504              		.cfi_def_cfa_offset 0
 505 0298 67800000 		jr	ra
 506              		.cfi_endproc
 507              	.LFE34:
 509              	.Letext0:
 510              		.file 4 "src/../h/../lib/hw.h"
 511              		.file 5 "src/../h/MemoryAllocator.hpp"
 512              		.file 6 "src/../h/scheduler.hpp"
 513              		.file 7 "src/../h/TCB.hpp"
GAS LISTING /tmp/ccN0J4sw.s 			page 13

