GAS LISTING /tmp/ccZ1FuF7.s 			page 1


   1              		.file	"main.cpp"
   2              		.option pic
   3              		.option norelax
   4              		.text
   5              	.Ltext0:
   6              		.section	.rodata.str1.8,"aMS",@progbits,1
   7              		.align	3
   8              	.LC0:
   9 0000 413A2069 		.string	"A: i="
   9      3D00
  10 0006 0000     		.align	3
  11              	.LC1:
  12 0008 0A00     		.string	"\n"
  13 000a 00000000 		.align	3
  13      0000
  14              	.LC2:
  15 0010 2000     		.string	" "
  16 0012 00000000 		.align	3
  16      0000
  17              	.LC3:
  18 0018 41206669 		.string	"A finished!\n"
  18      6E697368 
  18      6564210A 
  18      00
  19              		.text
  20              		.align	2
  21              		.globl	_Z11workerBodyAPv
  23              	_Z11workerBodyAPv:
  24              	.LFB48:
  25              		.file 1 "src/main.cpp"
   1:src/main.cpp  **** //#include "../lib/hw.h"
   2:src/main.cpp  **** //#include "../lib/console.h"
   3:src/main.cpp  **** //#include "../h/MemoryAllocator.hpp"
   4:src/main.cpp  **** #include "../h/riscv.hpp"
   5:src/main.cpp  **** #include "../h/syscall_c.h"
   6:src/main.cpp  **** #include "../test/printing.hpp"
   7:src/main.cpp  **** 
   8:src/main.cpp  **** void userMain();
   9:src/main.cpp  **** 
  10:src/main.cpp  **** bool ffinishedA = false;
  11:src/main.cpp  **** bool ffinishedB = false;
  12:src/main.cpp  **** bool ffinishedC = false;
  13:src/main.cpp  **** 
  14:src/main.cpp  **** Ksemaphore* semA;
  15:src/main.cpp  **** 
  16:src/main.cpp  **** 
  17:src/main.cpp  **** void workerBodyA(void* arg) {
  26              		.loc 1 17 29
  27              		.cfi_startproc
  28              	.LVL0:
  29 0000 130101FE 		addi	sp,sp,-32
  30              		.cfi_def_cfa_offset 32
  31 0004 233C1100 		sd	ra,24(sp)
  32 0008 23388100 		sd	s0,16(sp)
  33 000c 23349100 		sd	s1,8(sp)
  34              		.cfi_offset 1, -8
  35              		.cfi_offset 8, -16
GAS LISTING /tmp/ccZ1FuF7.s 			page 2


  36              		.cfi_offset 9, -24
  37 0010 13040102 		addi	s0,sp,32
  38              		.cfi_def_cfa 8, 0
  18:src/main.cpp  **** 
  19:src/main.cpp  **** //    join(TCB::running);
  20:src/main.cpp  **** 
  21:src/main.cpp  ****     for (uint64 i = 0; i < 5; i++) {
  39              		.loc 1 21 5
  40              	.LVL1:
  41              	.LBB6:
  42              		.loc 1 21 17 is_stmt 0
  43 0014 93040000 		li	s1,0
  44 0018 6F000003 		j	.L7
  45              	.LVL2:
  46              	.L4:
  47              	.LBB7:
  48              	.LBB8:
  22:src/main.cpp  **** 
  23:src/main.cpp  ****         printString("A: i="); printInt(i); printString("\n"); printInt(getThreadId(TCB::running)); 
  24:src/main.cpp  ****         for (uint64 j = 0; j < 10000; j++) {
  49              		.loc 1 24 9 is_stmt 1 discriminator 2
  50 001c 93861600 		addi	a3,a3,1
  51              	.LVL3:
  52              	.L6:
  53              		.loc 1 24 30 discriminator 1
  54 0020 B7270000 		li	a5,8192
  55 0024 9387F770 		addi	a5,a5,1807
  56 0028 63EED700 		bgtu	a3,a5,.L3
  57              	.LBB9:
  25:src/main.cpp  ****             for (uint64 k = 0; k < 30000; k++) { /* busy wait */ }
  58              		.loc 1 25 25 is_stmt 0
  59 002c 13070000 		li	a4,0
  60              	.L5:
  61              	.LVL4:
  62              		.loc 1 25 34 is_stmt 1 discriminator 3
  63 0030 B7770000 		li	a5,28672
  64 0034 9387F752 		addi	a5,a5,1327
  65 0038 E3E2E7FE 		bgtu	a4,a5,.L4
  66              		.loc 1 25 13 discriminator 2
  67 003c 13071700 		addi	a4,a4,1
  68              	.LVL5:
  69 0040 6FF01FFF 		j	.L5
  70              	.LVL6:
  71              	.L3:
  72              	.LBE9:
  73              	.LBE8:
  74              	.LBE7:
  21:src/main.cpp  **** 
  75              		.loc 1 21 5 discriminator 2
  76 0044 93841400 		addi	s1,s1,1
  77              	.LVL7:
  78              	.L7:
  21:src/main.cpp  **** 
  79              		.loc 1 21 26 discriminator 1
  80 0048 93074000 		li	a5,4
  81 004c 63EA9706 		bgtu	s1,a5,.L2
  82              	.LBB11:
GAS LISTING /tmp/ccZ1FuF7.s 			page 3


  23:src/main.cpp  ****         for (uint64 j = 0; j < 10000; j++) {
  83              		.loc 1 23 9
  23:src/main.cpp  ****         for (uint64 j = 0; j < 10000; j++) {
  84              		.loc 1 23 20 is_stmt 0
  85 0050 17050000 		lla	a0,.LC0
  85      13050500 
  86 0058 97000000 		call	_Z11printStringPKc@plt
  86      E7800000 
  87              	.LVL8:
  23:src/main.cpp  ****         for (uint64 j = 0; j < 10000; j++) {
  88              		.loc 1 23 31 is_stmt 1
  23:src/main.cpp  ****         for (uint64 j = 0; j < 10000; j++) {
  89              		.loc 1 23 39 is_stmt 0
  90 0060 13060000 		li	a2,0
  91 0064 9305A000 		li	a1,10
  92 0068 1B850400 		sext.w	a0,s1
  93 006c 97000000 		call	_Z8printIntiii@plt
  93      E7800000 
  94              	.LVL9:
  23:src/main.cpp  ****         for (uint64 j = 0; j < 10000; j++) {
  95              		.loc 1 23 44 is_stmt 1
  23:src/main.cpp  ****         for (uint64 j = 0; j < 10000; j++) {
  96              		.loc 1 23 55 is_stmt 0
  97 0074 17050000 		lla	a0,.LC1
  97      13050500 
  98 007c 97000000 		call	_Z11printStringPKc@plt
  98      E7800000 
  99              	.LVL10:
  23:src/main.cpp  ****         for (uint64 j = 0; j < 10000; j++) {
 100              		.loc 1 23 63 is_stmt 1
  23:src/main.cpp  ****         for (uint64 j = 0; j < 10000; j++) {
 101              		.loc 1 23 71 is_stmt 0
 102 0084 97070000 		la	a5,_ZN3TCB7runningE
 102      83B70700 
 103 008c 03B50700 		ld	a0,0(a5)
 104 0090 97000000 		call	_Z11getThreadIdP3TCB@plt
 104      E7800000 
 105              	.LVL11:
 106 0098 13060000 		li	a2,0
 107 009c 9305A000 		li	a1,10
 108 00a0 97000000 		call	_Z8printIntiii@plt
 108      E7800000 
 109              	.LVL12:
  23:src/main.cpp  ****         for (uint64 j = 0; j < 10000; j++) {
 110              		.loc 1 23 100 is_stmt 1
  23:src/main.cpp  ****         for (uint64 j = 0; j < 10000; j++) {
 111              		.loc 1 23 111 is_stmt 0
 112 00a8 17050000 		lla	a0,.LC2
 112      13050500 
 113 00b0 97000000 		call	_Z11printStringPKc@plt
 113      E7800000 
 114              	.LVL13:
  24:src/main.cpp  ****             for (uint64 k = 0; k < 30000; k++) { /* busy wait */ }
 115              		.loc 1 24 9 is_stmt 1
 116              	.LBB10:
  24:src/main.cpp  ****             for (uint64 k = 0; k < 30000; k++) { /* busy wait */ }
 117              		.loc 1 24 21 is_stmt 0
GAS LISTING /tmp/ccZ1FuF7.s 			page 4


 118 00b8 93060000 		li	a3,0
 119 00bc 6FF05FF6 		j	.L6
 120              	.LVL14:
 121              	.L2:
 122              	.LBE10:
 123              	.LBE11:
 124              	.LBE6:
  26:src/main.cpp  **** //            thread_dispatch();
  27:src/main.cpp  ****         }
  28:src/main.cpp  ****     }
  29:src/main.cpp  ****     printString("A finished!\n");
 125              		.loc 1 29 5 is_stmt 1
 126              		.loc 1 29 16 is_stmt 0
 127 00c0 17050000 		lla	a0,.LC3
 127      13050500 
 128 00c8 97000000 		call	_Z11printStringPKc@plt
 128      E7800000 
 129              	.LVL15:
  30:src/main.cpp  ****     ffinishedA = true;
 130              		.loc 1 30 5 is_stmt 1
 131              		.loc 1 30 16 is_stmt 0
 132 00d0 93071000 		li	a5,1
 133 00d4 17070000 		sb	a5,.LANCHOR0,a4
 133      2300F700 
  31:src/main.cpp  **** }
 134              		.loc 1 31 1
 135 00dc 83308101 		ld	ra,24(sp)
 136              		.cfi_restore 1
 137 00e0 03340101 		ld	s0,16(sp)
 138              		.cfi_restore 8
 139              		.cfi_def_cfa 2, 32
 140 00e4 83348100 		ld	s1,8(sp)
 141              		.cfi_restore 9
 142              	.LVL16:
 143 00e8 13010102 		addi	sp,sp,32
 144              		.cfi_def_cfa_offset 0
 145 00ec 67800000 		jr	ra
 146              		.cfi_endproc
 147              	.LFE48:
 149              		.section	.rodata.str1.8
 150 0025 000000   		.align	3
 151              	.LC4:
 152 0028 433A2069 		.string	"C: i="
 152      3D00
 153 002e 0000     		.align	3
 154              	.LC5:
 155 0030 43206669 		.string	"C finished!\n"
 155      6E697368 
 155      6564210A 
 155      00
 156              		.text
 157              		.align	2
 158              		.globl	_Z11workerBodyCPv
 160              	_Z11workerBodyCPv:
 161              	.LFB50:
  32:src/main.cpp  **** 
  33:src/main.cpp  **** void workerBodyB(void* arg) {
GAS LISTING /tmp/ccZ1FuF7.s 			page 5


  34:src/main.cpp  **** 
  35:src/main.cpp  ****     join(TCB::running);
  36:src/main.cpp  **** 
  37:src/main.cpp  ****     for (uint64 i = 0; i < 5; i++) {
  38:src/main.cpp  ****         printString("B: i="); printInt(i); printString("\n"); printInt(getThreadId(TCB::running));p
  39:src/main.cpp  ****         for (uint64 j = 0; j < 10000; j++) {
  40:src/main.cpp  ****             for (uint64 k = 0; k < 30000; k++) { /* busy wait */ }
  41:src/main.cpp  **** //            thread_dispatch();
  42:src/main.cpp  ****         }
  43:src/main.cpp  ****     }
  44:src/main.cpp  ****     printString("B finished!\n");
  45:src/main.cpp  ****     ffinishedB = true;
  46:src/main.cpp  **** }
  47:src/main.cpp  **** 
  48:src/main.cpp  **** void workerBodyC(void* arg) {
 162              		.loc 1 48 29 is_stmt 1
 163              		.cfi_startproc
 164              	.LVL17:
 165 00f0 130101FE 		addi	sp,sp,-32
 166              		.cfi_def_cfa_offset 32
 167 00f4 233C1100 		sd	ra,24(sp)
 168 00f8 23388100 		sd	s0,16(sp)
 169 00fc 23349100 		sd	s1,8(sp)
 170              		.cfi_offset 1, -8
 171              		.cfi_offset 8, -16
 172              		.cfi_offset 9, -24
 173 0100 13040102 		addi	s0,sp,32
 174              		.cfi_def_cfa 8, 0
  49:src/main.cpp  **** 
  50:src/main.cpp  ****     for (uint64 i = 0; i < 5; i++) {
 175              		.loc 1 50 5
 176              	.LVL18:
 177              	.LBB12:
 178              		.loc 1 50 17 is_stmt 0
 179 0104 93040000 		li	s1,0
 180 0108 6F000003 		j	.L15
 181              	.LVL19:
 182              	.L12:
 183              	.LBB13:
 184              	.LBB14:
  51:src/main.cpp  ****         printString("C: i="); printInt(i); printString("\n"); printInt(getThreadId(TCB::running));p
  52:src/main.cpp  ****         for (uint64 j = 0; j < 10000; j++) {
 185              		.loc 1 52 9 is_stmt 1 discriminator 2
 186 010c 93861600 		addi	a3,a3,1
 187              	.LVL20:
 188              	.L14:
 189              		.loc 1 52 30 discriminator 1
 190 0110 B7270000 		li	a5,8192
 191 0114 9387F770 		addi	a5,a5,1807
 192 0118 63EED700 		bgtu	a3,a5,.L11
 193              	.LBB15:
  53:src/main.cpp  ****             for (uint64 k = 0; k < 30000; k++) { /* busy wait */ }
 194              		.loc 1 53 25 is_stmt 0
 195 011c 13070000 		li	a4,0
 196              	.L13:
 197              	.LVL21:
 198              		.loc 1 53 34 is_stmt 1 discriminator 3
GAS LISTING /tmp/ccZ1FuF7.s 			page 6


 199 0120 B7770000 		li	a5,28672
 200 0124 9387F752 		addi	a5,a5,1327
 201 0128 E3E2E7FE 		bgtu	a4,a5,.L12
 202              		.loc 1 53 13 discriminator 2
 203 012c 13071700 		addi	a4,a4,1
 204              	.LVL22:
 205 0130 6FF01FFF 		j	.L13
 206              	.LVL23:
 207              	.L11:
 208              	.LBE15:
 209              	.LBE14:
 210              	.LBE13:
  50:src/main.cpp  ****         printString("C: i="); printInt(i); printString("\n"); printInt(getThreadId(TCB::running));p
 211              		.loc 1 50 5 discriminator 2
 212 0134 93841400 		addi	s1,s1,1
 213              	.LVL24:
 214              	.L15:
  50:src/main.cpp  ****         printString("C: i="); printInt(i); printString("\n"); printInt(getThreadId(TCB::running));p
 215              		.loc 1 50 26 discriminator 1
 216 0138 93074000 		li	a5,4
 217 013c 63EA9706 		bgtu	s1,a5,.L10
 218              	.LBB17:
  51:src/main.cpp  ****         printString("C: i="); printInt(i); printString("\n"); printInt(getThreadId(TCB::running));p
 219              		.loc 1 51 9
  51:src/main.cpp  ****         printString("C: i="); printInt(i); printString("\n"); printInt(getThreadId(TCB::running));p
 220              		.loc 1 51 20 is_stmt 0
 221 0140 17050000 		lla	a0,.LC4
 221      13050500 
 222 0148 97000000 		call	_Z11printStringPKc@plt
 222      E7800000 
 223              	.LVL25:
  51:src/main.cpp  ****         printString("C: i="); printInt(i); printString("\n"); printInt(getThreadId(TCB::running));p
 224              		.loc 1 51 31 is_stmt 1
  51:src/main.cpp  ****         printString("C: i="); printInt(i); printString("\n"); printInt(getThreadId(TCB::running));p
 225              		.loc 1 51 39 is_stmt 0
 226 0150 13060000 		li	a2,0
 227 0154 9305A000 		li	a1,10
 228 0158 1B850400 		sext.w	a0,s1
 229 015c 97000000 		call	_Z8printIntiii@plt
 229      E7800000 
 230              	.LVL26:
  51:src/main.cpp  ****         printString("C: i="); printInt(i); printString("\n"); printInt(getThreadId(TCB::running));p
 231              		.loc 1 51 44 is_stmt 1
  51:src/main.cpp  ****         printString("C: i="); printInt(i); printString("\n"); printInt(getThreadId(TCB::running));p
 232              		.loc 1 51 55 is_stmt 0
 233 0164 17050000 		lla	a0,.LC1
 233      13050500 
 234 016c 97000000 		call	_Z11printStringPKc@plt
 234      E7800000 
 235              	.LVL27:
  51:src/main.cpp  ****         printString("C: i="); printInt(i); printString("\n"); printInt(getThreadId(TCB::running));p
 236              		.loc 1 51 63 is_stmt 1
  51:src/main.cpp  ****         printString("C: i="); printInt(i); printString("\n"); printInt(getThreadId(TCB::running));p
 237              		.loc 1 51 71 is_stmt 0
 238 0174 97070000 		la	a5,_ZN3TCB7runningE
 238      83B70700 
 239 017c 03B50700 		ld	a0,0(a5)
GAS LISTING /tmp/ccZ1FuF7.s 			page 7


 240 0180 97000000 		call	_Z11getThreadIdP3TCB@plt
 240      E7800000 
 241              	.LVL28:
 242 0188 13060000 		li	a2,0
 243 018c 9305A000 		li	a1,10
 244 0190 97000000 		call	_Z8printIntiii@plt
 244      E7800000 
 245              	.LVL29:
  51:src/main.cpp  ****         printString("C: i="); printInt(i); printString("\n"); printInt(getThreadId(TCB::running));p
 246              		.loc 1 51 99 is_stmt 1
  51:src/main.cpp  ****         printString("C: i="); printInt(i); printString("\n"); printInt(getThreadId(TCB::running));p
 247              		.loc 1 51 110 is_stmt 0
 248 0198 17050000 		lla	a0,.LC2
 248      13050500 
 249 01a0 97000000 		call	_Z11printStringPKc@plt
 249      E7800000 
 250              	.LVL30:
  52:src/main.cpp  ****             for (uint64 k = 0; k < 30000; k++) { /* busy wait */ }
 251              		.loc 1 52 9 is_stmt 1
 252              	.LBB16:
  52:src/main.cpp  ****             for (uint64 k = 0; k < 30000; k++) { /* busy wait */ }
 253              		.loc 1 52 21 is_stmt 0
 254 01a8 93060000 		li	a3,0
 255 01ac 6FF05FF6 		j	.L14
 256              	.LVL31:
 257              	.L10:
 258              	.LBE16:
 259              	.LBE17:
 260              	.LBE12:
  54:src/main.cpp  **** //            thread_dispatch();
  55:src/main.cpp  ****         }
  56:src/main.cpp  ****     }
  57:src/main.cpp  ****     printString("C finished!\n");
 261              		.loc 1 57 5 is_stmt 1
 262              		.loc 1 57 16 is_stmt 0
 263 01b0 17050000 		lla	a0,.LC5
 263      13050500 
 264 01b8 97000000 		call	_Z11printStringPKc@plt
 264      E7800000 
 265              	.LVL32:
  58:src/main.cpp  ****     ffinishedC = true;
 266              		.loc 1 58 5 is_stmt 1
 267              		.loc 1 58 16 is_stmt 0
 268 01c0 93071000 		li	a5,1
 269 01c4 17070000 		sb	a5,.LANCHOR0+1,a4
 269      2300F700 
  59:src/main.cpp  **** }
 270              		.loc 1 59 1
 271 01cc 83308101 		ld	ra,24(sp)
 272              		.cfi_restore 1
 273 01d0 03340101 		ld	s0,16(sp)
 274              		.cfi_restore 8
 275              		.cfi_def_cfa 2, 32
 276 01d4 83348100 		ld	s1,8(sp)
 277              		.cfi_restore 9
 278              	.LVL33:
 279 01d8 13010102 		addi	sp,sp,32
GAS LISTING /tmp/ccZ1FuF7.s 			page 8


 280              		.cfi_def_cfa_offset 0
 281 01dc 67800000 		jr	ra
 282              		.cfi_endproc
 283              	.LFE50:
 285              		.section	.rodata.str1.8
 286 003d 000000   		.align	3
 287              	.LC6:
 288 0040 423A2069 		.string	"B: i="
 288      3D00
 289 0046 0000     		.align	3
 290              	.LC7:
 291 0048 42206669 		.string	"B finished!\n"
 291      6E697368 
 291      6564210A 
 291      00
 292              		.text
 293              		.align	2
 294              		.globl	_Z11workerBodyBPv
 296              	_Z11workerBodyBPv:
 297              	.LFB49:
  33:src/main.cpp  **** 
 298              		.loc 1 33 29 is_stmt 1
 299              		.cfi_startproc
 300              	.LVL34:
 301 01e0 130101FE 		addi	sp,sp,-32
 302              		.cfi_def_cfa_offset 32
 303 01e4 233C1100 		sd	ra,24(sp)
 304 01e8 23388100 		sd	s0,16(sp)
 305 01ec 23349100 		sd	s1,8(sp)
 306              		.cfi_offset 1, -8
 307              		.cfi_offset 8, -16
 308              		.cfi_offset 9, -24
 309 01f0 13040102 		addi	s0,sp,32
 310              		.cfi_def_cfa 8, 0
  35:src/main.cpp  **** 
 311              		.loc 1 35 5
  35:src/main.cpp  **** 
 312              		.loc 1 35 9 is_stmt 0
 313 01f4 97070000 		la	a5,_ZN3TCB7runningE
 313      83B70700 
 314 01fc 03B50700 		ld	a0,0(a5)
 315              	.LVL35:
 316 0200 97000000 		call	_Z4joinP3TCB@plt
 316      E7800000 
 317              	.LVL36:
  37:src/main.cpp  ****         printString("B: i="); printInt(i); printString("\n"); printInt(getThreadId(TCB::running));p
 318              		.loc 1 37 5 is_stmt 1
 319              	.LBB18:
  37:src/main.cpp  ****         printString("B: i="); printInt(i); printString("\n"); printInt(getThreadId(TCB::running));p
 320              		.loc 1 37 17 is_stmt 0
 321 0208 93040000 		li	s1,0
 322 020c 6F000003 		j	.L23
 323              	.LVL37:
 324              	.L20:
 325              	.LBB19:
 326              	.LBB20:
  39:src/main.cpp  ****             for (uint64 k = 0; k < 30000; k++) { /* busy wait */ }
GAS LISTING /tmp/ccZ1FuF7.s 			page 9


 327              		.loc 1 39 9 is_stmt 1 discriminator 2
 328 0210 93861600 		addi	a3,a3,1
 329              	.LVL38:
 330              	.L22:
  39:src/main.cpp  ****             for (uint64 k = 0; k < 30000; k++) { /* busy wait */ }
 331              		.loc 1 39 30 discriminator 1
 332 0214 B7270000 		li	a5,8192
 333 0218 9387F770 		addi	a5,a5,1807
 334 021c 63EED700 		bgtu	a3,a5,.L19
 335              	.LBB21:
  40:src/main.cpp  **** //            thread_dispatch();
 336              		.loc 1 40 25 is_stmt 0
 337 0220 13070000 		li	a4,0
 338              	.L21:
 339              	.LVL39:
  40:src/main.cpp  **** //            thread_dispatch();
 340              		.loc 1 40 34 is_stmt 1 discriminator 3
 341 0224 B7770000 		li	a5,28672
 342 0228 9387F752 		addi	a5,a5,1327
 343 022c E3E2E7FE 		bgtu	a4,a5,.L20
  40:src/main.cpp  **** //            thread_dispatch();
 344              		.loc 1 40 13 discriminator 2
 345 0230 13071700 		addi	a4,a4,1
 346              	.LVL40:
 347 0234 6FF01FFF 		j	.L21
 348              	.LVL41:
 349              	.L19:
 350              	.LBE21:
 351              	.LBE20:
 352              	.LBE19:
  37:src/main.cpp  ****         printString("B: i="); printInt(i); printString("\n"); printInt(getThreadId(TCB::running));p
 353              		.loc 1 37 5 discriminator 2
 354 0238 93841400 		addi	s1,s1,1
 355              	.LVL42:
 356              	.L23:
  37:src/main.cpp  ****         printString("B: i="); printInt(i); printString("\n"); printInt(getThreadId(TCB::running));p
 357              		.loc 1 37 26 discriminator 1
 358 023c 93074000 		li	a5,4
 359 0240 63EA9706 		bgtu	s1,a5,.L18
 360              	.LBB23:
  38:src/main.cpp  ****         for (uint64 j = 0; j < 10000; j++) {
 361              		.loc 1 38 9
  38:src/main.cpp  ****         for (uint64 j = 0; j < 10000; j++) {
 362              		.loc 1 38 20 is_stmt 0
 363 0244 17050000 		lla	a0,.LC6
 363      13050500 
 364 024c 97000000 		call	_Z11printStringPKc@plt
 364      E7800000 
 365              	.LVL43:
  38:src/main.cpp  ****         for (uint64 j = 0; j < 10000; j++) {
 366              		.loc 1 38 31 is_stmt 1
  38:src/main.cpp  ****         for (uint64 j = 0; j < 10000; j++) {
 367              		.loc 1 38 39 is_stmt 0
 368 0254 13060000 		li	a2,0
 369 0258 9305A000 		li	a1,10
 370 025c 1B850400 		sext.w	a0,s1
 371 0260 97000000 		call	_Z8printIntiii@plt
GAS LISTING /tmp/ccZ1FuF7.s 			page 10


 371      E7800000 
 372              	.LVL44:
  38:src/main.cpp  ****         for (uint64 j = 0; j < 10000; j++) {
 373              		.loc 1 38 44 is_stmt 1
  38:src/main.cpp  ****         for (uint64 j = 0; j < 10000; j++) {
 374              		.loc 1 38 55 is_stmt 0
 375 0268 17050000 		lla	a0,.LC1
 375      13050500 
 376 0270 97000000 		call	_Z11printStringPKc@plt
 376      E7800000 
 377              	.LVL45:
  38:src/main.cpp  ****         for (uint64 j = 0; j < 10000; j++) {
 378              		.loc 1 38 63 is_stmt 1
  38:src/main.cpp  ****         for (uint64 j = 0; j < 10000; j++) {
 379              		.loc 1 38 71 is_stmt 0
 380 0278 97070000 		la	a5,_ZN3TCB7runningE
 380      83B70700 
 381 0280 03B50700 		ld	a0,0(a5)
 382 0284 97000000 		call	_Z11getThreadIdP3TCB@plt
 382      E7800000 
 383              	.LVL46:
 384 028c 13060000 		li	a2,0
 385 0290 9305A000 		li	a1,10
 386 0294 97000000 		call	_Z8printIntiii@plt
 386      E7800000 
 387              	.LVL47:
  38:src/main.cpp  ****         for (uint64 j = 0; j < 10000; j++) {
 388              		.loc 1 38 99 is_stmt 1
  38:src/main.cpp  ****         for (uint64 j = 0; j < 10000; j++) {
 389              		.loc 1 38 110 is_stmt 0
 390 029c 17050000 		lla	a0,.LC2
 390      13050500 
 391 02a4 97000000 		call	_Z11printStringPKc@plt
 391      E7800000 
 392              	.LVL48:
  39:src/main.cpp  ****             for (uint64 k = 0; k < 30000; k++) { /* busy wait */ }
 393              		.loc 1 39 9 is_stmt 1
 394              	.LBB22:
  39:src/main.cpp  ****             for (uint64 k = 0; k < 30000; k++) { /* busy wait */ }
 395              		.loc 1 39 21 is_stmt 0
 396 02ac 93060000 		li	a3,0
 397 02b0 6FF05FF6 		j	.L22
 398              	.LVL49:
 399              	.L18:
 400              	.LBE22:
 401              	.LBE23:
 402              	.LBE18:
  44:src/main.cpp  ****     ffinishedB = true;
 403              		.loc 1 44 5 is_stmt 1
  44:src/main.cpp  ****     ffinishedB = true;
 404              		.loc 1 44 16 is_stmt 0
 405 02b4 17050000 		lla	a0,.LC7
 405      13050500 
 406 02bc 97000000 		call	_Z11printStringPKc@plt
 406      E7800000 
 407              	.LVL50:
  45:src/main.cpp  **** }
GAS LISTING /tmp/ccZ1FuF7.s 			page 11


 408              		.loc 1 45 5 is_stmt 1
  45:src/main.cpp  **** }
 409              		.loc 1 45 16 is_stmt 0
 410 02c4 93071000 		li	a5,1
 411 02c8 17070000 		sb	a5,.LANCHOR0+2,a4
 411      2300F700 
  46:src/main.cpp  **** 
 412              		.loc 1 46 1
 413 02d0 83308101 		ld	ra,24(sp)
 414              		.cfi_restore 1
 415 02d4 03340101 		ld	s0,16(sp)
 416              		.cfi_restore 8
 417              		.cfi_def_cfa 2, 32
 418 02d8 83348100 		ld	s1,8(sp)
 419              		.cfi_restore 9
 420              	.LVL51:
 421 02dc 13010102 		addi	sp,sp,32
 422              		.cfi_def_cfa_offset 0
 423 02e0 67800000 		jr	ra
 424              		.cfi_endproc
 425              	.LFE49:
 427              		.section	.rodata.str1.8
 428 0055 000000   		.align	3
 429              	.LC8:
 430 0058 54687265 		.string	"ThreadA created\n"
 430      61644120 
 430      63726561 
 430      7465640A 
 430      00
 431 0069 00000000 		.align	3
 431      000000
 432              	.LC9:
 433 0070 54687265 		.string	"ThreadB created\n"
 433      61644220 
 433      63726561 
 433      7465640A 
 433      00
 434 0081 00000000 		.align	3
 434      000000
 435              	.LC10:
 436 0088 54687265 		.string	"ThreadC created\n"
 436      61644320 
 436      63726561 
 436      7465640A 
 436      00
 437              		.text
 438              		.align	2
 439              		.globl	main
 441              	main:
 442              	.LFB51:
  60:src/main.cpp  **** 
  61:src/main.cpp  **** 
  62:src/main.cpp  **** int main() {
 443              		.loc 1 62 12 is_stmt 1
 444              		.cfi_startproc
 445 02e4 130101FD 		addi	sp,sp,-48
 446              		.cfi_def_cfa_offset 48
GAS LISTING /tmp/ccZ1FuF7.s 			page 12


 447 02e8 23341102 		sd	ra,40(sp)
 448 02ec 23308102 		sd	s0,32(sp)
 449              		.cfi_offset 1, -8
 450              		.cfi_offset 8, -16
 451 02f0 13040103 		addi	s0,sp,48
 452              		.cfi_def_cfa 8, 0
  63:src/main.cpp  ****     MemoryAllocator::initMemoryAllocator();
 453              		.loc 1 63 5
 454              		.loc 1 63 41 is_stmt 0
 455 02f4 97000000 		call	_ZN15MemoryAllocator19initMemoryAllocatorEv@plt
 455      E7800000 
 456              	.LVL52:
  64:src/main.cpp  **** 
  65:src/main.cpp  ****     TCB::running= TCB::createThread(nullptr, nullptr);
 457              		.loc 1 65 5 is_stmt 1
 458              		.loc 1 65 36 is_stmt 0
 459 02fc 93050000 		li	a1,0
 460 0300 13050000 		li	a0,0
 461 0304 97000000 		call	_ZN3TCB12createThreadEPFvPvES0_@plt
 461      E7800000 
 462              	.LVL53:
 463              		.loc 1 65 17
 464 030c 97070000 		la	a5,_ZN3TCB7runningE
 464      83B70700 
 465 0314 23B0A700 		sd	a0,0(a5)
  66:src/main.cpp  **** 
  67:src/main.cpp  ****     Riscv::w_stvec((uint64) &Riscv::supervisorTrap);
 466              		.loc 1 67 5 is_stmt 1
 467              		.loc 1 67 19 is_stmt 0
 468 0318 97070000 		la	a5,_ZN5Riscv14supervisorTrapEv
 468      83B70700 
 469              	.LVL54:
 470              	.LBB24:
 471              	.LBB25:
 472              		.file 2 "src/../h/riscv.hpp"
   1:src/../h/riscv.hpp **** //
   2:src/../h/riscv.hpp **** // Created by os on 8/19/22.
   3:src/../h/riscv.hpp **** //
   4:src/../h/riscv.hpp **** 
   5:src/../h/riscv.hpp **** #ifndef PROJECT_BASE_RISCV_HPP
   6:src/../h/riscv.hpp **** #define PROJECT_BASE_RISCV_HPP
   7:src/../h/riscv.hpp **** 
   8:src/../h/riscv.hpp **** //#include "../lib/hw.h"
   9:src/../h/riscv.hpp **** #include "../h/TCB.hpp"
  10:src/../h/riscv.hpp **** #include "../lib/console.h"
  11:src/../h/riscv.hpp **** #include "../h/Ksemaphore.hpp"
  12:src/../h/riscv.hpp **** #include "../h/MemoryAllocator.hpp"
  13:src/../h/riscv.hpp **** //#include "../h/syscall_cpp.hpp"
  14:src/../h/riscv.hpp **** 
  15:src/../h/riscv.hpp **** //class TCB;
  16:src/../h/riscv.hpp **** class Riscv
  17:src/../h/riscv.hpp **** {
  18:src/../h/riscv.hpp **** public:
  19:src/../h/riscv.hpp **** 
  20:src/../h/riscv.hpp ****     // pop sstatus.spp and sstatus.spie bits (has to be a non inline function)
  21:src/../h/riscv.hpp ****     static void popSppSpie();
  22:src/../h/riscv.hpp **** 
GAS LISTING /tmp/ccZ1FuF7.s 			page 13


  23:src/../h/riscv.hpp ****     // push x3..x31 registers onto stack
  24:src/../h/riscv.hpp ****     static void pushRegisters();
  25:src/../h/riscv.hpp **** 
  26:src/../h/riscv.hpp ****     // pop x3..x31 registers onto stack
  27:src/../h/riscv.hpp ****     static void popRegisters();
  28:src/../h/riscv.hpp **** 
  29:src/../h/riscv.hpp ****     // read register scause
  30:src/../h/riscv.hpp ****     static uint64 r_scause();
  31:src/../h/riscv.hpp **** 
  32:src/../h/riscv.hpp ****     // write register scause
  33:src/../h/riscv.hpp ****     static void w_scause(uint64 scause);
  34:src/../h/riscv.hpp **** 
  35:src/../h/riscv.hpp ****     // read register sepc
  36:src/../h/riscv.hpp ****     static uint64 r_sepc();
  37:src/../h/riscv.hpp **** 
  38:src/../h/riscv.hpp ****     // write register sepc
  39:src/../h/riscv.hpp ****     static void w_sepc(uint64 sepc);
  40:src/../h/riscv.hpp **** 
  41:src/../h/riscv.hpp ****     // read register stvec
  42:src/../h/riscv.hpp ****     static uint64 r_stvec();
  43:src/../h/riscv.hpp **** 
  44:src/../h/riscv.hpp ****     // write register stvec
  45:src/../h/riscv.hpp ****     static void w_stvec(uint64 stvec);
  46:src/../h/riscv.hpp **** 
  47:src/../h/riscv.hpp ****     // read register stval
  48:src/../h/riscv.hpp ****     static uint64 r_stval();
  49:src/../h/riscv.hpp **** 
  50:src/../h/riscv.hpp ****     // write register stval
  51:src/../h/riscv.hpp ****     static void w_stval(uint64 stval);
  52:src/../h/riscv.hpp **** 
  53:src/../h/riscv.hpp ****     enum BitMaskSip
  54:src/../h/riscv.hpp ****     {
  55:src/../h/riscv.hpp ****         SIP_SSIP = (1 << 1),
  56:src/../h/riscv.hpp ****         SIP_STIP = (1 << 5),
  57:src/../h/riscv.hpp ****         SIP_SEIP = (1 << 9),
  58:src/../h/riscv.hpp ****     };
  59:src/../h/riscv.hpp **** 
  60:src/../h/riscv.hpp ****     // mask set register sip
  61:src/../h/riscv.hpp ****     static void ms_sip(uint64 mask);
  62:src/../h/riscv.hpp **** 
  63:src/../h/riscv.hpp ****     // mask clear register sip
  64:src/../h/riscv.hpp ****     static void mc_sip(uint64 mask);
  65:src/../h/riscv.hpp **** 
  66:src/../h/riscv.hpp ****     // read register sip
  67:src/../h/riscv.hpp ****     static uint64 r_sip();
  68:src/../h/riscv.hpp **** 
  69:src/../h/riscv.hpp ****     // write register sip
  70:src/../h/riscv.hpp ****     static void w_sip(uint64 sip);
  71:src/../h/riscv.hpp **** 
  72:src/../h/riscv.hpp ****     enum BitMaskSstatus
  73:src/../h/riscv.hpp ****     {
  74:src/../h/riscv.hpp ****         SSTATUS_SIE = (1 << 1),
  75:src/../h/riscv.hpp ****         SSTATUS_SPIE = (1 << 5),
  76:src/../h/riscv.hpp ****         SSTATUS_SPP = (1 << 8),
  77:src/../h/riscv.hpp ****     };
  78:src/../h/riscv.hpp **** 
  79:src/../h/riscv.hpp ****     // mask set register sstatus
GAS LISTING /tmp/ccZ1FuF7.s 			page 14


  80:src/../h/riscv.hpp ****     static void ms_sstatus(uint64 mask);
  81:src/../h/riscv.hpp **** 
  82:src/../h/riscv.hpp ****     // mask clear register sstatus
  83:src/../h/riscv.hpp ****     static void mc_sstatus(uint64 mask);
  84:src/../h/riscv.hpp **** 
  85:src/../h/riscv.hpp ****     // read register sstatus
  86:src/../h/riscv.hpp ****     static uint64 r_sstatus();
  87:src/../h/riscv.hpp **** 
  88:src/../h/riscv.hpp ****     // write register sstatus
  89:src/../h/riscv.hpp ****     static void w_sstatus(uint64 sstatus);
  90:src/../h/riscv.hpp **** 
  91:src/../h/riscv.hpp ****     //read a0;
  92:src/../h/riscv.hpp ****     static uint64 r_a0();
  93:src/../h/riscv.hpp **** 
  94:src/../h/riscv.hpp **** // supervisor trap
  95:src/../h/riscv.hpp ****     static void supervisorTrap();
  96:src/../h/riscv.hpp **** 
  97:src/../h/riscv.hpp **** private:
  98:src/../h/riscv.hpp **** 
  99:src/../h/riscv.hpp ****     // supervisor trap handler
 100:src/../h/riscv.hpp ****     static void handleSupervisorTrap();
 101:src/../h/riscv.hpp **** 
 102:src/../h/riscv.hpp **** };
 103:src/../h/riscv.hpp **** 
 104:src/../h/riscv.hpp **** inline uint64 Riscv::r_scause()
 105:src/../h/riscv.hpp **** {
 106:src/../h/riscv.hpp ****     uint64 volatile scause;
 107:src/../h/riscv.hpp ****     __asm__ volatile ("csrr %[scause], scause" : [scause] "=r"(scause));
 108:src/../h/riscv.hpp ****     return scause;
 109:src/../h/riscv.hpp **** }
 110:src/../h/riscv.hpp **** 
 111:src/../h/riscv.hpp **** inline void Riscv::w_scause(uint64 scause)
 112:src/../h/riscv.hpp **** {
 113:src/../h/riscv.hpp ****     __asm__ volatile ("csrw scause, %[scause]" : : [scause] "r"(scause));
 114:src/../h/riscv.hpp **** }
 115:src/../h/riscv.hpp **** 
 116:src/../h/riscv.hpp **** inline uint64 Riscv::r_sepc()
 117:src/../h/riscv.hpp **** {
 118:src/../h/riscv.hpp ****     uint64 volatile sepc;
 119:src/../h/riscv.hpp ****     __asm__ volatile ("csrr %[sepc], sepc" : [sepc] "=r"(sepc));
 120:src/../h/riscv.hpp ****     return sepc;
 121:src/../h/riscv.hpp **** }
 122:src/../h/riscv.hpp **** 
 123:src/../h/riscv.hpp **** inline void Riscv::w_sepc(uint64 sepc)
 124:src/../h/riscv.hpp **** {
 125:src/../h/riscv.hpp ****     __asm__ volatile ("csrw sepc, %[sepc]" : : [sepc] "r"(sepc));
 126:src/../h/riscv.hpp **** }
 127:src/../h/riscv.hpp **** 
 128:src/../h/riscv.hpp **** inline uint64 Riscv::r_stvec()
 129:src/../h/riscv.hpp **** {
 130:src/../h/riscv.hpp ****     uint64 volatile stvec;
 131:src/../h/riscv.hpp ****     __asm__ volatile ("csrr %[stvec], stvec" : [stvec] "=r"(stvec));
 132:src/../h/riscv.hpp ****     return stvec;
 133:src/../h/riscv.hpp **** }
 134:src/../h/riscv.hpp **** 
 135:src/../h/riscv.hpp **** inline void Riscv::w_stvec(uint64 stvec)
 136:src/../h/riscv.hpp **** {
GAS LISTING /tmp/ccZ1FuF7.s 			page 15


 137:src/../h/riscv.hpp ****     __asm__ volatile ("csrw stvec, %[stvec]" : : [stvec] "r"(stvec));
 473              		.loc 2 137 5 is_stmt 1
 474              		.loc 2 137 69 is_stmt 0
 475              	#APP
 476              	# 137 "src/../h/riscv.hpp" 1
 138              	}
 477              		csrw stvec, a5
 478              	# 0 "" 2
 479              	.LVL55:
 480              	#NO_APP
 481              	.LBE25:
 482              	.LBE24:
  68:src/main.cpp  ****     Riscv::ms_sstatus(Riscv::SSTATUS_SIE);
 483              		.loc 1 68 5 is_stmt 1
 484              	.LBB26:
 485              	.LBB27:
 139:src/../h/riscv.hpp **** 
 140:src/../h/riscv.hpp **** inline uint64 Riscv::r_stval()
 141:src/../h/riscv.hpp **** {
 142:src/../h/riscv.hpp ****     uint64 volatile stval;
 143:src/../h/riscv.hpp ****     __asm__ volatile ("csrr %[stval], stval" : [stval] "=r"(stval));
 144:src/../h/riscv.hpp ****     return stval;
 145:src/../h/riscv.hpp **** }
 146:src/../h/riscv.hpp **** 
 147:src/../h/riscv.hpp **** inline void Riscv::w_stval(uint64 stval)
 148:src/../h/riscv.hpp **** {
 149:src/../h/riscv.hpp ****     __asm__ volatile ("csrw stval, %[stval]" : : [stval] "r"(stval));
 150:src/../h/riscv.hpp **** }
 151:src/../h/riscv.hpp **** 
 152:src/../h/riscv.hpp **** inline void Riscv::ms_sip(uint64 mask)
 153:src/../h/riscv.hpp **** {
 154:src/../h/riscv.hpp ****     __asm__ volatile ("csrs sip, %[mask]" : : [mask] "r"(mask));
 155:src/../h/riscv.hpp **** }
 156:src/../h/riscv.hpp **** 
 157:src/../h/riscv.hpp **** inline void Riscv::mc_sip(uint64 mask)
 158:src/../h/riscv.hpp **** {
 159:src/../h/riscv.hpp ****     __asm__ volatile ("csrc sip, %[mask]" : : [mask] "r"(mask));
 160:src/../h/riscv.hpp **** }
 161:src/../h/riscv.hpp **** 
 162:src/../h/riscv.hpp **** inline uint64 Riscv::r_sip()
 163:src/../h/riscv.hpp **** {
 164:src/../h/riscv.hpp ****     uint64 volatile sip;
 165:src/../h/riscv.hpp ****     __asm__ volatile ("csrr %[sip], sip" : [sip] "=r"(sip));
 166:src/../h/riscv.hpp ****     return sip;
 167:src/../h/riscv.hpp **** }
 168:src/../h/riscv.hpp **** 
 169:src/../h/riscv.hpp **** inline void Riscv::w_sip(uint64 sip)
 170:src/../h/riscv.hpp **** {
 171:src/../h/riscv.hpp ****     __asm__ volatile ("csrw sip, %[sip]" : : [sip] "r"(sip));
 172:src/../h/riscv.hpp **** }
 173:src/../h/riscv.hpp **** 
 174:src/../h/riscv.hpp **** inline void Riscv::ms_sstatus(uint64 mask)
 175:src/../h/riscv.hpp **** {
 176:src/../h/riscv.hpp ****     __asm__ volatile ("csrs sstatus, %[mask]" : : [mask] "r"(mask));
 486              		.loc 2 176 5
 487              		.loc 2 176 68 is_stmt 0
 488 0324 93072000 		li	a5,2
GAS LISTING /tmp/ccZ1FuF7.s 			page 16


 489              	#APP
 490              	# 176 "src/../h/riscv.hpp" 1
 177              	}
 491              		csrs sstatus, a5
 492              	# 0 "" 2
 493              	.LVL56:
 494              	#NO_APP
 495              	.LBE27:
 496              	.LBE26:
  69:src/main.cpp  **** 
  70:src/main.cpp  ****     thread_t threads[3];
 497              		.loc 1 70 5 is_stmt 1
  71:src/main.cpp  ****     thread_create(&threads[0], workerBodyA, nullptr);
 498              		.loc 1 71 5
 499              		.loc 1 71 18 is_stmt 0
 500 032c 13060000 		li	a2,0
 501 0330 97050000 		lla	a1,_Z11workerBodyAPv
 501      93850500 
 502 0338 130584FD 		addi	a0,s0,-40
 503 033c 97000000 		call	_Z13thread_createPP3TCBPFvPvES2_@plt
 503      E7800000 
 504              	.LVL57:
  72:src/main.cpp  ****     printString("ThreadA created\n");
 505              		.loc 1 72 5 is_stmt 1
 506              		.loc 1 72 16 is_stmt 0
 507 0344 17050000 		lla	a0,.LC8
 507      13050500 
 508 034c 97000000 		call	_Z11printStringPKc@plt
 508      E7800000 
 509              	.LVL58:
  73:src/main.cpp  **** 
  74:src/main.cpp  ****     thread_create(&threads[1], workerBodyB, nullptr);
 510              		.loc 1 74 5 is_stmt 1
 511              		.loc 1 74 18 is_stmt 0
 512 0354 13060000 		li	a2,0
 513 0358 97050000 		lla	a1,_Z11workerBodyBPv
 513      93850500 
 514 0360 130504FE 		addi	a0,s0,-32
 515 0364 97000000 		call	_Z13thread_createPP3TCBPFvPvES2_@plt
 515      E7800000 
 516              	.LVL59:
  75:src/main.cpp  ****     printString("ThreadB created\n");
 517              		.loc 1 75 5 is_stmt 1
 518              		.loc 1 75 16 is_stmt 0
 519 036c 17050000 		lla	a0,.LC9
 519      13050500 
 520 0374 97000000 		call	_Z11printStringPKc@plt
 520      E7800000 
 521              	.LVL60:
  76:src/main.cpp  **** 
  77:src/main.cpp  ****     thread_create(&threads[2], workerBodyC, nullptr);
 522              		.loc 1 77 5 is_stmt 1
 523              		.loc 1 77 18 is_stmt 0
 524 037c 13060000 		li	a2,0
 525 0380 97050000 		lla	a1,_Z11workerBodyCPv
 525      93850500 
 526 0388 130584FE 		addi	a0,s0,-24
GAS LISTING /tmp/ccZ1FuF7.s 			page 17


 527 038c 97000000 		call	_Z13thread_createPP3TCBPFvPvES2_@plt
 527      E7800000 
 528              	.LVL61:
  78:src/main.cpp  ****     printString("ThreadC created\n");
 529              		.loc 1 78 5 is_stmt 1
 530              		.loc 1 78 16 is_stmt 0
 531 0394 17050000 		lla	a0,.LC10
 531      13050500 
 532 039c 97000000 		call	_Z11printStringPKc@plt
 532      E7800000 
 533              	.LVL62:
 534              	.L27:
  79:src/main.cpp  **** 
  80:src/main.cpp  ****     while (!Scheduler::isEmpty()) {
 535              		.loc 1 80 5 is_stmt 1
 536              		.loc 1 80 12
 537              		.loc 1 80 31 is_stmt 0
 538 03a4 97000000 		call	_ZN9Scheduler7isEmptyEv@plt
 538      E7800000 
 539              	.LVL63:
 540              		.loc 1 80 12
 541 03ac 63180500 		bnez	a0,.L26
  81:src/main.cpp  ****         thread_dispatch();
 542              		.loc 1 81 9 is_stmt 1
 543              		.loc 1 81 24 is_stmt 0
 544 03b0 97000000 		call	_Z15thread_dispatchv@plt
 544      E7800000 
 545              	.LVL64:
 546 03b8 6FF0DFFE 		j	.L27
 547              	.L26:
  82:src/main.cpp  ****     }
  83:src/main.cpp  **** 
  84:src/main.cpp  ****     TCB::semWaitAllThreads->signal();
 548              		.loc 1 84 5 is_stmt 1
 549              		.loc 1 84 35 is_stmt 0
 550 03bc 97070000 		la	a5,_ZN3TCB17semWaitAllThreadsE
 550      83B70700 
 551 03c4 03B50700 		ld	a0,0(a5)
 552 03c8 97000000 		call	_ZN10Ksemaphore6signalEv@plt
 552      E7800000 
 553              	.LVL65:
 554 03d0 6F00C000 		j	.L30
 555              	.L28:
  85:src/main.cpp  ****     while (!(ffinishedA && ffinishedB && ffinishedC)) {
  86:src/main.cpp  ****         thread_dispatch();
 556              		.loc 1 86 9 is_stmt 1
 557              		.loc 1 86 24 is_stmt 0
 558 03d4 97000000 		call	_Z15thread_dispatchv@plt
 558      E7800000 
 559              	.LVL66:
 560              	.L30:
  85:src/main.cpp  ****     while (!(ffinishedA && ffinishedB && ffinishedC)) {
 561              		.loc 1 85 5 is_stmt 1
  85:src/main.cpp  ****     while (!(ffinishedA && ffinishedB && ffinishedC)) {
 562              		.loc 1 85 12
 563 03dc 97070000 		lbu	a5,.LANCHOR0
 563      83C70700 
GAS LISTING /tmp/ccZ1FuF7.s 			page 18


 564 03e4 E38807FE 		beqz	a5,.L28
  85:src/main.cpp  ****     while (!(ffinishedA && ffinishedB && ffinishedC)) {
 565              		.loc 1 85 25 is_stmt 0 discriminator 1
 566 03e8 97070000 		lbu	a5,.LANCHOR0+2
 566      83C70700 
 567 03f0 E38207FE 		beqz	a5,.L28
  85:src/main.cpp  ****     while (!(ffinishedA && ffinishedB && ffinishedC)) {
 568              		.loc 1 85 12 discriminator 2
 569 03f4 97070000 		lbu	a5,.LANCHOR0+1
 569      83C70700 
 570 03fc E38C07FC 		beqz	a5,.L28
  87:src/main.cpp  ****     }
  88:src/main.cpp  **** 
  89:src/main.cpp  **** //    userMain();
  90:src/main.cpp  **** 
  91:src/main.cpp  ****     return 0;
 571              		.loc 1 91 5 is_stmt 1
  92:src/main.cpp  **** 
  93:src/main.cpp  **** }
 572              		.loc 1 93 1 is_stmt 0
 573 0400 13050000 		li	a0,0
 574 0404 83308102 		ld	ra,40(sp)
 575              		.cfi_restore 1
 576 0408 03340102 		ld	s0,32(sp)
 577              		.cfi_restore 8
 578              		.cfi_def_cfa 2, 48
 579 040c 13010103 		addi	sp,sp,48
 580              		.cfi_def_cfa_offset 0
 581 0410 67800000 		jr	ra
 582              		.cfi_endproc
 583              	.LFE51:
 585              		.globl	semA
 586              		.globl	ffinishedC
 587              		.globl	ffinishedB
 588              		.globl	ffinishedA
 589              		.bss
 590              		.align	3
 591              		.set	.LANCHOR0,. + 0
 594              	ffinishedA:
 595 0000 00       		.zero	1
 598              	ffinishedC:
 599 0001 00       		.zero	1
 602              	ffinishedB:
 603 0002 00       		.zero	1
 604 0003 00000000 		.zero	5
 604      00
 607              	semA:
 608 0008 00000000 		.zero	8
 608      00000000 
 609              		.text
 610              	.Letext0:
 611              		.file 3 "src/../h/../h/../lib/hw.h"
 612              		.file 4 "src/../h/../h/MemoryAllocator.hpp"
 613              		.file 5 "src/../h/../h/scheduler.hpp"
 614              		.file 6 "src/../h/../h/list.hpp"
 615              		.file 7 "src/../h/../h/TCB.hpp"
 616              		.file 8 "src/../h/../h/Ksemaphore.hpp"
GAS LISTING /tmp/ccZ1FuF7.s 			page 19


 617              		.file 9 "src/../test/../h/syscall_c.h"
 618              		.file 10 "src/../test/printing.hpp"
GAS LISTING /tmp/ccZ1FuF7.s 			page 20


DEFINED SYMBOLS
                            *ABS*:0000000000000000 main.cpp
     /tmp/ccZ1FuF7.s:23     .text:0000000000000000 _Z11workerBodyAPv
     /tmp/ccZ1FuF7.s:27     .text:0000000000000000 .L0 
     /tmp/ccZ1FuF7.s:29     .text:0000000000000000 .L0 
     /tmp/ccZ1FuF7.s:30     .text:0000000000000004 .L0 
     /tmp/ccZ1FuF7.s:34     .text:0000000000000010 .L0 
     /tmp/ccZ1FuF7.s:35     .text:0000000000000010 .L0 
     /tmp/ccZ1FuF7.s:36     .text:0000000000000010 .L0 
     /tmp/ccZ1FuF7.s:38     .text:0000000000000014 .L0 
     /tmp/ccZ1FuF7.s:42     .text:0000000000000014 .L0 
     /tmp/ccZ1FuF7.s:43     .text:0000000000000014 .L0 
     /tmp/ccZ1FuF7.s:50     .text:000000000000001c .L0 
     /tmp/ccZ1FuF7.s:54     .text:0000000000000020 .L0 
     /tmp/ccZ1FuF7.s:59     .text:000000000000002c .L0 
     /tmp/ccZ1FuF7.s:63     .text:0000000000000030 .L0 
     /tmp/ccZ1FuF7.s:67     .text:000000000000003c .L0 
     /tmp/ccZ1FuF7.s:76     .text:0000000000000044 .L0 
     /tmp/ccZ1FuF7.s:80     .text:0000000000000048 .L0 
     /tmp/ccZ1FuF7.s:84     .text:0000000000000050 .L0 
     /tmp/ccZ1FuF7.s:85     .text:0000000000000050 .L0 
     /tmp/ccZ1FuF7.s:89     .text:0000000000000060 .L0 
     /tmp/ccZ1FuF7.s:90     .text:0000000000000060 .L0 
     /tmp/ccZ1FuF7.s:96     .text:0000000000000074 .L0 
     /tmp/ccZ1FuF7.s:97     .text:0000000000000074 .L0 
     /tmp/ccZ1FuF7.s:101    .text:0000000000000084 .L0 
     /tmp/ccZ1FuF7.s:102    .text:0000000000000084 .L0 
     /tmp/ccZ1FuF7.s:111    .text:00000000000000a8 .L0 
     /tmp/ccZ1FuF7.s:112    .text:00000000000000a8 .L0 
     /tmp/ccZ1FuF7.s:117    .text:00000000000000b8 .L0 
     /tmp/ccZ1FuF7.s:118    .text:00000000000000b8 .L0 
     /tmp/ccZ1FuF7.s:126    .text:00000000000000c0 .L0 
     /tmp/ccZ1FuF7.s:127    .text:00000000000000c0 .L0 
     /tmp/ccZ1FuF7.s:131    .text:00000000000000d0 .L0 
     /tmp/ccZ1FuF7.s:132    .text:00000000000000d0 .L0 
     /tmp/ccZ1FuF7.s:135    .text:00000000000000dc .L0 
     /tmp/ccZ1FuF7.s:136    .text:00000000000000e0 .L0 
     /tmp/ccZ1FuF7.s:138    .text:00000000000000e4 .L0 
     /tmp/ccZ1FuF7.s:139    .text:00000000000000e4 .L0 
     /tmp/ccZ1FuF7.s:141    .text:00000000000000e8 .L0 
     /tmp/ccZ1FuF7.s:144    .text:00000000000000ec .L0 
     /tmp/ccZ1FuF7.s:146    .text:00000000000000f0 .L0 
     /tmp/ccZ1FuF7.s:160    .text:00000000000000f0 _Z11workerBodyCPv
     /tmp/ccZ1FuF7.s:163    .text:00000000000000f0 .L0 
     /tmp/ccZ1FuF7.s:165    .text:00000000000000f0 .L0 
     /tmp/ccZ1FuF7.s:166    .text:00000000000000f4 .L0 
     /tmp/ccZ1FuF7.s:170    .text:0000000000000100 .L0 
     /tmp/ccZ1FuF7.s:171    .text:0000000000000100 .L0 
     /tmp/ccZ1FuF7.s:172    .text:0000000000000100 .L0 
     /tmp/ccZ1FuF7.s:174    .text:0000000000000104 .L0 
     /tmp/ccZ1FuF7.s:178    .text:0000000000000104 .L0 
     /tmp/ccZ1FuF7.s:179    .text:0000000000000104 .L0 
     /tmp/ccZ1FuF7.s:186    .text:000000000000010c .L0 
     /tmp/ccZ1FuF7.s:190    .text:0000000000000110 .L0 
     /tmp/ccZ1FuF7.s:195    .text:000000000000011c .L0 
     /tmp/ccZ1FuF7.s:199    .text:0000000000000120 .L0 
     /tmp/ccZ1FuF7.s:203    .text:000000000000012c .L0 
GAS LISTING /tmp/ccZ1FuF7.s 			page 21


     /tmp/ccZ1FuF7.s:212    .text:0000000000000134 .L0 
     /tmp/ccZ1FuF7.s:216    .text:0000000000000138 .L0 
     /tmp/ccZ1FuF7.s:220    .text:0000000000000140 .L0 
     /tmp/ccZ1FuF7.s:221    .text:0000000000000140 .L0 
     /tmp/ccZ1FuF7.s:225    .text:0000000000000150 .L0 
     /tmp/ccZ1FuF7.s:226    .text:0000000000000150 .L0 
     /tmp/ccZ1FuF7.s:232    .text:0000000000000164 .L0 
     /tmp/ccZ1FuF7.s:233    .text:0000000000000164 .L0 
     /tmp/ccZ1FuF7.s:237    .text:0000000000000174 .L0 
     /tmp/ccZ1FuF7.s:238    .text:0000000000000174 .L0 
     /tmp/ccZ1FuF7.s:247    .text:0000000000000198 .L0 
     /tmp/ccZ1FuF7.s:248    .text:0000000000000198 .L0 
     /tmp/ccZ1FuF7.s:253    .text:00000000000001a8 .L0 
     /tmp/ccZ1FuF7.s:254    .text:00000000000001a8 .L0 
     /tmp/ccZ1FuF7.s:262    .text:00000000000001b0 .L0 
     /tmp/ccZ1FuF7.s:263    .text:00000000000001b0 .L0 
     /tmp/ccZ1FuF7.s:267    .text:00000000000001c0 .L0 
     /tmp/ccZ1FuF7.s:268    .text:00000000000001c0 .L0 
     /tmp/ccZ1FuF7.s:271    .text:00000000000001cc .L0 
     /tmp/ccZ1FuF7.s:272    .text:00000000000001d0 .L0 
     /tmp/ccZ1FuF7.s:274    .text:00000000000001d4 .L0 
     /tmp/ccZ1FuF7.s:275    .text:00000000000001d4 .L0 
     /tmp/ccZ1FuF7.s:277    .text:00000000000001d8 .L0 
     /tmp/ccZ1FuF7.s:280    .text:00000000000001dc .L0 
     /tmp/ccZ1FuF7.s:282    .text:00000000000001e0 .L0 
     /tmp/ccZ1FuF7.s:296    .text:00000000000001e0 _Z11workerBodyBPv
     /tmp/ccZ1FuF7.s:299    .text:00000000000001e0 .L0 
     /tmp/ccZ1FuF7.s:301    .text:00000000000001e0 .L0 
     /tmp/ccZ1FuF7.s:302    .text:00000000000001e4 .L0 
     /tmp/ccZ1FuF7.s:306    .text:00000000000001f0 .L0 
     /tmp/ccZ1FuF7.s:307    .text:00000000000001f0 .L0 
     /tmp/ccZ1FuF7.s:308    .text:00000000000001f0 .L0 
     /tmp/ccZ1FuF7.s:310    .text:00000000000001f4 .L0 
     /tmp/ccZ1FuF7.s:312    .text:00000000000001f4 .L0 
     /tmp/ccZ1FuF7.s:313    .text:00000000000001f4 .L0 
     /tmp/ccZ1FuF7.s:320    .text:0000000000000208 .L0 
     /tmp/ccZ1FuF7.s:321    .text:0000000000000208 .L0 
     /tmp/ccZ1FuF7.s:328    .text:0000000000000210 .L0 
     /tmp/ccZ1FuF7.s:332    .text:0000000000000214 .L0 
     /tmp/ccZ1FuF7.s:337    .text:0000000000000220 .L0 
     /tmp/ccZ1FuF7.s:341    .text:0000000000000224 .L0 
     /tmp/ccZ1FuF7.s:345    .text:0000000000000230 .L0 
     /tmp/ccZ1FuF7.s:354    .text:0000000000000238 .L0 
     /tmp/ccZ1FuF7.s:358    .text:000000000000023c .L0 
     /tmp/ccZ1FuF7.s:362    .text:0000000000000244 .L0 
     /tmp/ccZ1FuF7.s:363    .text:0000000000000244 .L0 
     /tmp/ccZ1FuF7.s:367    .text:0000000000000254 .L0 
     /tmp/ccZ1FuF7.s:368    .text:0000000000000254 .L0 
     /tmp/ccZ1FuF7.s:374    .text:0000000000000268 .L0 
     /tmp/ccZ1FuF7.s:375    .text:0000000000000268 .L0 
     /tmp/ccZ1FuF7.s:379    .text:0000000000000278 .L0 
     /tmp/ccZ1FuF7.s:380    .text:0000000000000278 .L0 
     /tmp/ccZ1FuF7.s:389    .text:000000000000029c .L0 
     /tmp/ccZ1FuF7.s:390    .text:000000000000029c .L0 
     /tmp/ccZ1FuF7.s:395    .text:00000000000002ac .L0 
     /tmp/ccZ1FuF7.s:396    .text:00000000000002ac .L0 
     /tmp/ccZ1FuF7.s:404    .text:00000000000002b4 .L0 
GAS LISTING /tmp/ccZ1FuF7.s 			page 22


     /tmp/ccZ1FuF7.s:405    .text:00000000000002b4 .L0 
     /tmp/ccZ1FuF7.s:409    .text:00000000000002c4 .L0 
     /tmp/ccZ1FuF7.s:410    .text:00000000000002c4 .L0 
     /tmp/ccZ1FuF7.s:413    .text:00000000000002d0 .L0 
     /tmp/ccZ1FuF7.s:414    .text:00000000000002d4 .L0 
     /tmp/ccZ1FuF7.s:416    .text:00000000000002d8 .L0 
     /tmp/ccZ1FuF7.s:417    .text:00000000000002d8 .L0 
     /tmp/ccZ1FuF7.s:419    .text:00000000000002dc .L0 
     /tmp/ccZ1FuF7.s:422    .text:00000000000002e0 .L0 
     /tmp/ccZ1FuF7.s:424    .text:00000000000002e4 .L0 
     /tmp/ccZ1FuF7.s:441    .text:00000000000002e4 main
     /tmp/ccZ1FuF7.s:444    .text:00000000000002e4 .L0 
     /tmp/ccZ1FuF7.s:445    .text:00000000000002e4 .L0 
     /tmp/ccZ1FuF7.s:446    .text:00000000000002e8 .L0 
     /tmp/ccZ1FuF7.s:449    .text:00000000000002f0 .L0 
     /tmp/ccZ1FuF7.s:450    .text:00000000000002f0 .L0 
     /tmp/ccZ1FuF7.s:452    .text:00000000000002f4 .L0 
     /tmp/ccZ1FuF7.s:454    .text:00000000000002f4 .L0 
     /tmp/ccZ1FuF7.s:455    .text:00000000000002f4 .L0 
     /tmp/ccZ1FuF7.s:458    .text:00000000000002fc .L0 
     /tmp/ccZ1FuF7.s:459    .text:00000000000002fc .L0 
     /tmp/ccZ1FuF7.s:464    .text:000000000000030c .L0 
     /tmp/ccZ1FuF7.s:467    .text:0000000000000318 .L0 
     /tmp/ccZ1FuF7.s:468    .text:0000000000000318 .L0 
     /tmp/ccZ1FuF7.s:474    .text:0000000000000320 .L0 
  src/../h/riscv.hpp:137    .text:0000000000000320 .L0 
     /tmp/ccZ1FuF7.s:486    .text:0000000000000324 .L0 
     /tmp/ccZ1FuF7.s:487    .text:0000000000000324 .L0 
     /tmp/ccZ1FuF7.s:488    .text:0000000000000324 .L0 
     /tmp/ccZ1FuF7.s:498    .text:000000000000032c .L0 
     /tmp/ccZ1FuF7.s:499    .text:000000000000032c .L0 
     /tmp/ccZ1FuF7.s:500    .text:000000000000032c .L0 
     /tmp/ccZ1FuF7.s:506    .text:0000000000000344 .L0 
     /tmp/ccZ1FuF7.s:507    .text:0000000000000344 .L0 
     /tmp/ccZ1FuF7.s:511    .text:0000000000000354 .L0 
     /tmp/ccZ1FuF7.s:512    .text:0000000000000354 .L0 
     /tmp/ccZ1FuF7.s:518    .text:000000000000036c .L0 
     /tmp/ccZ1FuF7.s:519    .text:000000000000036c .L0 
     /tmp/ccZ1FuF7.s:523    .text:000000000000037c .L0 
     /tmp/ccZ1FuF7.s:524    .text:000000000000037c .L0 
     /tmp/ccZ1FuF7.s:530    .text:0000000000000394 .L0 
     /tmp/ccZ1FuF7.s:531    .text:0000000000000394 .L0 
     /tmp/ccZ1FuF7.s:536    .text:00000000000003a4 .L0 
     /tmp/ccZ1FuF7.s:537    .text:00000000000003a4 .L0 
     /tmp/ccZ1FuF7.s:538    .text:00000000000003a4 .L0 
     /tmp/ccZ1FuF7.s:541    .text:00000000000003ac .L0 
     /tmp/ccZ1FuF7.s:543    .text:00000000000003b0 .L0 
     /tmp/ccZ1FuF7.s:544    .text:00000000000003b0 .L0 
     /tmp/ccZ1FuF7.s:549    .text:00000000000003bc .L0 
     /tmp/ccZ1FuF7.s:550    .text:00000000000003bc .L0 
     /tmp/ccZ1FuF7.s:557    .text:00000000000003d4 .L0 
     /tmp/ccZ1FuF7.s:558    .text:00000000000003d4 .L0 
     /tmp/ccZ1FuF7.s:562    .text:00000000000003dc .L0 
     /tmp/ccZ1FuF7.s:563    .text:00000000000003dc .L0 
     /tmp/ccZ1FuF7.s:566    .text:00000000000003e8 .L0 
     /tmp/ccZ1FuF7.s:569    .text:00000000000003f4 .L0 
     /tmp/ccZ1FuF7.s:572    .text:0000000000000400 .L0 
GAS LISTING /tmp/ccZ1FuF7.s 			page 23


     /tmp/ccZ1FuF7.s:573    .text:0000000000000400 .L0 
     /tmp/ccZ1FuF7.s:575    .text:0000000000000408 .L0 
     /tmp/ccZ1FuF7.s:577    .text:000000000000040c .L0 
     /tmp/ccZ1FuF7.s:578    .text:000000000000040c .L0 
     /tmp/ccZ1FuF7.s:580    .text:0000000000000410 .L0 
     /tmp/ccZ1FuF7.s:582    .text:0000000000000414 .L0 
     /tmp/ccZ1FuF7.s:607    .bss:0000000000000008 semA
     /tmp/ccZ1FuF7.s:598    .bss:0000000000000001 ffinishedC
     /tmp/ccZ1FuF7.s:602    .bss:0000000000000002 ffinishedB
     /tmp/ccZ1FuF7.s:594    .bss:0000000000000000 ffinishedA
     /tmp/ccZ1FuF7.s:591    .bss:0000000000000000 .LANCHOR0
     /tmp/ccZ1FuF7.s:619    .text:0000000000000414 .L0 
     /tmp/ccZ1FuF7.s:8      .rodata.str1.8:0000000000000000 .LC0
     /tmp/ccZ1FuF7.s:85     .text:0000000000000050 .L0 
     /tmp/ccZ1FuF7.s:11     .rodata.str1.8:0000000000000008 .LC1
     /tmp/ccZ1FuF7.s:97     .text:0000000000000074 .L0 
     /tmp/ccZ1FuF7.s:102    .text:0000000000000084 .L0 
     /tmp/ccZ1FuF7.s:14     .rodata.str1.8:0000000000000010 .LC2
     /tmp/ccZ1FuF7.s:112    .text:00000000000000a8 .L0 
     /tmp/ccZ1FuF7.s:17     .rodata.str1.8:0000000000000018 .LC3
     /tmp/ccZ1FuF7.s:127    .text:00000000000000c0 .L0 
     /tmp/ccZ1FuF7.s:133    .text:00000000000000d4 .L0 
     /tmp/ccZ1FuF7.s:151    .rodata.str1.8:0000000000000028 .LC4
     /tmp/ccZ1FuF7.s:221    .text:0000000000000140 .L0 
     /tmp/ccZ1FuF7.s:233    .text:0000000000000164 .L0 
     /tmp/ccZ1FuF7.s:238    .text:0000000000000174 .L0 
     /tmp/ccZ1FuF7.s:248    .text:0000000000000198 .L0 
     /tmp/ccZ1FuF7.s:154    .rodata.str1.8:0000000000000030 .LC5
     /tmp/ccZ1FuF7.s:263    .text:00000000000001b0 .L0 
     /tmp/ccZ1FuF7.s:269    .text:00000000000001c4 .L0 
     /tmp/ccZ1FuF7.s:313    .text:00000000000001f4 .L0 
     /tmp/ccZ1FuF7.s:287    .rodata.str1.8:0000000000000040 .LC6
     /tmp/ccZ1FuF7.s:363    .text:0000000000000244 .L0 
     /tmp/ccZ1FuF7.s:375    .text:0000000000000268 .L0 
     /tmp/ccZ1FuF7.s:380    .text:0000000000000278 .L0 
     /tmp/ccZ1FuF7.s:390    .text:000000000000029c .L0 
     /tmp/ccZ1FuF7.s:290    .rodata.str1.8:0000000000000048 .LC7
     /tmp/ccZ1FuF7.s:405    .text:00000000000002b4 .L0 
     /tmp/ccZ1FuF7.s:411    .text:00000000000002c8 .L0 
     /tmp/ccZ1FuF7.s:464    .text:000000000000030c .L0 
     /tmp/ccZ1FuF7.s:468    .text:0000000000000318 .L0 
     /tmp/ccZ1FuF7.s:501    .text:0000000000000330 .L0 
     /tmp/ccZ1FuF7.s:429    .rodata.str1.8:0000000000000058 .LC8
     /tmp/ccZ1FuF7.s:507    .text:0000000000000344 .L0 
     /tmp/ccZ1FuF7.s:513    .text:0000000000000358 .L0 
     /tmp/ccZ1FuF7.s:432    .rodata.str1.8:0000000000000070 .LC9
     /tmp/ccZ1FuF7.s:519    .text:000000000000036c .L0 
     /tmp/ccZ1FuF7.s:525    .text:0000000000000380 .L0 
     /tmp/ccZ1FuF7.s:435    .rodata.str1.8:0000000000000088 .LC10
     /tmp/ccZ1FuF7.s:531    .text:0000000000000394 .L0 
     /tmp/ccZ1FuF7.s:550    .text:00000000000003bc .L0 
     /tmp/ccZ1FuF7.s:563    .text:00000000000003dc .L0 
     /tmp/ccZ1FuF7.s:566    .text:00000000000003e8 .L0 
     /tmp/ccZ1FuF7.s:569    .text:00000000000003f4 .L0 
     /tmp/ccZ1FuF7.s:78     .text:0000000000000048 .L7
     /tmp/ccZ1FuF7.s:71     .text:0000000000000044 .L3
     /tmp/ccZ1FuF7.s:46     .text:000000000000001c .L4
GAS LISTING /tmp/ccZ1FuF7.s 			page 24


     /tmp/ccZ1FuF7.s:60     .text:0000000000000030 .L5
     /tmp/ccZ1FuF7.s:121    .text:00000000000000c0 .L2
     /tmp/ccZ1FuF7.s:52     .text:0000000000000020 .L6
     /tmp/ccZ1FuF7.s:214    .text:0000000000000138 .L15
     /tmp/ccZ1FuF7.s:207    .text:0000000000000134 .L11
     /tmp/ccZ1FuF7.s:182    .text:000000000000010c .L12
     /tmp/ccZ1FuF7.s:196    .text:0000000000000120 .L13
     /tmp/ccZ1FuF7.s:257    .text:00000000000001b0 .L10
     /tmp/ccZ1FuF7.s:188    .text:0000000000000110 .L14
     /tmp/ccZ1FuF7.s:356    .text:000000000000023c .L23
     /tmp/ccZ1FuF7.s:349    .text:0000000000000238 .L19
     /tmp/ccZ1FuF7.s:324    .text:0000000000000210 .L20
     /tmp/ccZ1FuF7.s:338    .text:0000000000000224 .L21
     /tmp/ccZ1FuF7.s:399    .text:00000000000002b4 .L18
     /tmp/ccZ1FuF7.s:330    .text:0000000000000214 .L22
     /tmp/ccZ1FuF7.s:547    .text:00000000000003bc .L26
     /tmp/ccZ1FuF7.s:534    .text:00000000000003a4 .L27
     /tmp/ccZ1FuF7.s:560    .text:00000000000003dc .L30
     /tmp/ccZ1FuF7.s:555    .text:00000000000003d4 .L28
     /tmp/ccZ1FuF7.s:2612   .debug_abbrev:0000000000000000 .Ldebug_abbrev0
     /tmp/ccZ1FuF7.s:4239   .debug_str:0000000000000aac .LASF211
     /tmp/ccZ1FuF7.s:3995   .debug_str:000000000000032f .LASF212
     /tmp/ccZ1FuF7.s:4009   .debug_str:000000000000037d .LASF213
     /tmp/ccZ1FuF7.s:5      .text:0000000000000000 .Ltext0
     /tmp/ccZ1FuF7.s:610    .text:0000000000000414 .Letext0
     /tmp/ccZ1FuF7.s:3893   .debug_line:0000000000000000 .Ldebug_line0
     /tmp/ccZ1FuF7.s:4037   .debug_str:0000000000000466 .LASF0
     /tmp/ccZ1FuF7.s:4067   .debug_str:0000000000000577 .LASF1
     /tmp/ccZ1FuF7.s:4179   .debug_str:0000000000000913 .LASF2
     /tmp/ccZ1FuF7.s:4185   .debug_str:0000000000000943 .LASF4
     /tmp/ccZ1FuF7.s:4049   .debug_str:00000000000004c2 .LASF3
     /tmp/ccZ1FuF7.s:3911   .debug_str:0000000000000082 .LASF5
     /tmp/ccZ1FuF7.s:4137   .debug_str:00000000000007c0 .LASF6
     /tmp/ccZ1FuF7.s:4059   .debug_str:0000000000000543 .LASF7
     /tmp/ccZ1FuF7.s:4007   .debug_str:000000000000036d .LASF8
     /tmp/ccZ1FuF7.s:4015   .debug_str:00000000000003c3 .LASF9
     /tmp/ccZ1FuF7.s:3941   .debug_str:0000000000000182 .LASF10
     /tmp/ccZ1FuF7.s:3993   .debug_str:0000000000000320 .LASF11
     /tmp/ccZ1FuF7.s:3957   .debug_str:00000000000001e9 .LASF12
     /tmp/ccZ1FuF7.s:3939   .debug_str:0000000000000172 .LASF13
     /tmp/ccZ1FuF7.s:4221   .debug_str:0000000000000a5d .LASF14
     /tmp/ccZ1FuF7.s:3975   .debug_str:0000000000000257 .LASF15
     /tmp/ccZ1FuF7.s:4209   .debug_str:00000000000009d5 .LASF16
     /tmp/ccZ1FuF7.s:4133   .debug_str:00000000000007a4 .LASF30
     /tmp/ccZ1FuF7.s:3923   .debug_str:00000000000000d8 .LASF66
     /tmp/ccZ1FuF7.s:3943   .debug_str:0000000000000191 .LASF17
     /tmp/ccZ1FuF7.s:3921   .debug_str:00000000000000d3 .LASF18
     /tmp/ccZ1FuF7.s:4065   .debug_str:0000000000000572 .LASF19
     /tmp/ccZ1FuF7.s:3945   .debug_str:0000000000000196 .LASF20
     /tmp/ccZ1FuF7.s:4113   .debug_str:0000000000000708 .LASF21
     /tmp/ccZ1FuF7.s:4205   .debug_str:00000000000009be .LASF22
     /tmp/ccZ1FuF7.s:4027   .debug_str:0000000000000418 .LASF23
     /tmp/ccZ1FuF7.s:4141   .debug_str:00000000000007dc .LASF25
     /tmp/ccZ1FuF7.s:4247   .debug_str:0000000000000b99 .LASF24
     /tmp/ccZ1FuF7.s:3973   .debug_str:0000000000000236 .LASF26
     /tmp/ccZ1FuF7.s:4299   .debug_str:0000000000000d32 .LASF90
     /tmp/ccZ1FuF7.s:4103   .debug_str:00000000000006b1 .LASF92
GAS LISTING /tmp/ccZ1FuF7.s 			page 25


     /tmp/ccZ1FuF7.s:3897   .debug_str:000000000000000f .LASF32
     /tmp/ccZ1FuF7.s:4073   .debug_str:000000000000059b .LASF34
     /tmp/ccZ1FuF7.s:4255   .debug_str:0000000000000bd4 .LASF27
     /tmp/ccZ1FuF7.s:4051   .debug_str:00000000000004d4 .LASF28
     /tmp/ccZ1FuF7.s:4229   .debug_str:0000000000000a83 .LASF29
     /tmp/ccZ1FuF7.s:4005   .debug_str:0000000000000363 .LASF31
     /tmp/ccZ1FuF7.s:4331   .debug_str:0000000000000e5b .LASF33
     /tmp/ccZ1FuF7.s:3927   .debug_str:00000000000000f4 .LASF35
     /tmp/ccZ1FuF7.s:3901   .debug_str:000000000000001b .LASF36
     /tmp/ccZ1FuF7.s:4131   .debug_str:0000000000000791 .LASF37
     /tmp/ccZ1FuF7.s:4203   .debug_str:00000000000009ad .LASF38
     /tmp/ccZ1FuF7.s:3953   .debug_str:00000000000001cd .LASF39
     /tmp/ccZ1FuF7.s:4319   .debug_str:0000000000000dcb .LASF40
     /tmp/ccZ1FuF7.s:4323   .debug_str:0000000000000dfe .LASF214
     /tmp/ccZ1FuF7.s:4029   .debug_str:000000000000041e .LASF215
     /tmp/ccZ1FuF7.s:3971   .debug_str:000000000000022e .LASF41
     /tmp/ccZ1FuF7.s:3937   .debug_str:000000000000015a .LASF43
     /tmp/ccZ1FuF7.s:4001   .debug_str:0000000000000355 .LASF42
     /tmp/ccZ1FuF7.s:4295   .debug_str:0000000000000d15 .LASF44
     /tmp/ccZ1FuF7.s:4307   .debug_str:0000000000000d6e .LASF45
     /tmp/ccZ1FuF7.s:4057   .debug_str:0000000000000526 .LASF46
     /tmp/ccZ1FuF7.s:4287   .debug_str:0000000000000ce1 .LASF47
     /tmp/ccZ1FuF7.s:4267   .debug_str:0000000000000c20 .LASF216
     /tmp/ccZ1FuF7.s:4213   .debug_str:00000000000009fe .LASF48
     /tmp/ccZ1FuF7.s:4105   .debug_str:00000000000006dd .LASF49
     /tmp/ccZ1FuF7.s:4211   .debug_str:00000000000009eb .LASF50
     /tmp/ccZ1FuF7.s:3991   .debug_str:0000000000000309 .LASF58
     /tmp/ccZ1FuF7.s:4181   .debug_str:0000000000000921 .LASF217
     /tmp/ccZ1FuF7.s:4173   .debug_str:00000000000008e1 .LASF218
     /tmp/ccZ1FuF7.s:4151   .debug_str:000000000000083c .LASF51
     /tmp/ccZ1FuF7.s:4115   .debug_str:000000000000070d .LASF52
     /tmp/ccZ1FuF7.s:4063   .debug_str:0000000000000569 .LASF53
     /tmp/ccZ1FuF7.s:3931   .debug_str:0000000000000114 .LASF54
     /tmp/ccZ1FuF7.s:4089   .debug_str:0000000000000630 .LASF55
     /tmp/ccZ1FuF7.s:3979   .debug_str:0000000000000293 .LASF56
     /tmp/ccZ1FuF7.s:4135   .debug_str:00000000000007b4 .LASF57
     /tmp/ccZ1FuF7.s:4289   .debug_str:0000000000000ceb .LASF59
     /tmp/ccZ1FuF7.s:4339   .debug_str:0000000000000e84 .LASF60
     /tmp/ccZ1FuF7.s:4325   .debug_str:0000000000000e12 .LASF61
     /tmp/ccZ1FuF7.s:4199   .debug_str:000000000000098e .LASF62
     /tmp/ccZ1FuF7.s:4099   .debug_str:0000000000000682 .LASF63
     /tmp/ccZ1FuF7.s:4165   .debug_str:00000000000008bc .LASF64
     /tmp/ccZ1FuF7.s:3905   .debug_str:0000000000000034 .LASF65
     /tmp/ccZ1FuF7.s:4225   .debug_str:0000000000000a70 .LASF67
     /tmp/ccZ1FuF7.s:3929   .debug_str:0000000000000106 .LASF105
     /tmp/ccZ1FuF7.s:4077   .debug_str:00000000000005c6 .LASF107
     /tmp/ccZ1FuF7.s:3951   .debug_str:00000000000001c1 .LASF98
     /tmp/ccZ1FuF7.s:4187   .debug_str:000000000000094a .LASF68
     /tmp/ccZ1FuF7.s:3909   .debug_str:0000000000000076 .LASF69
     /tmp/ccZ1FuF7.s:4227   .debug_str:0000000000000a78 .LASF70
     /tmp/ccZ1FuF7.s:4109   .debug_str:00000000000006e9 .LASF71
     /tmp/ccZ1FuF7.s:3925   .debug_str:00000000000000e8 .LASF72
     /tmp/ccZ1FuF7.s:4259   .debug_str:0000000000000be5 .LASF73
     /tmp/ccZ1FuF7.s:4075   .debug_str:00000000000005b9 .LASF74
     /tmp/ccZ1FuF7.s:4273   .debug_str:0000000000000c57 .LASF75
     /tmp/ccZ1FuF7.s:4127   .debug_str:000000000000077b .LASF219
     /tmp/ccZ1FuF7.s:4159   .debug_str:000000000000088d .LASF76
GAS LISTING /tmp/ccZ1FuF7.s 			page 26


     /tmp/ccZ1FuF7.s:4095   .debug_str:000000000000065a .LASF77
     /tmp/ccZ1FuF7.s:4107   .debug_str:00000000000006e2 .LASF78
     /tmp/ccZ1FuF7.s:3919   .debug_str:00000000000000c2 .LASF79
     /tmp/ccZ1FuF7.s:4293   .debug_str:0000000000000d0f .LASF80
     /tmp/ccZ1FuF7.s:4083   .debug_str:00000000000005ff .LASF81
     /tmp/ccZ1FuF7.s:4011   .debug_str:000000000000039b .LASF82
     /tmp/ccZ1FuF7.s:4093   .debug_str:000000000000064d .LASF83
     /tmp/ccZ1FuF7.s:4219   .debug_str:0000000000000a50 .LASF84
     /tmp/ccZ1FuF7.s:4275   .debug_str:0000000000000c70 .LASF85
     /tmp/ccZ1FuF7.s:3977   .debug_str:000000000000026d .LASF86
     /tmp/ccZ1FuF7.s:4215   .debug_str:0000000000000a03 .LASF87
     /tmp/ccZ1FuF7.s:3987   .debug_str:00000000000002ee .LASF88
     /tmp/ccZ1FuF7.s:4249   .debug_str:0000000000000ba3 .LASF89
     /tmp/ccZ1FuF7.s:4071   .debug_str:0000000000000595 .LASF91
     /tmp/ccZ1FuF7.s:4243   .debug_str:0000000000000b7f .LASF93
     /tmp/ccZ1FuF7.s:4327   .debug_str:0000000000000e2d .LASF94
     /tmp/ccZ1FuF7.s:4321   .debug_str:0000000000000ddd .LASF95
     /tmp/ccZ1FuF7.s:4235   .debug_str:0000000000000a97 .LASF96
     /tmp/ccZ1FuF7.s:4023   .debug_str:0000000000000400 .LASF97
     /tmp/ccZ1FuF7.s:4153   .debug_str:000000000000084f .LASF99
     /tmp/ccZ1FuF7.s:3899   .debug_str:0000000000000016 .LASF100
     /tmp/ccZ1FuF7.s:3965   .debug_str:000000000000021a .LASF101
     /tmp/ccZ1FuF7.s:4253   .debug_str:0000000000000bcc .LASF102
     /tmp/ccZ1FuF7.s:4245   .debug_str:0000000000000b8f .LASF103
     /tmp/ccZ1FuF7.s:4207   .debug_str:00000000000009cc .LASF104
     /tmp/ccZ1FuF7.s:3961   .debug_str:0000000000000200 .LASF220
     /tmp/ccZ1FuF7.s:3907   .debug_str:000000000000004e .LASF221
     /tmp/ccZ1FuF7.s:3967   .debug_str:0000000000000220 .LASF106
     /tmp/ccZ1FuF7.s:4055   .debug_str:0000000000000513 .LASF108
     /tmp/ccZ1FuF7.s:4313   .debug_str:0000000000000d9b .LASF109
     /tmp/ccZ1FuF7.s:4269   .debug_str:0000000000000c25 .LASF110
     /tmp/ccZ1FuF7.s:4333   .debug_str:0000000000000e68 .LASF111
     /tmp/ccZ1FuF7.s:4147   .debug_str:000000000000081a .LASF112
     /tmp/ccZ1FuF7.s:4231   .debug_str:0000000000000a88 .LASF113
     /tmp/ccZ1FuF7.s:3895   .debug_str:0000000000000000 .LASF114
     /tmp/ccZ1FuF7.s:4197   .debug_str:000000000000097d .LASF115
     /tmp/ccZ1FuF7.s:3903   .debug_str:000000000000002b .LASF116
     /tmp/ccZ1FuF7.s:4171   .debug_str:00000000000008dc .LASF117
     /tmp/ccZ1FuF7.s:4285   .debug_str:0000000000000cd8 .LASF118
     /tmp/ccZ1FuF7.s:4069   .debug_str:000000000000058a .LASF119
     /tmp/ccZ1FuF7.s:4123   .debug_str:0000000000000746 .LASF120
     /tmp/ccZ1FuF7.s:3969   .debug_str:0000000000000229 .LASF121
     /tmp/ccZ1FuF7.s:3933   .debug_str:0000000000000131 .LASF122
     /tmp/ccZ1FuF7.s:4223   .debug_str:0000000000000a69 .LASF123
     /tmp/ccZ1FuF7.s:3917   .debug_str:00000000000000a9 .LASF124
     /tmp/ccZ1FuF7.s:4025   .debug_str:0000000000000412 .LASF125
     /tmp/ccZ1FuF7.s:4085   .debug_str:000000000000060f .LASF126
     /tmp/ccZ1FuF7.s:4175   .debug_str:00000000000008f8 .LASF127
     /tmp/ccZ1FuF7.s:4041   .debug_str:0000000000000478 .LASF128
     /tmp/ccZ1FuF7.s:4241   .debug_str:0000000000000b70 .LASF129
     /tmp/ccZ1FuF7.s:4157   .debug_str:000000000000086b .LASF130
     /tmp/ccZ1FuF7.s:4035   .debug_str:0000000000000460 .LASF131
     /tmp/ccZ1FuF7.s:4079   .debug_str:00000000000005df .LASF132
     /tmp/ccZ1FuF7.s:4117   .debug_str:0000000000000721 .LASF133
     /tmp/ccZ1FuF7.s:4279   .debug_str:0000000000000c9f .LASF134
     /tmp/ccZ1FuF7.s:4201   .debug_str:0000000000000999 .LASF135
     /tmp/ccZ1FuF7.s:4301   .debug_str:0000000000000d46 .LASF136
GAS LISTING /tmp/ccZ1FuF7.s 			page 27


     /tmp/ccZ1FuF7.s:4119   .debug_str:0000000000000729 .LASF137
     /tmp/ccZ1FuF7.s:4291   .debug_str:0000000000000d09 .LASF138
     /tmp/ccZ1FuF7.s:4277   .debug_str:0000000000000c90 .LASF222
     /tmp/ccZ1FuF7.s:3989   .debug_str:00000000000002fd .LASF139
     /tmp/ccZ1FuF7.s:4237   .debug_str:0000000000000a9f .LASF140
     /tmp/ccZ1FuF7.s:3963   .debug_str:000000000000020e .LASF141
     /tmp/ccZ1FuF7.s:4021   .debug_str:00000000000003f5 .LASF142
     /tmp/ccZ1FuF7.s:4033   .debug_str:0000000000000448 .LASF143
     /tmp/ccZ1FuF7.s:4195   .debug_str:000000000000096f .LASF144
     /tmp/ccZ1FuF7.s:3981   .debug_str:00000000000002af .LASF145
     /tmp/ccZ1FuF7.s:4043   .debug_str:000000000000049b .LASF146
     /tmp/ccZ1FuF7.s:4281   .debug_str:0000000000000cb9 .LASF147
     /tmp/ccZ1FuF7.s:4265   .debug_str:0000000000000c17 .LASF148
     /tmp/ccZ1FuF7.s:4091   .debug_str:0000000000000638 .LASF149
     /tmp/ccZ1FuF7.s:4335   .debug_str:0000000000000e73 .LASF150
     /tmp/ccZ1FuF7.s:4121   .debug_str:0000000000000731 .LASF151
     /tmp/ccZ1FuF7.s:4155   .debug_str:0000000000000864 .LASF152
     /tmp/ccZ1FuF7.s:4161   .debug_str:0000000000000895 .LASF153
     /tmp/ccZ1FuF7.s:3959   .debug_str:00000000000001f9 .LASF154
     /tmp/ccZ1FuF7.s:4061   .debug_str:0000000000000556 .LASF155
     /tmp/ccZ1FuF7.s:4305   .debug_str:0000000000000d66 .LASF156
     /tmp/ccZ1FuF7.s:4217   .debug_str:0000000000000a3c .LASF157
     /tmp/ccZ1FuF7.s:4111   .debug_str:0000000000000700 .LASF158
     /tmp/ccZ1FuF7.s:3997   .debug_str:000000000000033c .LASF159
     /tmp/ccZ1FuF7.s:4081   .debug_str:00000000000005f7 .LASF160
     /tmp/ccZ1FuF7.s:4163   .debug_str:00000000000008a8 .LASF161
     /tmp/ccZ1FuF7.s:4337   .debug_str:0000000000000e7c .LASF162
     /tmp/ccZ1FuF7.s:4047   .debug_str:00000000000004ae .LASF163
     /tmp/ccZ1FuF7.s:4167   .debug_str:00000000000008c5 .LASF164
     /tmp/ccZ1FuF7.s:4191   .debug_str:0000000000000955 .LASF165
     /tmp/ccZ1FuF7.s:4193   .debug_str:0000000000000968 .LASF166
     /tmp/ccZ1FuF7.s:3949   .debug_str:00000000000001ae .LASF167
     /tmp/ccZ1FuF7.s:4189   .debug_str:000000000000094f .LASF168
     /tmp/ccZ1FuF7.s:4031   .debug_str:0000000000000436 .LASF169
     /tmp/ccZ1FuF7.s:4045   .debug_str:00000000000004a8 .LASF170
     /tmp/ccZ1FuF7.s:4019   .debug_str:00000000000003e3 .LASF171
     /tmp/ccZ1FuF7.s:3913   .debug_str:0000000000000089 .LASF172
     /tmp/ccZ1FuF7.s:4183   .debug_str:000000000000092b .LASF173
     /tmp/ccZ1FuF7.s:4177   .debug_str:0000000000000908 .LASF174
     /tmp/ccZ1FuF7.s:4329   .debug_str:0000000000000e43 .LASF175
     /tmp/ccZ1FuF7.s:4233   .debug_str:0000000000000a8d .LASF176
     /tmp/ccZ1FuF7.s:4311   .debug_str:0000000000000d85 .LASF177
     /tmp/ccZ1FuF7.s:3947   .debug_str:00000000000001a4 .LASF178
     /tmp/ccZ1FuF7.s:4097   .debug_str:000000000000066c .LASF179
     /tmp/ccZ1FuF7.s:4297   .debug_str:0000000000000d2d .LASF180
     /tmp/ccZ1FuF7.s:4129   .debug_str:0000000000000780 .LASF181
     /tmp/ccZ1FuF7.s:4261   .debug_str:0000000000000bfc .LASF182
     /tmp/ccZ1FuF7.s:4013   .debug_str:00000000000003a7 .LASF183
     /tmp/ccZ1FuF7.s:4143   .debug_str:00000000000007f9 .LASF184
     /tmp/ccZ1FuF7.s:4053   .debug_str:00000000000004f1 .LASF185
     /tmp/ccZ1FuF7.s:4309   .debug_str:0000000000000d7a .LASF186
     /tmp/ccZ1FuF7.s:4303   .debug_str:0000000000000d5b .LASF187
     /tmp/ccZ1FuF7.s:4317   .debug_str:0000000000000dc0 .LASF188
     /tmp/ccZ1FuF7.s:4039   .debug_str:0000000000000473 .LASF189
     /tmp/ccZ1FuF7.s:3999   .debug_str:0000000000000350 .LASF190
     /tmp/ccZ1FuF7.s:442    .text:00000000000002e4 .LFB51
     /tmp/ccZ1FuF7.s:583    .text:0000000000000414 .LFE51
GAS LISTING /tmp/ccZ1FuF7.s 			page 28


     /tmp/ccZ1FuF7.s:4087   .debug_str:0000000000000628 .LASF191
     /tmp/ccZ1FuF7.s:470    .text:0000000000000320 .LBB24
     /tmp/ccZ1FuF7.s:482    .text:0000000000000324 .LBE24
     /tmp/ccZ1FuF7.s:484    .text:0000000000000324 .LBB26
     /tmp/ccZ1FuF7.s:496    .text:000000000000032c .LBE26
     /tmp/ccZ1FuF7.s:3705   .debug_loc:0000000000000000 .LLST12
     /tmp/ccZ1FuF7.s:456    .text:00000000000002fc .LVL52
     /tmp/ccZ1FuF7.s:462    .text:000000000000030c .LVL53
     /tmp/ccZ1FuF7.s:504    .text:0000000000000344 .LVL57
     /tmp/ccZ1FuF7.s:509    .text:0000000000000354 .LVL58
     /tmp/ccZ1FuF7.s:516    .text:000000000000036c .LVL59
     /tmp/ccZ1FuF7.s:521    .text:000000000000037c .LVL60
     /tmp/ccZ1FuF7.s:528    .text:0000000000000394 .LVL61
     /tmp/ccZ1FuF7.s:533    .text:00000000000003a4 .LVL62
     /tmp/ccZ1FuF7.s:539    .text:00000000000003ac .LVL63
     /tmp/ccZ1FuF7.s:545    .text:00000000000003b8 .LVL64
     /tmp/ccZ1FuF7.s:553    .text:00000000000003d0 .LVL65
     /tmp/ccZ1FuF7.s:559    .text:00000000000003dc .LVL66
     /tmp/ccZ1FuF7.s:4149   .debug_str:0000000000000830 .LASF192
     /tmp/ccZ1FuF7.s:3935   .debug_str:0000000000000148 .LASF193
     /tmp/ccZ1FuF7.s:161    .text:00000000000000f0 .LFB50
     /tmp/ccZ1FuF7.s:283    .text:00000000000001e0 .LFE50
     /tmp/ccZ1FuF7.s:3713   .debug_loc:0000000000000024 .LLST4
     /tmp/ccZ1FuF7.s:177    .text:0000000000000104 .LBB12
     /tmp/ccZ1FuF7.s:260    .text:00000000000001b0 .LBE12
     /tmp/ccZ1FuF7.s:3727   .debug_loc:000000000000005d .LLST5
     /tmp/ccZ1FuF7.s:3873   .debug_ranges:0000000000000000 .Ldebug_ranges0
     /tmp/ccZ1FuF7.s:3739   .debug_loc:0000000000000094 .LLST6
     /tmp/ccZ1FuF7.s:193    .text:000000000000011c .LBB15
     /tmp/ccZ1FuF7.s:208    .text:0000000000000134 .LBE15
     /tmp/ccZ1FuF7.s:3751   .debug_loc:00000000000000cb .LLST7
     /tmp/ccZ1FuF7.s:223    .text:0000000000000150 .LVL25
     /tmp/ccZ1FuF7.s:230    .text:0000000000000164 .LVL26
     /tmp/ccZ1FuF7.s:235    .text:0000000000000174 .LVL27
     /tmp/ccZ1FuF7.s:241    .text:0000000000000188 .LVL28
     /tmp/ccZ1FuF7.s:245    .text:0000000000000198 .LVL29
     /tmp/ccZ1FuF7.s:250    .text:00000000000001a8 .LVL30
     /tmp/ccZ1FuF7.s:265    .text:00000000000001c0 .LVL32
     /tmp/ccZ1FuF7.s:4257   .debug_str:0000000000000bd9 .LASF194
     /tmp/ccZ1FuF7.s:4017   .debug_str:00000000000003d1 .LASF195
     /tmp/ccZ1FuF7.s:297    .text:00000000000001e0 .LFB49
     /tmp/ccZ1FuF7.s:425    .text:00000000000002e4 .LFE49
     /tmp/ccZ1FuF7.s:3762   .debug_loc:0000000000000101 .LLST8
     /tmp/ccZ1FuF7.s:319    .text:0000000000000208 .LBB18
     /tmp/ccZ1FuF7.s:402    .text:00000000000002b4 .LBE18
     /tmp/ccZ1FuF7.s:3776   .debug_loc:000000000000013a .LLST9
     /tmp/ccZ1FuF7.s:3788   .debug_loc:0000000000000171 .LLST10
     /tmp/ccZ1FuF7.s:335    .text:0000000000000220 .LBB21
     /tmp/ccZ1FuF7.s:350    .text:0000000000000238 .LBE21
     /tmp/ccZ1FuF7.s:3800   .debug_loc:00000000000001a8 .LLST11
     /tmp/ccZ1FuF7.s:365    .text:0000000000000254 .LVL43
     /tmp/ccZ1FuF7.s:372    .text:0000000000000268 .LVL44
     /tmp/ccZ1FuF7.s:377    .text:0000000000000278 .LVL45
     /tmp/ccZ1FuF7.s:383    .text:000000000000028c .LVL46
     /tmp/ccZ1FuF7.s:387    .text:000000000000029c .LVL47
     /tmp/ccZ1FuF7.s:392    .text:00000000000002ac .LVL48
     /tmp/ccZ1FuF7.s:317    .text:0000000000000208 .LVL36
GAS LISTING /tmp/ccZ1FuF7.s 			page 29


     /tmp/ccZ1FuF7.s:407    .text:00000000000002c4 .LVL50
     /tmp/ccZ1FuF7.s:4145   .debug_str:000000000000080e .LASF196
     /tmp/ccZ1FuF7.s:4101   .debug_str:000000000000069f .LASF197
     /tmp/ccZ1FuF7.s:24     .text:0000000000000000 .LFB48
     /tmp/ccZ1FuF7.s:147    .text:00000000000000f0 .LFE48
     /tmp/ccZ1FuF7.s:3811   .debug_loc:00000000000001de .LLST0
     /tmp/ccZ1FuF7.s:41     .text:0000000000000014 .LBB6
     /tmp/ccZ1FuF7.s:124    .text:00000000000000c0 .LBE6
     /tmp/ccZ1FuF7.s:3825   .debug_loc:0000000000000217 .LLST1
     /tmp/ccZ1FuF7.s:3837   .debug_loc:000000000000024e .LLST2
     /tmp/ccZ1FuF7.s:57     .text:000000000000002c .LBB9
     /tmp/ccZ1FuF7.s:72     .text:0000000000000044 .LBE9
     /tmp/ccZ1FuF7.s:3849   .debug_loc:0000000000000285 .LLST3
     /tmp/ccZ1FuF7.s:87     .text:0000000000000060 .LVL8
     /tmp/ccZ1FuF7.s:94     .text:0000000000000074 .LVL9
     /tmp/ccZ1FuF7.s:99     .text:0000000000000084 .LVL10
     /tmp/ccZ1FuF7.s:105    .text:0000000000000098 .LVL11
     /tmp/ccZ1FuF7.s:109    .text:00000000000000a8 .LVL12
     /tmp/ccZ1FuF7.s:114    .text:00000000000000b8 .LVL13
     /tmp/ccZ1FuF7.s:129    .text:00000000000000d0 .LVL15
     /tmp/ccZ1FuF7.s:4283   .debug_str:0000000000000cd3 .LASF198
     /tmp/ccZ1FuF7.s:4003   .debug_str:000000000000035d .LASF199
     /tmp/ccZ1FuF7.s:4125   .debug_str:000000000000075a .LASF200
     /tmp/ccZ1FuF7.s:4271   .debug_str:0000000000000c49 .LASF202
     /tmp/ccZ1FuF7.s:3955   .debug_str:00000000000001d6 .LASF201
     /tmp/ccZ1FuF7.s:4315   .debug_str:0000000000000db4 .LASF203
     /tmp/ccZ1FuF7.s:3915   .debug_str:0000000000000094 .LASF204
     /tmp/ccZ1FuF7.s:4169   .debug_str:00000000000008cc .LASF205
     /tmp/ccZ1FuF7.s:3985   .debug_str:00000000000002df .LASF206
     /tmp/ccZ1FuF7.s:4139   .debug_str:00000000000007d3 .LASF207
     /tmp/ccZ1FuF7.s:3983   .debug_str:00000000000002ca .LASF208
     /tmp/ccZ1FuF7.s:4263   .debug_str:0000000000000c0b .LASF209
     /tmp/ccZ1FuF7.s:4251   .debug_str:0000000000000bbf .LASF210
     /tmp/ccZ1FuF7.s:479    .text:0000000000000324 .LVL55
     /tmp/ccZ1FuF7.s:493    .text:000000000000032c .LVL56
     /tmp/ccZ1FuF7.s:164    .text:00000000000000f0 .LVL17
     /tmp/ccZ1FuF7.s:181    .text:000000000000010c .LVL19
     /tmp/ccZ1FuF7.s:176    .text:0000000000000104 .LVL18
     /tmp/ccZ1FuF7.s:278    .text:00000000000001d8 .LVL33
     /tmp/ccZ1FuF7.s:213    .text:0000000000000138 .LVL24
     /tmp/ccZ1FuF7.s:256    .text:00000000000001b0 .LVL31
     /tmp/ccZ1FuF7.s:187    .text:0000000000000110 .LVL20
     /tmp/ccZ1FuF7.s:197    .text:0000000000000120 .LVL21
     /tmp/ccZ1FuF7.s:206    .text:0000000000000134 .LVL23
     /tmp/ccZ1FuF7.s:300    .text:00000000000001e0 .LVL34
     /tmp/ccZ1FuF7.s:315    .text:0000000000000200 .LVL35
     /tmp/ccZ1FuF7.s:323    .text:0000000000000210 .LVL37
     /tmp/ccZ1FuF7.s:420    .text:00000000000002dc .LVL51
     /tmp/ccZ1FuF7.s:355    .text:000000000000023c .LVL42
     /tmp/ccZ1FuF7.s:398    .text:00000000000002b4 .LVL49
     /tmp/ccZ1FuF7.s:329    .text:0000000000000214 .LVL38
     /tmp/ccZ1FuF7.s:339    .text:0000000000000224 .LVL39
     /tmp/ccZ1FuF7.s:348    .text:0000000000000238 .LVL41
     /tmp/ccZ1FuF7.s:28     .text:0000000000000000 .LVL0
     /tmp/ccZ1FuF7.s:45     .text:000000000000001c .LVL2
     /tmp/ccZ1FuF7.s:40     .text:0000000000000014 .LVL1
     /tmp/ccZ1FuF7.s:142    .text:00000000000000e8 .LVL16
GAS LISTING /tmp/ccZ1FuF7.s 			page 30


     /tmp/ccZ1FuF7.s:77     .text:0000000000000048 .LVL7
     /tmp/ccZ1FuF7.s:120    .text:00000000000000c0 .LVL14
     /tmp/ccZ1FuF7.s:51     .text:0000000000000020 .LVL3
     /tmp/ccZ1FuF7.s:61     .text:0000000000000030 .LVL4
     /tmp/ccZ1FuF7.s:70     .text:0000000000000044 .LVL6
     /tmp/ccZ1FuF7.s:620    .debug_info:0000000000000000 .Ldebug_info0
     /tmp/ccZ1FuF7.s:48     .text:000000000000001c .LBB8
     /tmp/ccZ1FuF7.s:73     .text:0000000000000044 .LBE8
     /tmp/ccZ1FuF7.s:116    .text:00000000000000b8 .LBB10
     /tmp/ccZ1FuF7.s:122    .text:00000000000000c0 .LBE10
     /tmp/ccZ1FuF7.s:184    .text:000000000000010c .LBB14
     /tmp/ccZ1FuF7.s:209    .text:0000000000000134 .LBE14
     /tmp/ccZ1FuF7.s:252    .text:00000000000001a8 .LBB16
     /tmp/ccZ1FuF7.s:258    .text:00000000000001b0 .LBE16
     /tmp/ccZ1FuF7.s:326    .text:0000000000000210 .LBB20
     /tmp/ccZ1FuF7.s:351    .text:0000000000000238 .LBE20
     /tmp/ccZ1FuF7.s:394    .text:00000000000002ac .LBB22
     /tmp/ccZ1FuF7.s:400    .text:00000000000002b4 .LBE22

UNDEFINED SYMBOLS
_Z11printStringPKc
_Z8printIntiii
_ZN3TCB7runningE
_Z11getThreadIdP3TCB
_Z4joinP3TCB
_ZN15MemoryAllocator19initMemoryAllocatorEv
_ZN3TCB12createThreadEPFvPvES0_
_ZN5Riscv14supervisorTrapEv
_Z13thread_createPP3TCBPFvPvES2_
_ZN9Scheduler7isEmptyEv
_Z15thread_dispatchv
_ZN3TCB17semWaitAllThreadsE
_ZN10Ksemaphore6signalEv
