GAS LISTING /tmp/ccqFeXGj.s 			page 1


   1              		.file	"main.c"
   2              		.option nopic
   3              		.option norelax
   4              		.text
   5              	.Ltext0:
   6              		.cfi_sections	.debug_frame
   7              		.align	2
   8              		.globl	main
  10              	main:
  11              	.LFB0:
  12              		.file 1 "src/main.c"
   1:src/main.c    **** #include "../lib/console.h"
   2:src/main.c    **** 
   3:src/main.c    **** extern int add(int x, int y);
   4:src/main.c    **** 
   5:src/main.c    **** void main(){
  13              		.loc 1 5 12
  14              		.cfi_startproc
  15 0000 130101FF 		addi	sp,sp,-16
  16              		.cfi_def_cfa_offset 16
  17 0004 23341100 		sd	ra,8(sp)
  18 0008 23308100 		sd	s0,0(sp)
  19              		.cfi_offset 1, -8
  20              		.cfi_offset 8, -16
  21 000c 13040101 		addi	s0,sp,16
  22              		.cfi_def_cfa 8, 0
   6:src/main.c    ****     __putc('O');
  23              		.loc 1 6 5
  24 0010 1305F004 		li	a0,79
  25 0014 97000000 		call	__putc
  25      E7800000 
  26              	.LVL0:
   7:src/main.c    ****     __putc('S');
  27              		.loc 1 7 5
  28 001c 13053005 		li	a0,83
  29 0020 97000000 		call	__putc
  29      E7800000 
  30              	.LVL1:
   8:src/main.c    ****     __putc('1');
  31              		.loc 1 8 5
  32 0028 13051003 		li	a0,49
  33 002c 97000000 		call	__putc
  33      E7800000 
  34              	.LVL2:
   9:src/main.c    ****     __putc('\n');
  35              		.loc 1 9 5
  36 0034 1305A000 		li	a0,10
  37 0038 97000000 		call	__putc
  37      E7800000 
  38              	.LVL3:
  10:src/main.c    ****     __putc('\n');
  39              		.loc 1 10 5
  40 0040 1305A000 		li	a0,10
  41 0044 97000000 		call	__putc
  41      E7800000 
  42              	.LVL4:
  11:src/main.c    **** 
GAS LISTING /tmp/ccqFeXGj.s 			page 2


  12:src/main.c    ****     int result = add(1, 2);
  43              		.loc 1 12 5
  44              		.loc 1 12 18 is_stmt 0
  45 004c 93052000 		li	a1,2
  46 0050 13051000 		li	a0,1
  47 0054 97000000 		call	add
  47      E7800000 
  48              	.LVL5:
  13:src/main.c    ****     __putc('0'+result);
  49              		.loc 1 13 5 is_stmt 1
  50 005c 1B050503 		addiw	a0,a0,48
  51              	.LVL6:
  52 0060 1375F50F 		andi	a0,a0,0xff
  53              	.LVL7:
  54 0064 97000000 		call	__putc
  54      E7800000 
  55              	.LVL8:
  56              	.L2:
  14:src/main.c    **** 
  15:src/main.c    **** //    printf("Result: %x", result);
  16:src/main.c    **** 
  17:src/main.c    **** 
  18:src/main.c    ****     while(1){
  57              		.loc 1 18 5 discriminator 1
  58              	.LBB2:
  19:src/main.c    ****         char character = __getc();
  59              		.loc 1 19 9 discriminator 1
  60              		.loc 1 19 26 is_stmt 0 discriminator 1
  61 006c 97000000 		call	__getc
  61      E7800000 
  62              	.LVL9:
  20:src/main.c    ****         __putc(character + 30);
  63              		.loc 1 20 9 is_stmt 1 discriminator 1
  64 0074 1B05E501 		addiw	a0,a0,30
  65              	.LVL10:
  66 0078 1375F50F 		andi	a0,a0,0xff
  67 007c 97000000 		call	__putc
  67      E7800000 
  68              	.LVL11:
  69              	.LBE2:
  18:src/main.c    ****         char character = __getc();
  70              		.loc 1 18 10 discriminator 1
  71 0084 6FF09FFE 		j	.L2
  72              		.cfi_endproc
  73              	.LFE0:
  75              	.Letext0:
  76              		.file 2 "src/../lib/console.h"
GAS LISTING /tmp/ccqFeXGj.s 			page 3


DEFINED SYMBOLS
                            *ABS*:0000000000000000 main.c
     /tmp/ccqFeXGj.s:10     .text:0000000000000000 main
     /tmp/ccqFeXGj.s:14     .text:0000000000000000 .L0 
     /tmp/ccqFeXGj.s:15     .text:0000000000000000 .L0 
     /tmp/ccqFeXGj.s:16     .text:0000000000000004 .L0 
     /tmp/ccqFeXGj.s:19     .text:000000000000000c .L0 
     /tmp/ccqFeXGj.s:20     .text:000000000000000c .L0 
     /tmp/ccqFeXGj.s:22     .text:0000000000000010 .L0 
     /tmp/ccqFeXGj.s:24     .text:0000000000000010 .L0 
     /tmp/ccqFeXGj.s:28     .text:000000000000001c .L0 
     /tmp/ccqFeXGj.s:32     .text:0000000000000028 .L0 
     /tmp/ccqFeXGj.s:36     .text:0000000000000034 .L0 
     /tmp/ccqFeXGj.s:40     .text:0000000000000040 .L0 
     /tmp/ccqFeXGj.s:44     .text:000000000000004c .L0 
     /tmp/ccqFeXGj.s:45     .text:000000000000004c .L0 
     /tmp/ccqFeXGj.s:50     .text:000000000000005c .L0 
     /tmp/ccqFeXGj.s:59     .text:000000000000006c .L0 
     /tmp/ccqFeXGj.s:60     .text:000000000000006c .L0 
     /tmp/ccqFeXGj.s:61     .text:000000000000006c .L0 
     /tmp/ccqFeXGj.s:64     .text:0000000000000074 .L0 
     /tmp/ccqFeXGj.s:71     .text:0000000000000084 .L0 
     /tmp/ccqFeXGj.s:72     .text:0000000000000088 .L0 
     /tmp/ccqFeXGj.s:77     .text:0000000000000088 .L0 
                     .debug_frame:0000000000000000 .L0 
     /tmp/ccqFeXGj.s:56     .text:000000000000006c .L2
     /tmp/ccqFeXGj.s:226    .debug_abbrev:0000000000000000 .Ldebug_abbrev0
     /tmp/ccqFeXGj.s:442    .debug_str:0000000000000052 .LASF5
     /tmp/ccqFeXGj.s:436    .debug_str:0000000000000024 .LASF6
     /tmp/ccqFeXGj.s:440    .debug_str:0000000000000034 .LASF7
     /tmp/ccqFeXGj.s:5      .text:0000000000000000 .Ltext0
     /tmp/ccqFeXGj.s:75     .text:0000000000000088 .Letext0
     /tmp/ccqFeXGj.s:424    .debug_line:0000000000000000 .Ldebug_line0
     /tmp/ccqFeXGj.s:438    .debug_str:000000000000002f .LASF8
     /tmp/ccqFeXGj.s:11     .text:0000000000000000 .LFB0
     /tmp/ccqFeXGj.s:73     .text:0000000000000088 .LFE0
     /tmp/ccqFeXGj.s:432    .debug_str:0000000000000016 .LASF0
     /tmp/ccqFeXGj.s:391    .debug_loc:0000000000000000 .LLST0
     /tmp/ccqFeXGj.s:58     .text:000000000000006c .LBB2
     /tmp/ccqFeXGj.s:69     .text:0000000000000084 .LBE2
     /tmp/ccqFeXGj.s:426    .debug_str:0000000000000000 .LASF1
     /tmp/ccqFeXGj.s:404    .debug_loc:0000000000000038 .LLST1
     /tmp/ccqFeXGj.s:62     .text:0000000000000074 .LVL9
     /tmp/ccqFeXGj.s:68     .text:0000000000000084 .LVL11
     /tmp/ccqFeXGj.s:26     .text:000000000000001c .LVL0
     /tmp/ccqFeXGj.s:30     .text:0000000000000028 .LVL1
     /tmp/ccqFeXGj.s:34     .text:0000000000000034 .LVL2
     /tmp/ccqFeXGj.s:38     .text:0000000000000040 .LVL3
     /tmp/ccqFeXGj.s:42     .text:000000000000004c .LVL4
     /tmp/ccqFeXGj.s:48     .text:000000000000005c .LVL5
     /tmp/ccqFeXGj.s:55     .text:000000000000006c .LVL8
     /tmp/ccqFeXGj.s:430    .debug_str:0000000000000011 .LASF2
     /tmp/ccqFeXGj.s:428    .debug_str:000000000000000a .LASF3
     /tmp/ccqFeXGj.s:434    .debug_str:000000000000001d .LASF4
     /tmp/ccqFeXGj.s:51     .text:0000000000000060 .LVL6
     /tmp/ccqFeXGj.s:53     .text:0000000000000064 .LVL7
     /tmp/ccqFeXGj.s:65     .text:0000000000000078 .LVL10
GAS LISTING /tmp/ccqFeXGj.s 			page 4


     /tmp/ccqFeXGj.s:78     .debug_info:0000000000000000 .Ldebug_info0

UNDEFINED SYMBOLS
__putc
add
__getc
