GAS LISTING /tmp/ccStDA7r.s 			page 1


   1              		.file	"scheduler.cpp"
   2              		.option pic
   3              		.option norelax
   4              		.text
   5              	.Ltext0:
   6              		.align	2
   8              	_Z41__static_initialization_and_destruction_0ii:
   9              	.LFB38:
  10              		.file 1 "src/scheduler.cpp"
   1:src/scheduler.cpp **** //
   2:src/scheduler.cpp **** // Created by os on 8/27/22.
   3:src/scheduler.cpp **** //
   4:src/scheduler.cpp **** 
   5:src/scheduler.cpp **** #include "../h/scheduler.hpp"
   6:src/scheduler.cpp **** 
   7:src/scheduler.cpp **** List<TCB> Scheduler::readyThreadQueue;
   8:src/scheduler.cpp **** 
   9:src/scheduler.cpp **** TCB *Scheduler::get()
  10:src/scheduler.cpp **** {
  11:src/scheduler.cpp ****     return readyThreadQueue.removeFirst();
  12:src/scheduler.cpp **** }
  13:src/scheduler.cpp **** 
  14:src/scheduler.cpp **** void Scheduler::put(TCB *ccb)
  15:src/scheduler.cpp **** {
  16:src/scheduler.cpp ****     readyThreadQueue.addLast(ccb);
  17:src/scheduler.cpp **** }
  18:src/scheduler.cpp **** 
  19:src/scheduler.cpp **** Scheduler *Scheduler::getInstance() {
  20:src/scheduler.cpp ****     return this->instance;
  21:src/scheduler.cpp **** }
  11              		.loc 1 21 1
  12              		.cfi_startproc
  13              	.LVL0:
  14 0000 130101FF 		addi	sp,sp,-16
  15              		.cfi_def_cfa_offset 16
  16 0004 23348100 		sd	s0,8(sp)
  17              		.cfi_offset 8, -8
  18 0008 13040101 		addi	s0,sp,16
  19              		.cfi_def_cfa 8, 0
  20              		.loc 1 21 1 is_stmt 0
  21 000c 93071000 		li	a5,1
  22 0010 6308F500 		beq	a0,a5,.L4
  23              	.L1:
  24 0014 03348100 		ld	s0,8(sp)
  25              		.cfi_remember_state
  26              		.cfi_restore 8
  27              		.cfi_def_cfa 2, 16
  28 0018 13010101 		addi	sp,sp,16
  29              		.cfi_def_cfa_offset 0
  30 001c 67800000 		jr	ra
  31              	.L4:
  32              		.cfi_restore_state
  33              		.loc 1 21 1 discriminator 1
  34 0020 B7070100 		li	a5,65536
  35 0024 9387F7FF 		addi	a5,a5,-1
  36 0028 E396F5FE 		bne	a1,a5,.L1
  37              	.LVL1:
GAS LISTING /tmp/ccStDA7r.s 			page 2


  38              	.LBB12:
  39              	.LBB13:
  40              	.LBB14:
  41              		.file 2 "src/../h/list.hpp"
   1:src/../h/list.hpp **** //
   2:src/../h/list.hpp **** // Created by os on 8/27/22.
   3:src/../h/list.hpp **** //
   4:src/../h/list.hpp **** 
   5:src/../h/list.hpp **** #ifndef PROJECT_BASE_LIST_HPP
   6:src/../h/list.hpp **** #define PROJECT_BASE_LIST_HPP
   7:src/../h/list.hpp **** //#include "syscall_cpp.hpp"
   8:src/../h/list.hpp **** 
   9:src/../h/list.hpp **** #include "../lib/hw.h"
  10:src/../h/list.hpp **** #include "MemoryAllocator.hpp"
  11:src/../h/list.hpp **** template<typename T>
  12:src/../h/list.hpp **** class List
  13:src/../h/list.hpp **** {
  14:src/../h/list.hpp **** private:
  15:src/../h/list.hpp ****     struct Elem
  16:src/../h/list.hpp ****     {
  17:src/../h/list.hpp ****         T *data;
  18:src/../h/list.hpp ****         Elem *next;
  19:src/../h/list.hpp **** 
  20:src/../h/list.hpp ****         void* operator new(size_t size){
  21:src/../h/list.hpp ****             MemoryAllocator* mem=MemoryAllocator::getInstance();
  22:src/../h/list.hpp ****             return mem->malloc(size);
  23:src/../h/list.hpp ****         }
  24:src/../h/list.hpp ****         void* operator new[](size_t size){
  25:src/../h/list.hpp ****             MemoryAllocator* mem=MemoryAllocator::getInstance();
  26:src/../h/list.hpp ****             return mem->malloc(size);
  27:src/../h/list.hpp ****         }
  28:src/../h/list.hpp **** 
  29:src/../h/list.hpp ****         void operator delete(void *p)
  30:src/../h/list.hpp ****         {
  31:src/../h/list.hpp ****             MemoryAllocator* mem=MemoryAllocator::getInstance();
  32:src/../h/list.hpp ****             mem->free(p);
  33:src/../h/list.hpp ****         }
  34:src/../h/list.hpp **** 
  35:src/../h/list.hpp ****         void operator delete[](void *p)
  36:src/../h/list.hpp ****         {
  37:src/../h/list.hpp ****             MemoryAllocator* mem=MemoryAllocator::getInstance();
  38:src/../h/list.hpp ****             mem->free(p);
  39:src/../h/list.hpp ****         }
  40:src/../h/list.hpp **** 
  41:src/../h/list.hpp ****         Elem(T *data, Elem *next) : data(data), next(next) {}
  42:src/../h/list.hpp **** 
  43:src/../h/list.hpp ****     };
  44:src/../h/list.hpp **** 
  45:src/../h/list.hpp ****     Elem *head, *tail;
  46:src/../h/list.hpp **** 
  47:src/../h/list.hpp ****     void* operator new(size_t size){
  48:src/../h/list.hpp ****         MemoryAllocator* mem=MemoryAllocator::getInstance();
  49:src/../h/list.hpp ****         return mem->malloc(size);
  50:src/../h/list.hpp ****     }
  51:src/../h/list.hpp ****     void* operator new[](size_t size){
  52:src/../h/list.hpp ****         MemoryAllocator* mem=MemoryAllocator::getInstance();
  53:src/../h/list.hpp ****         return mem->malloc(size);
GAS LISTING /tmp/ccStDA7r.s 			page 3


  54:src/../h/list.hpp ****     }
  55:src/../h/list.hpp **** 
  56:src/../h/list.hpp ****     void operator delete(void *p)
  57:src/../h/list.hpp ****     {
  58:src/../h/list.hpp ****         MemoryAllocator* mem=MemoryAllocator::getInstance();
  59:src/../h/list.hpp ****         mem->free(p);
  60:src/../h/list.hpp ****     }
  61:src/../h/list.hpp **** 
  62:src/../h/list.hpp ****     void operator delete[](void *p)
  63:src/../h/list.hpp ****     {
  64:src/../h/list.hpp ****         MemoryAllocator* mem=MemoryAllocator::getInstance();
  65:src/../h/list.hpp ****         mem->free(p);
  66:src/../h/list.hpp ****     }
  67:src/../h/list.hpp **** 
  68:src/../h/list.hpp **** public:
  69:src/../h/list.hpp ****     List() : head(0), tail(0) {}
  42              		.loc 2 69 29
  43 002c 97070000 		lla	a5,.LANCHOR0
  43      93870700 
  44 0034 23B00700 		sd	zero,0(a5)
  45 0038 23B40700 		sd	zero,8(a5)
  46              	.LVL2:
  47              	.LBE14:
  48              	.LBE13:
  49              	.LBE12:
  50              		.loc 1 21 1
  51 003c 6FF09FFD 		j	.L1
  52              		.cfi_endproc
  53              	.LFE38:
  55              		.align	2
  56              		.globl	_ZN9Scheduler3getEv
  58              	_ZN9Scheduler3getEv:
  59              	.LFB25:
  10:src/scheduler.cpp ****     return readyThreadQueue.removeFirst();
  60              		.loc 1 10 1 is_stmt 1
  61              		.cfi_startproc
  62 0040 130101FE 		addi	sp,sp,-32
  63              		.cfi_def_cfa_offset 32
  64 0044 233C1100 		sd	ra,24(sp)
  65 0048 23388100 		sd	s0,16(sp)
  66 004c 23349100 		sd	s1,8(sp)
  67 0050 23302101 		sd	s2,0(sp)
  68              		.cfi_offset 1, -8
  69              		.cfi_offset 8, -16
  70              		.cfi_offset 9, -24
  71              		.cfi_offset 18, -32
  72 0054 13040102 		addi	s0,sp,32
  73              		.cfi_def_cfa 8, 0
  11:src/scheduler.cpp **** }
  74              		.loc 1 11 5
  75              	.LVL3:
  76              	.LBB19:
  77              	.LBB20:
  70:src/../h/list.hpp **** 
  71:src/../h/list.hpp ****     List(const List<T> &) = delete;
  72:src/../h/list.hpp **** 
  73:src/../h/list.hpp ****     List<T> &operator=(const List<T> &) = delete;
GAS LISTING /tmp/ccStDA7r.s 			page 4


  74:src/../h/list.hpp **** 
  75:src/../h/list.hpp ****     void addFirst(T *data)
  76:src/../h/list.hpp ****     {
  77:src/../h/list.hpp ****         Elem *elem = new Elem(data, head);
  78:src/../h/list.hpp ****         head = elem;
  79:src/../h/list.hpp ****         if (!tail) { tail = head; }
  80:src/../h/list.hpp ****     }
  81:src/../h/list.hpp **** 
  82:src/../h/list.hpp ****     void addLast(T *data)
  83:src/../h/list.hpp ****     {
  84:src/../h/list.hpp ****         Elem *elem = new Elem(data, 0);
  85:src/../h/list.hpp ****         if (tail)
  86:src/../h/list.hpp ****         {
  87:src/../h/list.hpp ****             tail->next = elem;
  88:src/../h/list.hpp ****             tail = elem;
  89:src/../h/list.hpp ****         } else
  90:src/../h/list.hpp ****         {
  91:src/../h/list.hpp ****             head = tail = elem;
  92:src/../h/list.hpp ****         }
  93:src/../h/list.hpp ****     }
  94:src/../h/list.hpp **** 
  95:src/../h/list.hpp ****     T *removeFirst()
  96:src/../h/list.hpp ****     {
  97:src/../h/list.hpp ****         if (!head) { return 0; }
  78              		.loc 2 97 14 is_stmt 0
  79 0058 97040000 		ld	s1,.LANCHOR0
  79      83B40400 
  80              		.loc 2 97 9
  81 0060 638A0404 		beqz	s1,.L8
  82              	.LVL4:
  98:src/../h/list.hpp **** 
  99:src/../h/list.hpp ****         Elem *elem = head;
 100:src/../h/list.hpp ****         head = head->next;
  83              		.loc 2 100 22
  84 0064 83B78400 		ld	a5,8(s1)
  85              		.loc 2 100 9
  86 0068 17070000 		sd	a5,.LANCHOR0,a4
  86      2330F700 
 101:src/../h/list.hpp ****         if (!head) { tail = 0; }
  87              		.loc 2 101 9
  88 0070 638C0702 		beqz	a5,.L10
  89              	.L7:
 102:src/../h/list.hpp **** 
 103:src/../h/list.hpp ****         T *ret = elem->data;
  90              		.loc 2 103 12
  91 0074 03B90400 		ld	s2,0(s1)
  92              	.LVL5:
  93              	.LBB21:
  94              	.LBB22:
  31:src/../h/list.hpp ****             mem->free(p);
  95              		.loc 2 31 62
  96 0078 97000000 		call	_ZN15MemoryAllocator11getInstanceEv@plt
  96      E7800000 
  97              	.LVL6:
  32:src/../h/list.hpp ****         }
  98              		.loc 2 32 22
  99 0080 93850400 		mv	a1,s1
GAS LISTING /tmp/ccStDA7r.s 			page 5


 100 0084 97000000 		call	_ZN15MemoryAllocator4freeEPv@plt
 100      E7800000 
 101              	.LVL7:
 102              	.L5:
 103              	.LBE22:
 104              	.LBE21:
 105              	.LBE20:
 106              	.LBE19:
  12:src/scheduler.cpp **** 
 107              		.loc 1 12 1
 108 008c 13050900 		mv	a0,s2
 109 0090 83308101 		ld	ra,24(sp)
 110              		.cfi_remember_state
 111              		.cfi_restore 1
 112 0094 03340101 		ld	s0,16(sp)
 113              		.cfi_restore 8
 114              		.cfi_def_cfa 2, 32
 115 0098 83348100 		ld	s1,8(sp)
 116              		.cfi_restore 9
 117 009c 03390100 		ld	s2,0(sp)
 118              		.cfi_restore 18
 119 00a0 13010102 		addi	sp,sp,32
 120              		.cfi_def_cfa_offset 0
 121 00a4 67800000 		jr	ra
 122              	.LVL8:
 123              	.L10:
 124              		.cfi_restore_state
 125              	.LBB24:
 126              	.LBB23:
 101:src/../h/list.hpp **** 
 127              		.loc 2 101 22
 128 00a8 97070000 		sd	zero,.LANCHOR0+8,a5
 128      23B00700 
 129 00b0 6FF05FFC 		j	.L7
 130              	.LVL9:
 131              	.L8:
  97:src/../h/list.hpp **** 
 132              		.loc 2 97 29
 133 00b4 13890400 		mv	s2,s1
 134              	.LVL10:
 135              	.LBE23:
 136              	.LBE24:
  11:src/scheduler.cpp **** }
 137              		.loc 1 11 41
 138 00b8 6FF05FFD 		j	.L5
 139              		.cfi_endproc
 140              	.LFE25:
 142              		.align	2
 143              		.globl	_ZN9Scheduler3putEP3TCB
 145              	_ZN9Scheduler3putEP3TCB:
 146              	.LFB26:
  15:src/scheduler.cpp ****     readyThreadQueue.addLast(ccb);
 147              		.loc 1 15 1 is_stmt 1
 148              		.cfi_startproc
 149              	.LVL11:
 150 00bc 130101FE 		addi	sp,sp,-32
 151              		.cfi_def_cfa_offset 32
GAS LISTING /tmp/ccStDA7r.s 			page 6


 152 00c0 233C1100 		sd	ra,24(sp)
 153 00c4 23388100 		sd	s0,16(sp)
 154 00c8 23349100 		sd	s1,8(sp)
 155              		.cfi_offset 1, -8
 156              		.cfi_offset 8, -16
 157              		.cfi_offset 9, -24
 158 00cc 13040102 		addi	s0,sp,32
 159              		.cfi_def_cfa 8, 0
 160 00d0 93040500 		mv	s1,a0
  16:src/scheduler.cpp **** }
 161              		.loc 1 16 5
 162              	.LVL12:
 163              	.LBB32:
 164              	.LBB33:
 165              	.LBB34:
 166              	.LBB35:
  21:src/../h/list.hpp ****             return mem->malloc(size);
 167              		.loc 2 21 62 is_stmt 0
 168 00d4 97000000 		call	_ZN15MemoryAllocator11getInstanceEv@plt
 168      E7800000 
 169              	.LVL13:
  22:src/../h/list.hpp ****         }
 170              		.loc 2 22 31
 171 00dc 93050001 		li	a1,16
 172 00e0 97000000 		call	_ZN15MemoryAllocator6mallocEm@plt
 172      E7800000 
 173              	.LVL14:
 174              	.LBE35:
 175              	.LBE34:
 176              	.LBB36:
 177              	.LBB37:
  41:src/../h/list.hpp **** 
 178              		.loc 2 41 58
 179 00e8 23309500 		sd	s1,0(a0)
 180 00ec 23340500 		sd	zero,8(a0)
 181              	.LVL15:
 182              	.LBE37:
 183              	.LBE36:
  85:src/../h/list.hpp ****         {
 184              		.loc 2 85 13
 185 00f0 97070000 		ld	a5,.LANCHOR0+8
 185      83B70700 
  85:src/../h/list.hpp ****         {
 186              		.loc 2 85 9
 187 00f8 63820702 		beqz	a5,.L12
  87:src/../h/list.hpp ****             tail = elem;
 188              		.loc 2 87 13
 189 00fc 23B4A700 		sd	a0,8(a5)
  88:src/../h/list.hpp ****         } else
 190              		.loc 2 88 13
 191 0100 97070000 		sd	a0,.LANCHOR0+8,a5
 191      23B0A700 
 192              	.LVL16:
 193              	.L11:
 194              	.LBE33:
 195              	.LBE32:
  17:src/scheduler.cpp **** 
GAS LISTING /tmp/ccStDA7r.s 			page 7


 196              		.loc 1 17 1
 197 0108 83308101 		ld	ra,24(sp)
 198              		.cfi_remember_state
 199              		.cfi_restore 1
 200 010c 03340101 		ld	s0,16(sp)
 201              		.cfi_restore 8
 202              		.cfi_def_cfa 2, 32
 203 0110 83348100 		ld	s1,8(sp)
 204              		.cfi_restore 9
 205              	.LVL17:
 206 0114 13010102 		addi	sp,sp,32
 207              		.cfi_def_cfa_offset 0
 208 0118 67800000 		jr	ra
 209              	.LVL18:
 210              	.L12:
 211              		.cfi_restore_state
 212              	.LBB39:
 213              	.LBB38:
  91:src/../h/list.hpp ****         }
 214              		.loc 2 91 13
 215 011c 97070000 		lla	a5,.LANCHOR0
 215      93870700 
 216 0124 23B4A700 		sd	a0,8(a5)
 217 0128 23B0A700 		sd	a0,0(a5)
 218              	.LVL19:
 219              	.LBE38:
 220              	.LBE39:
  17:src/scheduler.cpp **** 
 221              		.loc 1 17 1
 222 012c 6FF0DFFD 		j	.L11
 223              		.cfi_endproc
 224              	.LFE26:
 226              		.align	2
 227              		.globl	_ZN9Scheduler11getInstanceEv
 229              	_ZN9Scheduler11getInstanceEv:
 230              	.LFB27:
  19:src/scheduler.cpp ****     return this->instance;
 231              		.loc 1 19 37 is_stmt 1
 232              		.cfi_startproc
 233              	.LVL20:
 234 0130 130101FF 		addi	sp,sp,-16
 235              		.cfi_def_cfa_offset 16
 236 0134 23348100 		sd	s0,8(sp)
 237              		.cfi_offset 8, -8
 238 0138 13040101 		addi	s0,sp,16
 239              		.cfi_def_cfa 8, 0
  20:src/scheduler.cpp **** }
 240              		.loc 1 20 5
 241              		.loc 1 21 1 is_stmt 0
 242 013c 03350500 		ld	a0,0(a0)
 243              	.LVL21:
 244 0140 03348100 		ld	s0,8(sp)
 245              		.cfi_restore 8
 246              		.cfi_def_cfa 2, 16
 247 0144 13010101 		addi	sp,sp,16
 248              		.cfi_def_cfa_offset 0
 249 0148 67800000 		jr	ra
GAS LISTING /tmp/ccStDA7r.s 			page 8


 250              		.cfi_endproc
 251              	.LFE27:
 253              		.align	2
 255              	_GLOBAL__sub_I__ZN9Scheduler16readyThreadQueueE:
 256              	.LFB39:
 257              		.loc 1 21 1 is_stmt 1
 258              		.cfi_startproc
 259 014c 130101FF 		addi	sp,sp,-16
 260              		.cfi_def_cfa_offset 16
 261 0150 23341100 		sd	ra,8(sp)
 262 0154 23308100 		sd	s0,0(sp)
 263              		.cfi_offset 1, -8
 264              		.cfi_offset 8, -16
 265 0158 13040101 		addi	s0,sp,16
 266              		.cfi_def_cfa 8, 0
 267              		.loc 1 21 1 is_stmt 0
 268 015c B7050100 		li	a1,65536
 269 0160 9385F5FF 		addi	a1,a1,-1
 270 0164 13051000 		li	a0,1
 271 0168 97000000 		call	_Z41__static_initialization_and_destruction_0ii
 271      E7800000 
 272              	.LVL22:
 273 0170 83308100 		ld	ra,8(sp)
 274              		.cfi_restore 1
 275 0174 03340100 		ld	s0,0(sp)
 276              		.cfi_restore 8
 277              		.cfi_def_cfa 2, 16
 278 0178 13010101 		addi	sp,sp,16
 279              		.cfi_def_cfa_offset 0
 280 017c 67800000 		jr	ra
 281              		.cfi_endproc
 282              	.LFE39:
 284              		.section	.init_array,"aw"
 285              		.align	3
 286 0000 00000000 		.dword	_GLOBAL__sub_I__ZN9Scheduler16readyThreadQueueE
 286      00000000 
 287              		.globl	_ZN9Scheduler16readyThreadQueueE
 288              		.bss
 289              		.align	3
 290              		.set	.LANCHOR0,. + 0
 293              	_ZN9Scheduler16readyThreadQueueE:
 294 0000 00000000 		.zero	16
 294      00000000 
 294      00000000 
 294      00000000 
 295              		.text
 296              	.Letext0:
 297              		.file 3 "src/../h/../lib/hw.h"
 298              		.file 4 "src/../h/MemoryAllocator.hpp"
 299              		.file 5 "src/../h/scheduler.hpp"
GAS LISTING /tmp/ccStDA7r.s 			page 9


DEFINED SYMBOLS
                            *ABS*:0000000000000000 scheduler.cpp
     /tmp/ccStDA7r.s:8      .text:0000000000000000 _Z41__static_initialization_and_destruction_0ii
     /tmp/ccStDA7r.s:12     .text:0000000000000000 .L0 
     /tmp/ccStDA7r.s:14     .text:0000000000000000 .L0 
     /tmp/ccStDA7r.s:15     .text:0000000000000004 .L0 
     /tmp/ccStDA7r.s:17     .text:0000000000000008 .L0 
     /tmp/ccStDA7r.s:19     .text:000000000000000c .L0 
     /tmp/ccStDA7r.s:21     .text:000000000000000c .L0 
     /tmp/ccStDA7r.s:25     .text:0000000000000018 .L0 
     /tmp/ccStDA7r.s:26     .text:0000000000000018 .L0 
     /tmp/ccStDA7r.s:27     .text:0000000000000018 .L0 
     /tmp/ccStDA7r.s:29     .text:000000000000001c .L0 
     /tmp/ccStDA7r.s:32     .text:0000000000000020 .L0 
     /tmp/ccStDA7r.s:34     .text:0000000000000020 .L0 
     /tmp/ccStDA7r.s:43     .text:000000000000002c .L0 
     /tmp/ccStDA7r.s:51     .text:000000000000003c .L0 
     /tmp/ccStDA7r.s:52     .text:0000000000000040 .L0 
     /tmp/ccStDA7r.s:58     .text:0000000000000040 _ZN9Scheduler3getEv
     /tmp/ccStDA7r.s:61     .text:0000000000000040 .L0 
     /tmp/ccStDA7r.s:62     .text:0000000000000040 .L0 
     /tmp/ccStDA7r.s:63     .text:0000000000000044 .L0 
     /tmp/ccStDA7r.s:68     .text:0000000000000054 .L0 
     /tmp/ccStDA7r.s:69     .text:0000000000000054 .L0 
     /tmp/ccStDA7r.s:70     .text:0000000000000054 .L0 
     /tmp/ccStDA7r.s:71     .text:0000000000000054 .L0 
     /tmp/ccStDA7r.s:73     .text:0000000000000058 .L0 
     /tmp/ccStDA7r.s:78     .text:0000000000000058 .L0 
     /tmp/ccStDA7r.s:79     .text:0000000000000058 .L0 
     /tmp/ccStDA7r.s:81     .text:0000000000000060 .L0 
     /tmp/ccStDA7r.s:84     .text:0000000000000064 .L0 
     /tmp/ccStDA7r.s:86     .text:0000000000000068 .L0 
     /tmp/ccStDA7r.s:88     .text:0000000000000070 .L0 
     /tmp/ccStDA7r.s:91     .text:0000000000000074 .L0 
     /tmp/ccStDA7r.s:96     .text:0000000000000078 .L0 
     /tmp/ccStDA7r.s:99     .text:0000000000000080 .L0 
     /tmp/ccStDA7r.s:108    .text:000000000000008c .L0 
     /tmp/ccStDA7r.s:110    .text:0000000000000094 .L0 
     /tmp/ccStDA7r.s:111    .text:0000000000000094 .L0 
     /tmp/ccStDA7r.s:113    .text:0000000000000098 .L0 
     /tmp/ccStDA7r.s:114    .text:0000000000000098 .L0 
     /tmp/ccStDA7r.s:116    .text:000000000000009c .L0 
     /tmp/ccStDA7r.s:118    .text:00000000000000a0 .L0 
     /tmp/ccStDA7r.s:120    .text:00000000000000a4 .L0 
     /tmp/ccStDA7r.s:124    .text:00000000000000a8 .L0 
     /tmp/ccStDA7r.s:128    .text:00000000000000a8 .L0 
     /tmp/ccStDA7r.s:133    .text:00000000000000b4 .L0 
     /tmp/ccStDA7r.s:138    .text:00000000000000b8 .L0 
     /tmp/ccStDA7r.s:139    .text:00000000000000bc .L0 
     /tmp/ccStDA7r.s:145    .text:00000000000000bc _ZN9Scheduler3putEP3TCB
     /tmp/ccStDA7r.s:148    .text:00000000000000bc .L0 
     /tmp/ccStDA7r.s:150    .text:00000000000000bc .L0 
     /tmp/ccStDA7r.s:151    .text:00000000000000c0 .L0 
     /tmp/ccStDA7r.s:155    .text:00000000000000cc .L0 
     /tmp/ccStDA7r.s:156    .text:00000000000000cc .L0 
     /tmp/ccStDA7r.s:157    .text:00000000000000cc .L0 
     /tmp/ccStDA7r.s:159    .text:00000000000000d0 .L0 
GAS LISTING /tmp/ccStDA7r.s 			page 10


     /tmp/ccStDA7r.s:167    .text:00000000000000d4 .L0 
     /tmp/ccStDA7r.s:168    .text:00000000000000d4 .L0 
     /tmp/ccStDA7r.s:171    .text:00000000000000dc .L0 
     /tmp/ccStDA7r.s:179    .text:00000000000000e8 .L0 
     /tmp/ccStDA7r.s:185    .text:00000000000000f0 .L0 
     /tmp/ccStDA7r.s:187    .text:00000000000000f8 .L0 
     /tmp/ccStDA7r.s:189    .text:00000000000000fc .L0 
     /tmp/ccStDA7r.s:191    .text:0000000000000100 .L0 
     /tmp/ccStDA7r.s:197    .text:0000000000000108 .L0 
     /tmp/ccStDA7r.s:198    .text:000000000000010c .L0 
     /tmp/ccStDA7r.s:199    .text:000000000000010c .L0 
     /tmp/ccStDA7r.s:201    .text:0000000000000110 .L0 
     /tmp/ccStDA7r.s:202    .text:0000000000000110 .L0 
     /tmp/ccStDA7r.s:204    .text:0000000000000114 .L0 
     /tmp/ccStDA7r.s:207    .text:0000000000000118 .L0 
     /tmp/ccStDA7r.s:211    .text:000000000000011c .L0 
     /tmp/ccStDA7r.s:215    .text:000000000000011c .L0 
     /tmp/ccStDA7r.s:222    .text:000000000000012c .L0 
     /tmp/ccStDA7r.s:223    .text:0000000000000130 .L0 
     /tmp/ccStDA7r.s:229    .text:0000000000000130 _ZN9Scheduler11getInstanceEv
     /tmp/ccStDA7r.s:232    .text:0000000000000130 .L0 
     /tmp/ccStDA7r.s:234    .text:0000000000000130 .L0 
     /tmp/ccStDA7r.s:235    .text:0000000000000134 .L0 
     /tmp/ccStDA7r.s:237    .text:0000000000000138 .L0 
     /tmp/ccStDA7r.s:239    .text:000000000000013c .L0 
     /tmp/ccStDA7r.s:241    .text:000000000000013c .L0 
     /tmp/ccStDA7r.s:242    .text:000000000000013c .L0 
     /tmp/ccStDA7r.s:245    .text:0000000000000144 .L0 
     /tmp/ccStDA7r.s:246    .text:0000000000000144 .L0 
     /tmp/ccStDA7r.s:248    .text:0000000000000148 .L0 
     /tmp/ccStDA7r.s:250    .text:000000000000014c .L0 
     /tmp/ccStDA7r.s:255    .text:000000000000014c _GLOBAL__sub_I__ZN9Scheduler16readyThreadQueueE
     /tmp/ccStDA7r.s:258    .text:000000000000014c .L0 
     /tmp/ccStDA7r.s:259    .text:000000000000014c .L0 
     /tmp/ccStDA7r.s:260    .text:0000000000000150 .L0 
     /tmp/ccStDA7r.s:263    .text:0000000000000158 .L0 
     /tmp/ccStDA7r.s:264    .text:0000000000000158 .L0 
     /tmp/ccStDA7r.s:266    .text:000000000000015c .L0 
     /tmp/ccStDA7r.s:268    .text:000000000000015c .L0 
     /tmp/ccStDA7r.s:274    .text:0000000000000174 .L0 
     /tmp/ccStDA7r.s:276    .text:0000000000000178 .L0 
     /tmp/ccStDA7r.s:277    .text:0000000000000178 .L0 
     /tmp/ccStDA7r.s:279    .text:000000000000017c .L0 
     /tmp/ccStDA7r.s:281    .text:0000000000000180 .L0 
     /tmp/ccStDA7r.s:293    .bss:0000000000000000 _ZN9Scheduler16readyThreadQueueE
     /tmp/ccStDA7r.s:290    .bss:0000000000000000 .LANCHOR0
     /tmp/ccStDA7r.s:300    .text:0000000000000180 .L0 
     /tmp/ccStDA7r.s:43     .text:000000000000002c .L0 
     /tmp/ccStDA7r.s:79     .text:0000000000000058 .L0 
     /tmp/ccStDA7r.s:86     .text:0000000000000068 .L0 
     /tmp/ccStDA7r.s:128    .text:00000000000000a8 .L0 
     /tmp/ccStDA7r.s:185    .text:00000000000000f0 .L0 
     /tmp/ccStDA7r.s:191    .text:0000000000000100 .L0 
     /tmp/ccStDA7r.s:215    .text:000000000000011c .L0 
     /tmp/ccStDA7r.s:31     .text:0000000000000020 .L4
     /tmp/ccStDA7r.s:23     .text:0000000000000014 .L1
     /tmp/ccStDA7r.s:131    .text:00000000000000b4 .L8
GAS LISTING /tmp/ccStDA7r.s 			page 11


     /tmp/ccStDA7r.s:123    .text:00000000000000a8 .L10
     /tmp/ccStDA7r.s:89     .text:0000000000000074 .L7
     /tmp/ccStDA7r.s:102    .text:000000000000008c .L5
     /tmp/ccStDA7r.s:210    .text:000000000000011c .L12
     /tmp/ccStDA7r.s:193    .text:0000000000000108 .L11
     /tmp/ccStDA7r.s:1364   .debug_abbrev:0000000000000000 .Ldebug_abbrev0
     /tmp/ccStDA7r.s:2698   .debug_str:00000000000005d3 .LASF90
     /tmp/ccStDA7r.s:2720   .debug_str:0000000000000730 .LASF91
     /tmp/ccStDA7r.s:2592   .debug_str:0000000000000247 .LASF92
     /tmp/ccStDA7r.s:5      .text:0000000000000000 .Ltext0
     /tmp/ccStDA7r.s:296    .text:0000000000000180 .Letext0
     /tmp/ccStDA7r.s:2532   .debug_line:0000000000000000 .Ldebug_line0
     /tmp/ccStDA7r.s:2644   .debug_str:0000000000000410 .LASF0
     /tmp/ccStDA7r.s:2654   .debug_str:0000000000000460 .LASF1
     /tmp/ccStDA7r.s:2630   .debug_str:00000000000003ab .LASF2
     /tmp/ccStDA7r.s:2612   .debug_str:0000000000000303 .LASF4
     /tmp/ccStDA7r.s:2682   .debug_str:0000000000000561 .LASF3
     /tmp/ccStDA7r.s:2546   .debug_str:0000000000000080 .LASF5
     /tmp/ccStDA7r.s:2656   .debug_str:0000000000000473 .LASF6
     /tmp/ccStDA7r.s:2642   .debug_str:00000000000003fd .LASF7
     /tmp/ccStDA7r.s:2712   .debug_str:00000000000006e1 .LASF8
     /tmp/ccStDA7r.s:2600   .debug_str:000000000000028e .LASF9
     /tmp/ccStDA7r.s:2660   .debug_str:000000000000048b .LASF10
     /tmp/ccStDA7r.s:2704   .debug_str:00000000000006a9 .LASF11
     /tmp/ccStDA7r.s:2552   .debug_str:00000000000000a9 .LASF12
     /tmp/ccStDA7r.s:2538   .debug_str:000000000000002a .LASF13
     /tmp/ccStDA7r.s:2564   .debug_str:000000000000011c .LASF14
     /tmp/ccStDA7r.s:2678   .debug_str:0000000000000546 .LASF15
     /tmp/ccStDA7r.s:2570   .debug_str:000000000000015a .LASF16
     /tmp/ccStDA7r.s:2626   .debug_str:0000000000000383 .LASF36
     /tmp/ccStDA7r.s:2554   .debug_str:00000000000000b9 .LASF51
     /tmp/ccStDA7r.s:2726   .debug_str:0000000000000775 .LASF17
     /tmp/ccStDA7r.s:2694   .debug_str:00000000000005c5 .LASF18
     /tmp/ccStDA7r.s:2588   .debug_str:0000000000000236 .LASF19
     /tmp/ccStDA7r.s:2648   .debug_str:0000000000000430 .LASF20
     /tmp/ccStDA7r.s:2534   .debug_str:0000000000000000 .LASF21
     /tmp/ccStDA7r.s:2586   .debug_str:000000000000022c .LASF22
     /tmp/ccStDA7r.s:2702   .debug_str:00000000000006a3 .LASF23
     /tmp/ccStDA7r.s:2650   .debug_str:0000000000000439 .LASF25
     /tmp/ccStDA7r.s:2652   .debug_str:0000000000000456 .LASF24
     /tmp/ccStDA7r.s:2722   .debug_str:0000000000000742 .LASF26
     /tmp/ccStDA7r.s:2590   .debug_str:000000000000023b .LASF27
     /tmp/ccStDA7r.s:2608   .debug_str:00000000000002da .LASF28
     /tmp/ccStDA7r.s:2730   .debug_str:000000000000078e .LASF29
     /tmp/ccStDA7r.s:2716   .debug_str:0000000000000703 .LASF30
     /tmp/ccStDA7r.s:2636   .debug_str:00000000000003ca .LASF31
     /tmp/ccStDA7r.s:2618   .debug_str:000000000000032f .LASF32
     /tmp/ccStDA7r.s:2700   .debug_str:0000000000000697 .LASF48
     /tmp/ccStDA7r.s:2544   .debug_str:000000000000005c .LASF93
     /tmp/ccStDA7r.s:2548   .debug_str:0000000000000087 .LASF67
     /tmp/ccStDA7r.s:2662   .debug_str:000000000000049a .LASF68
     /tmp/ccStDA7r.s:2672   .debug_str:00000000000004ff .LASF33
     /tmp/ccStDA7r.s:2540   .debug_str:000000000000003a .LASF34
     /tmp/ccStDA7r.s:2658   .debug_str:0000000000000486 .LASF35
     /tmp/ccStDA7r.s:2688   .debug_str:0000000000000598 .LASF37
     /tmp/ccStDA7r.s:2594   .debug_str:0000000000000265 .LASF38
     /tmp/ccStDA7r.s:2684   .debug_str:0000000000000573 .LASF40
GAS LISTING /tmp/ccStDA7r.s 			page 12


     /tmp/ccStDA7r.s:2718   .debug_str:0000000000000723 .LASF39
     /tmp/ccStDA7r.s:2724   .debug_str:0000000000000763 .LASF41
     /tmp/ccStDA7r.s:2596   .debug_str:0000000000000276 .LASF42
     /tmp/ccStDA7r.s:2714   .debug_str:00000000000006f1 .LASF43
     /tmp/ccStDA7r.s:2690   .debug_str:00000000000005a2 .LASF44
     /tmp/ccStDA7r.s:2646   .debug_str:000000000000041d .LASF46
     /tmp/ccStDA7r.s:2692   .debug_str:00000000000005b2 .LASF45
     /tmp/ccStDA7r.s:2674   .debug_str:000000000000051c .LASF47
     /tmp/ccStDA7r.s:2606   .debug_str:00000000000002c6 .LASF94
     /tmp/ccStDA7r.s:2562   .debug_str:0000000000000104 .LASF95
     /tmp/ccStDA7r.s:2576   .debug_str:000000000000018d .LASF49
     /tmp/ccStDA7r.s:2624   .debug_str:0000000000000379 .LASF50
     /tmp/ccStDA7r.s:2706   .debug_str:00000000000006b8 .LASF52
     /tmp/ccStDA7r.s:2670   .debug_str:00000000000004fa .LASF53
     /tmp/ccStDA7r.s:2572   .debug_str:0000000000000170 .LASF54
     /tmp/ccStDA7r.s:2628   .debug_str:0000000000000393 .LASF55
     /tmp/ccStDA7r.s:2708   .debug_str:00000000000006bd .LASF56
     /tmp/ccStDA7r.s:2578   .debug_str:00000000000001aa .LASF57
     /tmp/ccStDA7r.s:2638   .debug_str:00000000000003d4 .LASF58
     /tmp/ccStDA7r.s:2574   .debug_str:0000000000000188 .LASF59
     /tmp/ccStDA7r.s:2634   .debug_str:00000000000003c5 .LASF60
     /tmp/ccStDA7r.s:2686   .debug_str:0000000000000585 .LASF61
     /tmp/ccStDA7r.s:2668   .debug_str:00000000000004e7 .LASF62
     /tmp/ccStDA7r.s:2558   .debug_str:00000000000000e6 .LASF63
     /tmp/ccStDA7r.s:2728   .debug_str:000000000000077a .LASF64
     /tmp/ccStDA7r.s:2610   .debug_str:00000000000002fe .LASF65
     /tmp/ccStDA7r.s:2602   .debug_str:000000000000029c .LASF66
     /tmp/ccStDA7r.s:2676   .debug_str:000000000000052f .LASF69
     /tmp/ccStDA7r.s:2640   .debug_str:00000000000003f3 .LASF96
     /tmp/ccStDA7r.s:2604   .debug_str:00000000000002af .LASF97
     /tmp/ccStDA7r.s:2696   .debug_str:00000000000005ca .LASF70
     /tmp/ccStDA7r.s:2584   .debug_str:000000000000020f .LASF71
     /tmp/ccStDA7r.s:2598   .debug_str:0000000000000286 .LASF72
     /tmp/ccStDA7r.s:2582   .debug_str:00000000000001f3 .LASF73
     /tmp/ccStDA7r.s:2632   .debug_str:00000000000003b9 .LASF74
     /tmp/ccStDA7r.s:2536   .debug_str:000000000000000c .LASF75
     /tmp/ccStDA7r.s:2560   .debug_str:00000000000000fa .LASF76
     /tmp/ccStDA7r.s:2550   .debug_str:000000000000008e .LASF77
     /tmp/ccStDA7r.s:2710   .debug_str:00000000000006d6 .LASF78
     /tmp/ccStDA7r.s:2542   .debug_str:000000000000003f .LASF79
     /tmp/ccStDA7r.s:2620   .debug_str:0000000000000361 .LASF80
     /tmp/ccStDA7r.s:2616   .debug_str:0000000000000315 .LASF81
     /tmp/ccStDA7r.s:2556   .debug_str:00000000000000c5 .LASF98
     /tmp/ccStDA7r.s:2580   .debug_str:00000000000001c3 .LASF82
     /tmp/ccStDA7r.s:256    .text:000000000000014c .LFB39
     /tmp/ccStDA7r.s:282    .text:0000000000000180 .LFE39
     /tmp/ccStDA7r.s:272    .text:0000000000000170 .LVL22
     /tmp/ccStDA7r.s:2664   .debug_str:00000000000004b8 .LASF83
     /tmp/ccStDA7r.s:9      .text:0000000000000000 .LFB38
     /tmp/ccStDA7r.s:53     .text:0000000000000040 .LFE38
     /tmp/ccStDA7r.s:2622   .debug_str:000000000000036a .LASF84
     /tmp/ccStDA7r.s:2614   .debug_str:000000000000030a .LASF85
     /tmp/ccStDA7r.s:38     .text:000000000000002c .LBB12
     /tmp/ccStDA7r.s:49     .text:000000000000003c .LBE12
     /tmp/ccStDA7r.s:2346   .debug_loc:0000000000000000 .LLST0
     /tmp/ccStDA7r.s:2666   .debug_str:00000000000004e2 .LASF86
     /tmp/ccStDA7r.s:2568   .debug_str:000000000000013b .LASF88
GAS LISTING /tmp/ccStDA7r.s 			page 13


     /tmp/ccStDA7r.s:2680   .debug_str:000000000000055c .LASF87
     /tmp/ccStDA7r.s:2566   .debug_str:0000000000000128 .LASF89
     /tmp/ccStDA7r.s:230    .text:0000000000000130 .LFB27
     /tmp/ccStDA7r.s:251    .text:000000000000014c .LFE27
     /tmp/ccStDA7r.s:2355   .debug_loc:000000000000002c .LLST14
     /tmp/ccStDA7r.s:146    .text:00000000000000bc .LFB26
     /tmp/ccStDA7r.s:224    .text:0000000000000130 .LFE26
     /tmp/ccStDA7r.s:2369   .debug_loc:0000000000000065 .LLST6
     /tmp/ccStDA7r.s:163    .text:00000000000000d4 .LBB32
     /tmp/ccStDA7r.s:2518   .debug_ranges:0000000000000000 .Ldebug_ranges0
     /tmp/ccStDA7r.s:2391   .debug_loc:00000000000000c4 .LLST7
     /tmp/ccStDA7r.s:2406   .debug_loc:000000000000010d .LLST8
     /tmp/ccStDA7r.s:165    .text:00000000000000d4 .LBB34
     /tmp/ccStDA7r.s:175    .text:00000000000000e8 .LBE34
     /tmp/ccStDA7r.s:2421   .debug_loc:0000000000000155 .LLST9
     /tmp/ccStDA7r.s:2429   .debug_loc:0000000000000179 .LLST10
     /tmp/ccStDA7r.s:169    .text:00000000000000dc .LVL13
     /tmp/ccStDA7r.s:173    .text:00000000000000e8 .LVL14
     /tmp/ccStDA7r.s:176    .text:00000000000000e8 .LBB36
     /tmp/ccStDA7r.s:183    .text:00000000000000f0 .LBE36
     /tmp/ccStDA7r.s:2436   .debug_loc:000000000000019c .LLST11
     /tmp/ccStDA7r.s:2444   .debug_loc:00000000000001c0 .LLST12
     /tmp/ccStDA7r.s:2451   .debug_loc:00000000000001e3 .LLST13
     /tmp/ccStDA7r.s:59     .text:0000000000000040 .LFB25
     /tmp/ccStDA7r.s:140    .text:00000000000000bc .LFE25
     /tmp/ccStDA7r.s:76     .text:0000000000000058 .LBB19
     /tmp/ccStDA7r.s:2458   .debug_loc:0000000000000206 .LLST1
     /tmp/ccStDA7r.s:2473   .debug_loc:000000000000024e .LLST2
     /tmp/ccStDA7r.s:2484   .debug_loc:0000000000000284 .LLST3
     /tmp/ccStDA7r.s:93     .text:0000000000000078 .LBB21
     /tmp/ccStDA7r.s:104    .text:000000000000008c .LBE21
     /tmp/ccStDA7r.s:2491   .debug_loc:00000000000002a7 .LLST4
     /tmp/ccStDA7r.s:2498   .debug_loc:00000000000002ca .LLST5
     /tmp/ccStDA7r.s:97     .text:0000000000000080 .LVL6
     /tmp/ccStDA7r.s:101    .text:000000000000008c .LVL7
     /tmp/ccStDA7r.s:37     .text:000000000000002c .LVL1
     /tmp/ccStDA7r.s:46     .text:000000000000003c .LVL2
     /tmp/ccStDA7r.s:233    .text:0000000000000130 .LVL20
     /tmp/ccStDA7r.s:243    .text:0000000000000140 .LVL21
     /tmp/ccStDA7r.s:149    .text:00000000000000bc .LVL11
     /tmp/ccStDA7r.s:205    .text:0000000000000114 .LVL17
     /tmp/ccStDA7r.s:209    .text:000000000000011c .LVL18
     /tmp/ccStDA7r.s:162    .text:00000000000000d4 .LVL12
     /tmp/ccStDA7r.s:192    .text:0000000000000108 .LVL16
     /tmp/ccStDA7r.s:218    .text:000000000000012c .LVL19
     /tmp/ccStDA7r.s:181    .text:00000000000000f0 .LVL15
     /tmp/ccStDA7r.s:75     .text:0000000000000058 .LVL3
     /tmp/ccStDA7r.s:122    .text:00000000000000a8 .LVL8
     /tmp/ccStDA7r.s:134    .text:00000000000000b8 .LVL10
     /tmp/ccStDA7r.s:82     .text:0000000000000064 .LVL4
     /tmp/ccStDA7r.s:130    .text:00000000000000b4 .LVL9
     /tmp/ccStDA7r.s:92     .text:0000000000000078 .LVL5
     /tmp/ccStDA7r.s:301    .debug_info:0000000000000000 .Ldebug_info0
     /tmp/ccStDA7r.s:106    .text:000000000000008c .LBE19
     /tmp/ccStDA7r.s:125    .text:00000000000000a8 .LBB24
     /tmp/ccStDA7r.s:136    .text:00000000000000b8 .LBE24
     /tmp/ccStDA7r.s:195    .text:0000000000000108 .LBE32
GAS LISTING /tmp/ccStDA7r.s 			page 14


     /tmp/ccStDA7r.s:212    .text:000000000000011c .LBB39
     /tmp/ccStDA7r.s:220    .text:000000000000012c .LBE39

UNDEFINED SYMBOLS
_ZN15MemoryAllocator11getInstanceEv
_ZN15MemoryAllocator4freeEPv
_ZN15MemoryAllocator6mallocEm
