GAS LISTING /tmp/ccKtcltQ.s 			page 1


   1              		.file	"scheduler.cpp"
   2              		.option pic
   3              		.option norelax
   4              		.text
   5              	.Ltext0:
   6              		.align	2
   8              	_Z41__static_initialization_and_destruction_0ii:
   9              	.LFB28:
  10              		.file 1 "src/scheduler.cpp"
   1:src/scheduler.cpp **** //
   2:src/scheduler.cpp **** // Created by os on 8/27/22.
   3:src/scheduler.cpp **** //
   4:src/scheduler.cpp **** 
   5:src/scheduler.cpp **** #include "../h/scheduler.hpp"
   6:src/scheduler.cpp **** 
   7:src/scheduler.cpp **** List<TCB> Scheduler::readyThreadQueue;
   8:src/scheduler.cpp **** 
   9:src/scheduler.cpp **** TCB *Scheduler::get()
  10:src/scheduler.cpp **** {
  11:src/scheduler.cpp ****     return readyThreadQueue.removeFirst();
  12:src/scheduler.cpp **** }
  13:src/scheduler.cpp **** 
  14:src/scheduler.cpp **** void Scheduler::put(TCB *tcb)
  15:src/scheduler.cpp **** {
  16:src/scheduler.cpp ****     readyThreadQueue.addLast(tcb);
  17:src/scheduler.cpp **** }
  18:src/scheduler.cpp **** 
  19:src/scheduler.cpp **** Scheduler *Scheduler::getInstance() {
  20:src/scheduler.cpp ****     return this->instance;
  21:src/scheduler.cpp **** }
  22:src/scheduler.cpp **** 
  23:src/scheduler.cpp **** void *Scheduler::operator new(size_t n) {
  24:src/scheduler.cpp ****     return MemoryAllocator::malloc(n);
  25:src/scheduler.cpp **** }
  26:src/scheduler.cpp **** 
  27:src/scheduler.cpp **** void Scheduler::operator delete(void *p) {
  28:src/scheduler.cpp ****     MemoryAllocator::free(p);
  29:src/scheduler.cpp ****     return;
  30:src/scheduler.cpp **** }
  11              		.loc 1 30 1
  12              		.cfi_startproc
  13              	.LVL0:
  14 0000 130101FF 		addi	sp,sp,-16
  15              		.cfi_def_cfa_offset 16
  16 0004 23348100 		sd	s0,8(sp)
  17              		.cfi_offset 8, -8
  18 0008 13040101 		addi	s0,sp,16
  19              		.cfi_def_cfa 8, 0
  20              		.loc 1 30 1 is_stmt 0
  21 000c 93071000 		li	a5,1
  22 0010 6308F500 		beq	a0,a5,.L4
  23              	.L1:
  24 0014 03348100 		ld	s0,8(sp)
  25              		.cfi_remember_state
  26              		.cfi_restore 8
  27              		.cfi_def_cfa 2, 16
  28 0018 13010101 		addi	sp,sp,16
GAS LISTING /tmp/ccKtcltQ.s 			page 2


  29              		.cfi_def_cfa_offset 0
  30 001c 67800000 		jr	ra
  31              	.L4:
  32              		.cfi_restore_state
  33              		.loc 1 30 1 discriminator 1
  34 0020 B7070100 		li	a5,65536
  35 0024 9387F7FF 		addi	a5,a5,-1
  36 0028 E396F5FE 		bne	a1,a5,.L1
  37              	.LVL1:
  38              	.LBB15:
  39              	.LBB16:
  40              	.LBB17:
  41              		.file 2 "src/../h/list.hpp"
   1:src/../h/list.hpp **** //
   2:src/../h/list.hpp **** // Created by os on 8/27/22.
   3:src/../h/list.hpp **** //
   4:src/../h/list.hpp **** 
   5:src/../h/list.hpp **** #ifndef PROJECT_BASE_LIST_HPP
   6:src/../h/list.hpp **** #define PROJECT_BASE_LIST_HPP
   7:src/../h/list.hpp **** 
   8:src/../h/list.hpp **** #include "../lib/mem.h"
   9:src/../h/list.hpp **** #include "MemoryAllocator.hpp"
  10:src/../h/list.hpp **** 
  11:src/../h/list.hpp **** template<typename T>
  12:src/../h/list.hpp **** class List
  13:src/../h/list.hpp **** {
  14:src/../h/list.hpp **** private:
  15:src/../h/list.hpp ****     struct Elem
  16:src/../h/list.hpp ****     {
  17:src/../h/list.hpp ****         T *data;
  18:src/../h/list.hpp ****         Elem *next;
  19:src/../h/list.hpp **** 
  20:src/../h/list.hpp ****         Elem(T *data, Elem *next) : data(data), next(next) {}
  21:src/../h/list.hpp ****     };
  22:src/../h/list.hpp **** 
  23:src/../h/list.hpp ****     Elem *head, *tail;
  24:src/../h/list.hpp **** 
  25:src/../h/list.hpp **** public:
  26:src/../h/list.hpp ****     List() : head(0), tail(0) {}
  42              		.loc 2 26 29
  43 002c 97070000 		lla	a5,.LANCHOR0
  43      93870700 
  44 0034 23B00700 		sd	zero,0(a5)
  45 0038 23B40700 		sd	zero,8(a5)
  46              	.LVL2:
  47              	.LBE17:
  48              	.LBE16:
  49              	.LBE15:
  50              		.loc 1 30 1
  51 003c 6FF09FFD 		j	.L1
  52              		.cfi_endproc
  53              	.LFE28:
  55              		.align	2
  56              		.globl	_ZN9Scheduler3getEv
  58              	_ZN9Scheduler3getEv:
  59              	.LFB15:
  10:src/scheduler.cpp ****     return readyThreadQueue.removeFirst();
GAS LISTING /tmp/ccKtcltQ.s 			page 3


  60              		.loc 1 10 1 is_stmt 1
  61              		.cfi_startproc
  62 0040 130101FF 		addi	sp,sp,-16
  63              		.cfi_def_cfa_offset 16
  64 0044 23348100 		sd	s0,8(sp)
  65              		.cfi_offset 8, -8
  66 0048 13040101 		addi	s0,sp,16
  67              		.cfi_def_cfa 8, 0
  11:src/scheduler.cpp **** }
  68              		.loc 1 11 5
  69              	.LVL3:
  70              	.LBB18:
  71              	.LBB19:
  27:src/../h/list.hpp **** 
  28:src/../h/list.hpp ****     List(const List<T> &) = delete;
  29:src/../h/list.hpp **** 
  30:src/../h/list.hpp ****     List<T> &operator=(const List<T> &) = delete;
  31:src/../h/list.hpp ****     static void* operator new (size_t n);
  32:src/../h/list.hpp ****     static void operator delete (void* p);
  33:src/../h/list.hpp **** 
  34:src/../h/list.hpp ****     void addFirst(T *data)
  35:src/../h/list.hpp ****     {
  36:src/../h/list.hpp ****         Elem *elem = new Elem(data, head);
  37:src/../h/list.hpp ****         head = elem;
  38:src/../h/list.hpp ****         if (!tail) { tail = head; }
  39:src/../h/list.hpp ****     }
  40:src/../h/list.hpp **** 
  41:src/../h/list.hpp ****     void addLast(T *data)
  42:src/../h/list.hpp ****     {
  43:src/../h/list.hpp ****         Elem *elem = new Elem(data, 0);
  44:src/../h/list.hpp ****         if (tail)
  45:src/../h/list.hpp ****         {
  46:src/../h/list.hpp ****             tail->next = elem;
  47:src/../h/list.hpp ****             tail = elem;
  48:src/../h/list.hpp ****         } else
  49:src/../h/list.hpp ****         {
  50:src/../h/list.hpp ****             head = tail = elem;
  51:src/../h/list.hpp ****         }
  52:src/../h/list.hpp ****     }
  53:src/../h/list.hpp **** 
  54:src/../h/list.hpp ****     T *removeFirst()
  55:src/../h/list.hpp ****     {
  56:src/../h/list.hpp ****         if (!head) { return 0; }
  72              		.loc 2 56 14 is_stmt 0
  73 004c 17050000 		ld	a0,.LANCHOR0
  73      03350500 
  74              		.loc 2 56 9
  75 0054 630C0500 		beqz	a0,.L5
  76              	.LVL4:
  57:src/../h/list.hpp **** 
  58:src/../h/list.hpp ****         Elem *elem = head;
  59:src/../h/list.hpp ****         head = head->next;
  77              		.loc 2 59 22
  78 0058 83378500 		ld	a5,8(a0)
  79              		.loc 2 59 9
  80 005c 17070000 		sd	a5,.LANCHOR0,a4
  80      2330F700 
GAS LISTING /tmp/ccKtcltQ.s 			page 4


  60:src/../h/list.hpp ****         if (!head) { tail = 0; }
  81              		.loc 2 60 9
  82 0064 638A0700 		beqz	a5,.L9
  83              	.L7:
  61:src/../h/list.hpp **** 
  62:src/../h/list.hpp ****         T *ret = elem->data;
  84              		.loc 2 62 12
  85 0068 03350500 		ld	a0,0(a0)
  86              	.LVL5:
  87              	.L5:
  88              	.LBE19:
  89              	.LBE18:
  12:src/scheduler.cpp **** 
  90              		.loc 1 12 1
  91 006c 03348100 		ld	s0,8(sp)
  92              		.cfi_remember_state
  93              		.cfi_restore 8
  94              		.cfi_def_cfa 2, 16
  95 0070 13010101 		addi	sp,sp,16
  96              		.cfi_def_cfa_offset 0
  97 0074 67800000 		jr	ra
  98              	.LVL6:
  99              	.L9:
 100              		.cfi_restore_state
 101              	.LBB21:
 102              	.LBB20:
  60:src/../h/list.hpp ****         if (!head) { tail = 0; }
 103              		.loc 2 60 22
 104 0078 97070000 		sd	zero,.LANCHOR0+8,a5
 104      23B00700 
 105 0080 6FF09FFE 		j	.L7
 106              	.LBE20:
 107              	.LBE21:
 108              		.cfi_endproc
 109              	.LFE15:
 111              		.align	2
 112              		.globl	_ZN9Scheduler3putEP3TCB
 114              	_ZN9Scheduler3putEP3TCB:
 115              	.LFB16:
  15:src/scheduler.cpp ****     readyThreadQueue.addLast(tcb);
 116              		.loc 1 15 1 is_stmt 1
 117              		.cfi_startproc
 118              	.LVL7:
 119 0084 130101FE 		addi	sp,sp,-32
 120              		.cfi_def_cfa_offset 32
 121 0088 233C1100 		sd	ra,24(sp)
 122 008c 23388100 		sd	s0,16(sp)
 123 0090 23349100 		sd	s1,8(sp)
 124              		.cfi_offset 1, -8
 125              		.cfi_offset 8, -16
 126              		.cfi_offset 9, -24
 127 0094 13040102 		addi	s0,sp,32
 128              		.cfi_def_cfa 8, 0
 129 0098 93040500 		mv	s1,a0
  16:src/scheduler.cpp **** }
 130              		.loc 1 16 5
 131              	.LVL8:
GAS LISTING /tmp/ccKtcltQ.s 			page 5


 132              	.LBB22:
 133              	.LBB23:
  43:src/../h/list.hpp ****         if (tail)
 134              		.loc 2 43 22 is_stmt 0
 135 009c 13050001 		li	a0,16
 136              	.LVL9:
 137 00a0 97000000 		call	_Znwm@plt
 137      E7800000 
 138              	.LVL10:
 139              	.LBB24:
 140              	.LBB25:
  20:src/../h/list.hpp ****     };
 141              		.loc 2 20 58
 142 00a8 23309500 		sd	s1,0(a0)
 143 00ac 23340500 		sd	zero,8(a0)
 144              	.LVL11:
 145              	.LBE25:
 146              	.LBE24:
  44:src/../h/list.hpp ****         {
 147              		.loc 2 44 13
 148 00b0 97070000 		ld	a5,.LANCHOR0+8
 148      83B70700 
  44:src/../h/list.hpp ****         {
 149              		.loc 2 44 9
 150 00b8 63820702 		beqz	a5,.L11
  46:src/../h/list.hpp ****             tail = elem;
 151              		.loc 2 46 13
 152 00bc 23B4A700 		sd	a0,8(a5)
  47:src/../h/list.hpp ****         } else
 153              		.loc 2 47 13
 154 00c0 97070000 		sd	a0,.LANCHOR0+8,a5
 154      23B0A700 
 155              	.LVL12:
 156              	.L10:
 157              	.LBE23:
 158              	.LBE22:
  17:src/scheduler.cpp **** 
 159              		.loc 1 17 1
 160 00c8 83308101 		ld	ra,24(sp)
 161              		.cfi_remember_state
 162              		.cfi_restore 1
 163 00cc 03340101 		ld	s0,16(sp)
 164              		.cfi_restore 8
 165              		.cfi_def_cfa 2, 32
 166 00d0 83348100 		ld	s1,8(sp)
 167              		.cfi_restore 9
 168              	.LVL13:
 169 00d4 13010102 		addi	sp,sp,32
 170              		.cfi_def_cfa_offset 0
 171 00d8 67800000 		jr	ra
 172              	.LVL14:
 173              	.L11:
 174              		.cfi_restore_state
 175              	.LBB27:
 176              	.LBB26:
  50:src/../h/list.hpp ****         }
 177              		.loc 2 50 13
GAS LISTING /tmp/ccKtcltQ.s 			page 6


 178 00dc 97070000 		lla	a5,.LANCHOR0
 178      93870700 
 179 00e4 23B4A700 		sd	a0,8(a5)
 180 00e8 23B0A700 		sd	a0,0(a5)
 181              	.LVL15:
 182              	.LBE26:
 183              	.LBE27:
  17:src/scheduler.cpp **** 
 184              		.loc 1 17 1
 185 00ec 6FF0DFFD 		j	.L10
 186              		.cfi_endproc
 187              	.LFE16:
 189              		.align	2
 190              		.globl	_ZN9Scheduler11getInstanceEv
 192              	_ZN9Scheduler11getInstanceEv:
 193              	.LFB17:
  19:src/scheduler.cpp ****     return this->instance;
 194              		.loc 1 19 37 is_stmt 1
 195              		.cfi_startproc
 196              	.LVL16:
 197 00f0 130101FF 		addi	sp,sp,-16
 198              		.cfi_def_cfa_offset 16
 199 00f4 23348100 		sd	s0,8(sp)
 200              		.cfi_offset 8, -8
 201 00f8 13040101 		addi	s0,sp,16
 202              		.cfi_def_cfa 8, 0
  20:src/scheduler.cpp **** }
 203              		.loc 1 20 5
  21:src/scheduler.cpp **** 
 204              		.loc 1 21 1 is_stmt 0
 205 00fc 03350500 		ld	a0,0(a0)
 206              	.LVL17:
 207 0100 03348100 		ld	s0,8(sp)
 208              		.cfi_restore 8
 209              		.cfi_def_cfa 2, 16
 210 0104 13010101 		addi	sp,sp,16
 211              		.cfi_def_cfa_offset 0
 212 0108 67800000 		jr	ra
 213              		.cfi_endproc
 214              	.LFE17:
 216              		.align	2
 217              		.globl	_ZN9SchedulernwEm
 219              	_ZN9SchedulernwEm:
 220              	.LFB18:
  23:src/scheduler.cpp ****     return MemoryAllocator::malloc(n);
 221              		.loc 1 23 41 is_stmt 1
 222              		.cfi_startproc
 223              	.LVL18:
 224 010c 130101FF 		addi	sp,sp,-16
 225              		.cfi_def_cfa_offset 16
 226 0110 23341100 		sd	ra,8(sp)
 227 0114 23308100 		sd	s0,0(sp)
 228              		.cfi_offset 1, -8
 229              		.cfi_offset 8, -16
 230 0118 13040101 		addi	s0,sp,16
 231              		.cfi_def_cfa 8, 0
  24:src/scheduler.cpp **** }
GAS LISTING /tmp/ccKtcltQ.s 			page 7


 232              		.loc 1 24 5
  24:src/scheduler.cpp **** }
 233              		.loc 1 24 35 is_stmt 0
 234 011c 97000000 		call	_ZN15MemoryAllocator6mallocEm@plt
 234      E7800000 
 235              	.LVL19:
  25:src/scheduler.cpp **** 
 236              		.loc 1 25 1
 237 0124 83308100 		ld	ra,8(sp)
 238              		.cfi_restore 1
 239 0128 03340100 		ld	s0,0(sp)
 240              		.cfi_restore 8
 241              		.cfi_def_cfa 2, 16
 242 012c 13010101 		addi	sp,sp,16
 243              		.cfi_def_cfa_offset 0
 244 0130 67800000 		jr	ra
 245              		.cfi_endproc
 246              	.LFE18:
 248              		.align	2
 249              		.globl	_ZN9SchedulerdlEPv
 251              	_ZN9SchedulerdlEPv:
 252              	.LFB19:
  27:src/scheduler.cpp ****     MemoryAllocator::free(p);
 253              		.loc 1 27 42 is_stmt 1
 254              		.cfi_startproc
 255              	.LVL20:
 256 0134 130101FF 		addi	sp,sp,-16
 257              		.cfi_def_cfa_offset 16
 258 0138 23341100 		sd	ra,8(sp)
 259 013c 23308100 		sd	s0,0(sp)
 260              		.cfi_offset 1, -8
 261              		.cfi_offset 8, -16
 262 0140 13040101 		addi	s0,sp,16
 263              		.cfi_def_cfa 8, 0
  28:src/scheduler.cpp ****     return;
 264              		.loc 1 28 5
  28:src/scheduler.cpp ****     return;
 265              		.loc 1 28 26 is_stmt 0
 266 0144 97000000 		call	_ZN15MemoryAllocator4freeEPv@plt
 266      E7800000 
 267              	.LVL21:
  29:src/scheduler.cpp **** }
 268              		.loc 1 29 5 is_stmt 1
 269              		.loc 1 30 1 is_stmt 0
 270 014c 83308100 		ld	ra,8(sp)
 271              		.cfi_restore 1
 272 0150 03340100 		ld	s0,0(sp)
 273              		.cfi_restore 8
 274              		.cfi_def_cfa 2, 16
 275 0154 13010101 		addi	sp,sp,16
 276              		.cfi_def_cfa_offset 0
 277 0158 67800000 		jr	ra
 278              		.cfi_endproc
 279              	.LFE19:
 281              		.align	2
 283              	_GLOBAL__sub_I__ZN9Scheduler16readyThreadQueueE:
 284              	.LFB29:
GAS LISTING /tmp/ccKtcltQ.s 			page 8


 285              		.loc 1 30 1 is_stmt 1
 286              		.cfi_startproc
 287 015c 130101FF 		addi	sp,sp,-16
 288              		.cfi_def_cfa_offset 16
 289 0160 23341100 		sd	ra,8(sp)
 290 0164 23308100 		sd	s0,0(sp)
 291              		.cfi_offset 1, -8
 292              		.cfi_offset 8, -16
 293 0168 13040101 		addi	s0,sp,16
 294              		.cfi_def_cfa 8, 0
 295              		.loc 1 30 1 is_stmt 0
 296 016c B7050100 		li	a1,65536
 297 0170 9385F5FF 		addi	a1,a1,-1
 298 0174 13051000 		li	a0,1
 299 0178 97000000 		call	_Z41__static_initialization_and_destruction_0ii
 299      E7800000 
 300              	.LVL22:
 301 0180 83308100 		ld	ra,8(sp)
 302              		.cfi_restore 1
 303 0184 03340100 		ld	s0,0(sp)
 304              		.cfi_restore 8
 305              		.cfi_def_cfa 2, 16
 306 0188 13010101 		addi	sp,sp,16
 307              		.cfi_def_cfa_offset 0
 308 018c 67800000 		jr	ra
 309              		.cfi_endproc
 310              	.LFE29:
 312              		.section	.init_array,"aw"
 313              		.align	3
 314 0000 00000000 		.dword	_GLOBAL__sub_I__ZN9Scheduler16readyThreadQueueE
 314      00000000 
 315              		.globl	_ZN9Scheduler16readyThreadQueueE
 316              		.bss
 317              		.align	3
 318              		.set	.LANCHOR0,. + 0
 321              	_ZN9Scheduler16readyThreadQueueE:
 322 0000 00000000 		.zero	16
 322      00000000 
 322      00000000 
 322      00000000 
 323              		.text
 324              	.Letext0:
 325              		.file 3 "src/../h/../lib/hw.h"
 326              		.file 4 "src/../h/MemoryAllocator.hpp"
 327              		.file 5 "src/../h/scheduler.hpp"
GAS LISTING /tmp/ccKtcltQ.s 			page 9


DEFINED SYMBOLS
                            *ABS*:0000000000000000 scheduler.cpp
     /tmp/ccKtcltQ.s:8      .text:0000000000000000 _Z41__static_initialization_and_destruction_0ii
     /tmp/ccKtcltQ.s:12     .text:0000000000000000 .L0 
     /tmp/ccKtcltQ.s:14     .text:0000000000000000 .L0 
     /tmp/ccKtcltQ.s:15     .text:0000000000000004 .L0 
     /tmp/ccKtcltQ.s:17     .text:0000000000000008 .L0 
     /tmp/ccKtcltQ.s:19     .text:000000000000000c .L0 
     /tmp/ccKtcltQ.s:21     .text:000000000000000c .L0 
     /tmp/ccKtcltQ.s:25     .text:0000000000000018 .L0 
     /tmp/ccKtcltQ.s:26     .text:0000000000000018 .L0 
     /tmp/ccKtcltQ.s:27     .text:0000000000000018 .L0 
     /tmp/ccKtcltQ.s:29     .text:000000000000001c .L0 
     /tmp/ccKtcltQ.s:32     .text:0000000000000020 .L0 
     /tmp/ccKtcltQ.s:34     .text:0000000000000020 .L0 
     /tmp/ccKtcltQ.s:43     .text:000000000000002c .L0 
     /tmp/ccKtcltQ.s:51     .text:000000000000003c .L0 
     /tmp/ccKtcltQ.s:52     .text:0000000000000040 .L0 
     /tmp/ccKtcltQ.s:58     .text:0000000000000040 _ZN9Scheduler3getEv
     /tmp/ccKtcltQ.s:61     .text:0000000000000040 .L0 
     /tmp/ccKtcltQ.s:62     .text:0000000000000040 .L0 
     /tmp/ccKtcltQ.s:63     .text:0000000000000044 .L0 
     /tmp/ccKtcltQ.s:65     .text:0000000000000048 .L0 
     /tmp/ccKtcltQ.s:67     .text:000000000000004c .L0 
     /tmp/ccKtcltQ.s:72     .text:000000000000004c .L0 
     /tmp/ccKtcltQ.s:73     .text:000000000000004c .L0 
     /tmp/ccKtcltQ.s:75     .text:0000000000000054 .L0 
     /tmp/ccKtcltQ.s:78     .text:0000000000000058 .L0 
     /tmp/ccKtcltQ.s:80     .text:000000000000005c .L0 
     /tmp/ccKtcltQ.s:82     .text:0000000000000064 .L0 
     /tmp/ccKtcltQ.s:85     .text:0000000000000068 .L0 
     /tmp/ccKtcltQ.s:91     .text:000000000000006c .L0 
     /tmp/ccKtcltQ.s:92     .text:0000000000000070 .L0 
     /tmp/ccKtcltQ.s:93     .text:0000000000000070 .L0 
     /tmp/ccKtcltQ.s:94     .text:0000000000000070 .L0 
     /tmp/ccKtcltQ.s:96     .text:0000000000000074 .L0 
     /tmp/ccKtcltQ.s:100    .text:0000000000000078 .L0 
     /tmp/ccKtcltQ.s:104    .text:0000000000000078 .L0 
     /tmp/ccKtcltQ.s:108    .text:0000000000000084 .L0 
     /tmp/ccKtcltQ.s:114    .text:0000000000000084 _ZN9Scheduler3putEP3TCB
     /tmp/ccKtcltQ.s:117    .text:0000000000000084 .L0 
     /tmp/ccKtcltQ.s:119    .text:0000000000000084 .L0 
     /tmp/ccKtcltQ.s:120    .text:0000000000000088 .L0 
     /tmp/ccKtcltQ.s:124    .text:0000000000000094 .L0 
     /tmp/ccKtcltQ.s:125    .text:0000000000000094 .L0 
     /tmp/ccKtcltQ.s:126    .text:0000000000000094 .L0 
     /tmp/ccKtcltQ.s:128    .text:0000000000000098 .L0 
     /tmp/ccKtcltQ.s:134    .text:000000000000009c .L0 
     /tmp/ccKtcltQ.s:135    .text:000000000000009c .L0 
     /tmp/ccKtcltQ.s:142    .text:00000000000000a8 .L0 
     /tmp/ccKtcltQ.s:148    .text:00000000000000b0 .L0 
     /tmp/ccKtcltQ.s:150    .text:00000000000000b8 .L0 
     /tmp/ccKtcltQ.s:152    .text:00000000000000bc .L0 
     /tmp/ccKtcltQ.s:154    .text:00000000000000c0 .L0 
     /tmp/ccKtcltQ.s:160    .text:00000000000000c8 .L0 
     /tmp/ccKtcltQ.s:161    .text:00000000000000cc .L0 
     /tmp/ccKtcltQ.s:162    .text:00000000000000cc .L0 
GAS LISTING /tmp/ccKtcltQ.s 			page 10


     /tmp/ccKtcltQ.s:164    .text:00000000000000d0 .L0 
     /tmp/ccKtcltQ.s:165    .text:00000000000000d0 .L0 
     /tmp/ccKtcltQ.s:167    .text:00000000000000d4 .L0 
     /tmp/ccKtcltQ.s:170    .text:00000000000000d8 .L0 
     /tmp/ccKtcltQ.s:174    .text:00000000000000dc .L0 
     /tmp/ccKtcltQ.s:178    .text:00000000000000dc .L0 
     /tmp/ccKtcltQ.s:185    .text:00000000000000ec .L0 
     /tmp/ccKtcltQ.s:186    .text:00000000000000f0 .L0 
     /tmp/ccKtcltQ.s:192    .text:00000000000000f0 _ZN9Scheduler11getInstanceEv
     /tmp/ccKtcltQ.s:195    .text:00000000000000f0 .L0 
     /tmp/ccKtcltQ.s:197    .text:00000000000000f0 .L0 
     /tmp/ccKtcltQ.s:198    .text:00000000000000f4 .L0 
     /tmp/ccKtcltQ.s:200    .text:00000000000000f8 .L0 
     /tmp/ccKtcltQ.s:202    .text:00000000000000fc .L0 
     /tmp/ccKtcltQ.s:204    .text:00000000000000fc .L0 
     /tmp/ccKtcltQ.s:205    .text:00000000000000fc .L0 
     /tmp/ccKtcltQ.s:208    .text:0000000000000104 .L0 
     /tmp/ccKtcltQ.s:209    .text:0000000000000104 .L0 
     /tmp/ccKtcltQ.s:211    .text:0000000000000108 .L0 
     /tmp/ccKtcltQ.s:213    .text:000000000000010c .L0 
     /tmp/ccKtcltQ.s:219    .text:000000000000010c _ZN9SchedulernwEm
     /tmp/ccKtcltQ.s:222    .text:000000000000010c .L0 
     /tmp/ccKtcltQ.s:224    .text:000000000000010c .L0 
     /tmp/ccKtcltQ.s:225    .text:0000000000000110 .L0 
     /tmp/ccKtcltQ.s:228    .text:0000000000000118 .L0 
     /tmp/ccKtcltQ.s:229    .text:0000000000000118 .L0 
     /tmp/ccKtcltQ.s:231    .text:000000000000011c .L0 
     /tmp/ccKtcltQ.s:233    .text:000000000000011c .L0 
     /tmp/ccKtcltQ.s:234    .text:000000000000011c .L0 
     /tmp/ccKtcltQ.s:237    .text:0000000000000124 .L0 
     /tmp/ccKtcltQ.s:238    .text:0000000000000128 .L0 
     /tmp/ccKtcltQ.s:240    .text:000000000000012c .L0 
     /tmp/ccKtcltQ.s:241    .text:000000000000012c .L0 
     /tmp/ccKtcltQ.s:243    .text:0000000000000130 .L0 
     /tmp/ccKtcltQ.s:245    .text:0000000000000134 .L0 
     /tmp/ccKtcltQ.s:251    .text:0000000000000134 _ZN9SchedulerdlEPv
     /tmp/ccKtcltQ.s:254    .text:0000000000000134 .L0 
     /tmp/ccKtcltQ.s:256    .text:0000000000000134 .L0 
     /tmp/ccKtcltQ.s:257    .text:0000000000000138 .L0 
     /tmp/ccKtcltQ.s:260    .text:0000000000000140 .L0 
     /tmp/ccKtcltQ.s:261    .text:0000000000000140 .L0 
     /tmp/ccKtcltQ.s:263    .text:0000000000000144 .L0 
     /tmp/ccKtcltQ.s:265    .text:0000000000000144 .L0 
     /tmp/ccKtcltQ.s:266    .text:0000000000000144 .L0 
     /tmp/ccKtcltQ.s:269    .text:000000000000014c .L0 
     /tmp/ccKtcltQ.s:270    .text:000000000000014c .L0 
     /tmp/ccKtcltQ.s:271    .text:0000000000000150 .L0 
     /tmp/ccKtcltQ.s:273    .text:0000000000000154 .L0 
     /tmp/ccKtcltQ.s:274    .text:0000000000000154 .L0 
     /tmp/ccKtcltQ.s:276    .text:0000000000000158 .L0 
     /tmp/ccKtcltQ.s:278    .text:000000000000015c .L0 
     /tmp/ccKtcltQ.s:283    .text:000000000000015c _GLOBAL__sub_I__ZN9Scheduler16readyThreadQueueE
     /tmp/ccKtcltQ.s:286    .text:000000000000015c .L0 
     /tmp/ccKtcltQ.s:287    .text:000000000000015c .L0 
     /tmp/ccKtcltQ.s:288    .text:0000000000000160 .L0 
     /tmp/ccKtcltQ.s:291    .text:0000000000000168 .L0 
     /tmp/ccKtcltQ.s:292    .text:0000000000000168 .L0 
GAS LISTING /tmp/ccKtcltQ.s 			page 11


     /tmp/ccKtcltQ.s:294    .text:000000000000016c .L0 
     /tmp/ccKtcltQ.s:296    .text:000000000000016c .L0 
     /tmp/ccKtcltQ.s:302    .text:0000000000000184 .L0 
     /tmp/ccKtcltQ.s:304    .text:0000000000000188 .L0 
     /tmp/ccKtcltQ.s:305    .text:0000000000000188 .L0 
     /tmp/ccKtcltQ.s:307    .text:000000000000018c .L0 
     /tmp/ccKtcltQ.s:309    .text:0000000000000190 .L0 
     /tmp/ccKtcltQ.s:321    .bss:0000000000000000 _ZN9Scheduler16readyThreadQueueE
     /tmp/ccKtcltQ.s:318    .bss:0000000000000000 .LANCHOR0
     /tmp/ccKtcltQ.s:328    .text:0000000000000190 .L0 
     /tmp/ccKtcltQ.s:43     .text:000000000000002c .L0 
     /tmp/ccKtcltQ.s:73     .text:000000000000004c .L0 
     /tmp/ccKtcltQ.s:80     .text:000000000000005c .L0 
     /tmp/ccKtcltQ.s:104    .text:0000000000000078 .L0 
     /tmp/ccKtcltQ.s:148    .text:00000000000000b0 .L0 
     /tmp/ccKtcltQ.s:154    .text:00000000000000c0 .L0 
     /tmp/ccKtcltQ.s:178    .text:00000000000000dc .L0 
     /tmp/ccKtcltQ.s:31     .text:0000000000000020 .L4
     /tmp/ccKtcltQ.s:23     .text:0000000000000014 .L1
     /tmp/ccKtcltQ.s:87     .text:000000000000006c .L5
     /tmp/ccKtcltQ.s:99     .text:0000000000000078 .L9
     /tmp/ccKtcltQ.s:83     .text:0000000000000068 .L7
     /tmp/ccKtcltQ.s:173    .text:00000000000000dc .L11
     /tmp/ccKtcltQ.s:156    .text:00000000000000c8 .L10
     /tmp/ccKtcltQ.s:1229   .debug_abbrev:0000000000000000 .Ldebug_abbrev0
     /tmp/ccKtcltQ.s:2506   .debug_str:00000000000004ec .LASF73
     /tmp/ccKtcltQ.s:2526   .debug_str:0000000000000613 .LASF74
     /tmp/ccKtcltQ.s:2408   .debug_str:00000000000001e4 .LASF75
     /tmp/ccKtcltQ.s:5      .text:0000000000000000 .Ltext0
     /tmp/ccKtcltQ.s:324    .text:0000000000000190 .Letext0
     /tmp/ccKtcltQ.s:2362   .debug_line:0000000000000000 .Ldebug_line0
     /tmp/ccKtcltQ.s:2456   .debug_str:0000000000000361 .LASF0
     /tmp/ccKtcltQ.s:2466   .debug_str:00000000000003b1 .LASF1
     /tmp/ccKtcltQ.s:2444   .debug_str:0000000000000306 .LASF2
     /tmp/ccKtcltQ.s:2426   .debug_str:000000000000027f .LASF4
     /tmp/ccKtcltQ.s:2494   .debug_str:000000000000049c .LASF3
     /tmp/ccKtcltQ.s:2370   .debug_str:000000000000004b .LASF5
     /tmp/ccKtcltQ.s:2468   .debug_str:00000000000003c4 .LASF6
     /tmp/ccKtcltQ.s:2454   .debug_str:000000000000034e .LASF7
     /tmp/ccKtcltQ.s:2518   .debug_str:00000000000005e1 .LASF8
     /tmp/ccKtcltQ.s:2414   .debug_str:000000000000021b .LASF9
     /tmp/ccKtcltQ.s:2474   .debug_str:00000000000003e6 .LASF10
     /tmp/ccKtcltQ.s:2512   .debug_str:00000000000005c2 .LASF11
     /tmp/ccKtcltQ.s:2374   .debug_str:0000000000000059 .LASF12
     /tmp/ccKtcltQ.s:2366   .debug_str:000000000000001e .LASF13
     /tmp/ccKtcltQ.s:2384   .debug_str:00000000000000c0 .LASF14
     /tmp/ccKtcltQ.s:2488   .debug_str:000000000000047b .LASF15
     /tmp/ccKtcltQ.s:2394   .debug_str:000000000000013e .LASF16
     /tmp/ccKtcltQ.s:2442   .debug_str:00000000000002f6 .LASF30
     /tmp/ccKtcltQ.s:2520   .debug_str:00000000000005f1 .LASF44
     /tmp/ccKtcltQ.s:2532   .debug_str:0000000000000658 .LASF17
     /tmp/ccKtcltQ.s:2524   .debug_str:000000000000060e .LASF18
     /tmp/ccKtcltQ.s:2502   .debug_str:00000000000004de .LASF19
     /tmp/ccKtcltQ.s:2428   .debug_str:0000000000000286 .LASF20
     /tmp/ccKtcltQ.s:2448   .debug_str:0000000000000320 .LASF21
     /tmp/ccKtcltQ.s:2498   .debug_str:00000000000004c0 .LASF22
     /tmp/ccKtcltQ.s:2510   .debug_str:00000000000005bc .LASF23
GAS LISTING /tmp/ccKtcltQ.s 			page 12


     /tmp/ccKtcltQ.s:2462   .debug_str:000000000000038a .LASF25
     /tmp/ccKtcltQ.s:2464   .debug_str:00000000000003a7 .LASF24
     /tmp/ccKtcltQ.s:2528   .debug_str:0000000000000625 .LASF26
     /tmp/ccKtcltQ.s:2386   .debug_str:00000000000000cc .LASF76
     /tmp/ccKtcltQ.s:2390   .debug_str:00000000000000f3 .LASF77
     /tmp/ccKtcltQ.s:2372   .debug_str:0000000000000052 .LASF32
     /tmp/ccKtcltQ.s:2476   .debug_str:00000000000003f5 .LASF34
     /tmp/ccKtcltQ.s:2406   .debug_str:00000000000001df .LASF27
     /tmp/ccKtcltQ.s:2484   .debug_str:0000000000000447 .LASF28
     /tmp/ccKtcltQ.s:2470   .debug_str:00000000000003d7 .LASF29
     /tmp/ccKtcltQ.s:2472   .debug_str:00000000000003dc .LASF31
     /tmp/ccKtcltQ.s:2522   .debug_str:0000000000000601 .LASF33
     /tmp/ccKtcltQ.s:2530   .debug_str:0000000000000646 .LASF35
     /tmp/ccKtcltQ.s:2500   .debug_str:00000000000004ce .LASF36
     /tmp/ccKtcltQ.s:2458   .debug_str:000000000000036e .LASF37
     /tmp/ccKtcltQ.s:2410   .debug_str:0000000000000202 .LASF38
     /tmp/ccKtcltQ.s:2460   .debug_str:0000000000000381 .LASF39
     /tmp/ccKtcltQ.s:2496   .debug_str:00000000000004ae .LASF40
     /tmp/ccKtcltQ.s:2420   .debug_str:0000000000000253 .LASF78
     /tmp/ccKtcltQ.s:2382   .debug_str:00000000000000a8 .LASF79
     /tmp/ccKtcltQ.s:2508   .debug_str:00000000000005b0 .LASF41
     /tmp/ccKtcltQ.s:2398   .debug_str:0000000000000159 .LASF42
     /tmp/ccKtcltQ.s:2440   .debug_str:00000000000002ec .LASF43
     /tmp/ccKtcltQ.s:2514   .debug_str:00000000000005d1 .LASF45
     /tmp/ccKtcltQ.s:2482   .debug_str:0000000000000442 .LASF46
     /tmp/ccKtcltQ.s:2450   .debug_str:0000000000000325 .LASF80
     /tmp/ccKtcltQ.s:2396   .debug_str:0000000000000154 .LASF47
     /tmp/ccKtcltQ.s:2424   .debug_str:000000000000027a .LASF48
     /tmp/ccKtcltQ.s:2416   .debug_str:0000000000000229 .LASF49
     /tmp/ccKtcltQ.s:2486   .debug_str:0000000000000464 .LASF57
     /tmp/ccKtcltQ.s:2452   .debug_str:0000000000000344 .LASF81
     /tmp/ccKtcltQ.s:2418   .debug_str:000000000000023c .LASF82
     /tmp/ccKtcltQ.s:2422   .debug_str:0000000000000267 .LASF50
     /tmp/ccKtcltQ.s:2378   .debug_str:000000000000008a .LASF51
     /tmp/ccKtcltQ.s:2504   .debug_str:00000000000004e3 .LASF52
     /tmp/ccKtcltQ.s:2404   .debug_str:00000000000001c2 .LASF53
     /tmp/ccKtcltQ.s:2412   .debug_str:0000000000000213 .LASF54
     /tmp/ccKtcltQ.s:2402   .debug_str:00000000000001a6 .LASF55
     /tmp/ccKtcltQ.s:2446   .debug_str:0000000000000314 .LASF56
     /tmp/ccKtcltQ.s:2364   .debug_str:0000000000000000 .LASF58
     /tmp/ccKtcltQ.s:2380   .debug_str:000000000000009e .LASF59
     /tmp/ccKtcltQ.s:2434   .debug_str:00000000000002b9 .LASF60
     /tmp/ccKtcltQ.s:2516   .debug_str:00000000000005d6 .LASF61
     /tmp/ccKtcltQ.s:2368   .debug_str:000000000000002e .LASF62
     /tmp/ccKtcltQ.s:2436   .debug_str:00000000000002d4 .LASF63
     /tmp/ccKtcltQ.s:2432   .debug_str:000000000000029f .LASF64
     /tmp/ccKtcltQ.s:2376   .debug_str:0000000000000069 .LASF83
     /tmp/ccKtcltQ.s:2400   .debug_str:0000000000000176 .LASF65
     /tmp/ccKtcltQ.s:284    .text:000000000000015c .LFB29
     /tmp/ccKtcltQ.s:310    .text:0000000000000190 .LFE29
     /tmp/ccKtcltQ.s:300    .text:0000000000000180 .LVL22
     /tmp/ccKtcltQ.s:2478   .debug_str:0000000000000413 .LASF66
     /tmp/ccKtcltQ.s:9      .text:0000000000000000 .LFB28
     /tmp/ccKtcltQ.s:53     .text:0000000000000040 .LFE28
     /tmp/ccKtcltQ.s:2438   .debug_str:00000000000002dd .LASF67
     /tmp/ccKtcltQ.s:2430   .debug_str:0000000000000294 .LASF68
     /tmp/ccKtcltQ.s:38     .text:000000000000002c .LBB15
GAS LISTING /tmp/ccKtcltQ.s 			page 13


     /tmp/ccKtcltQ.s:49     .text:000000000000003c .LBE15
     /tmp/ccKtcltQ.s:2184   .debug_loc:0000000000000000 .LLST0
     /tmp/ccKtcltQ.s:2480   .debug_str:000000000000043d .LASF69
     /tmp/ccKtcltQ.s:2392   .debug_str:000000000000011f .LASF71
     /tmp/ccKtcltQ.s:2490   .debug_str:0000000000000491 .LASF70
     /tmp/ccKtcltQ.s:2388   .debug_str:00000000000000e0 .LASF72
     /tmp/ccKtcltQ.s:252    .text:0000000000000134 .LFB19
     /tmp/ccKtcltQ.s:279    .text:000000000000015c .LFE19
     /tmp/ccKtcltQ.s:2193   .debug_loc:000000000000002c .LLST11
     /tmp/ccKtcltQ.s:267    .text:000000000000014c .LVL21
     /tmp/ccKtcltQ.s:220    .text:000000000000010c .LFB18
     /tmp/ccKtcltQ.s:246    .text:0000000000000134 .LFE18
     /tmp/ccKtcltQ.s:2207   .debug_loc:0000000000000065 .LLST10
     /tmp/ccKtcltQ.s:235    .text:0000000000000124 .LVL19
     /tmp/ccKtcltQ.s:193    .text:00000000000000f0 .LFB17
     /tmp/ccKtcltQ.s:214    .text:000000000000010c .LFE17
     /tmp/ccKtcltQ.s:2221   .debug_loc:000000000000009e .LLST9
     /tmp/ccKtcltQ.s:115    .text:0000000000000084 .LFB16
     /tmp/ccKtcltQ.s:187    .text:00000000000000f0 .LFE16
     /tmp/ccKtcltQ.s:2235   .debug_loc:00000000000000d7 .LLST3
     /tmp/ccKtcltQ.s:132    .text:000000000000009c .LBB22
     /tmp/ccKtcltQ.s:2348   .debug_ranges:0000000000000000 .Ldebug_ranges0
     /tmp/ccKtcltQ.s:2257   .debug_loc:0000000000000136 .LLST4
     /tmp/ccKtcltQ.s:2272   .debug_loc:000000000000017f .LLST5
     /tmp/ccKtcltQ.s:139    .text:00000000000000a8 .LBB24
     /tmp/ccKtcltQ.s:146    .text:00000000000000b0 .LBE24
     /tmp/ccKtcltQ.s:2287   .debug_loc:00000000000001c7 .LLST6
     /tmp/ccKtcltQ.s:2295   .debug_loc:00000000000001eb .LLST7
     /tmp/ccKtcltQ.s:2302   .debug_loc:000000000000020e .LLST8
     /tmp/ccKtcltQ.s:138    .text:00000000000000a8 .LVL10
     /tmp/ccKtcltQ.s:59     .text:0000000000000040 .LFB15
     /tmp/ccKtcltQ.s:109    .text:0000000000000084 .LFE15
     /tmp/ccKtcltQ.s:70     .text:000000000000004c .LBB18
     /tmp/ccKtcltQ.s:2309   .debug_loc:0000000000000231 .LLST1
     /tmp/ccKtcltQ.s:2324   .debug_loc:0000000000000279 .LLST2
     /tmp/ccKtcltQ.s:2492   .debug_str:0000000000000496 .LASF84
     /tmp/ccKtcltQ.s:37     .text:000000000000002c .LVL1
     /tmp/ccKtcltQ.s:46     .text:000000000000003c .LVL2
     /tmp/ccKtcltQ.s:255    .text:0000000000000134 .LVL20
     /tmp/ccKtcltQ.s:223    .text:000000000000010c .LVL18
     /tmp/ccKtcltQ.s:196    .text:00000000000000f0 .LVL16
     /tmp/ccKtcltQ.s:206    .text:0000000000000100 .LVL17
     /tmp/ccKtcltQ.s:118    .text:0000000000000084 .LVL7
     /tmp/ccKtcltQ.s:136    .text:00000000000000a0 .LVL9
     /tmp/ccKtcltQ.s:168    .text:00000000000000d4 .LVL13
     /tmp/ccKtcltQ.s:172    .text:00000000000000dc .LVL14
     /tmp/ccKtcltQ.s:131    .text:000000000000009c .LVL8
     /tmp/ccKtcltQ.s:155    .text:00000000000000c8 .LVL12
     /tmp/ccKtcltQ.s:181    .text:00000000000000ec .LVL15
     /tmp/ccKtcltQ.s:144    .text:00000000000000b0 .LVL11
     /tmp/ccKtcltQ.s:69     .text:000000000000004c .LVL3
     /tmp/ccKtcltQ.s:86     .text:000000000000006c .LVL5
     /tmp/ccKtcltQ.s:98     .text:0000000000000078 .LVL6
     /tmp/ccKtcltQ.s:76     .text:0000000000000058 .LVL4
     /tmp/ccKtcltQ.s:329    .debug_info:0000000000000000 .Ldebug_info0
     /tmp/ccKtcltQ.s:89     .text:000000000000006c .LBE18
     /tmp/ccKtcltQ.s:101    .text:0000000000000078 .LBB21
GAS LISTING /tmp/ccKtcltQ.s 			page 14


     /tmp/ccKtcltQ.s:107    .text:0000000000000084 .LBE21
     /tmp/ccKtcltQ.s:158    .text:00000000000000c8 .LBE22
     /tmp/ccKtcltQ.s:175    .text:00000000000000dc .LBB27
     /tmp/ccKtcltQ.s:183    .text:00000000000000ec .LBE27

UNDEFINED SYMBOLS
_Znwm
_ZN15MemoryAllocator6mallocEm
_ZN15MemoryAllocator4freeEPv
