GAS LISTING /tmp/ccDPXBA3.s 			page 1


   1              		.file	"scheduler.cpp"
   2              		.option pic
   3              		.option norelax
   4              		.text
   5              	.Ltext0:
   6              		.align	2
   8              	_Z41__static_initialization_and_destruction_0ii:
   9              	.LFB28:
  10              		.file 1 "src/scheduler.cpp"
   1:src/scheduler.cpp **** //
   2:src/scheduler.cpp **** // Created by os on 8/27/22.
   3:src/scheduler.cpp **** //
   4:src/scheduler.cpp **** 
   5:src/scheduler.cpp **** #include "../h/scheduler.hpp"
   6:src/scheduler.cpp **** 
   7:src/scheduler.cpp **** List<TCB> Scheduler::readyThreadQueue;
   8:src/scheduler.cpp **** 
   9:src/scheduler.cpp **** TCB *Scheduler::get()
  10:src/scheduler.cpp **** {
  11:src/scheduler.cpp ****     return readyThreadQueue.removeFirst();
  12:src/scheduler.cpp **** }
  13:src/scheduler.cpp **** 
  14:src/scheduler.cpp **** void Scheduler::put(TCB *tcb)
  15:src/scheduler.cpp **** {
  16:src/scheduler.cpp ****     readyThreadQueue.addLast(tcb);
  17:src/scheduler.cpp **** }
  18:src/scheduler.cpp **** 
  19:src/scheduler.cpp **** Scheduler *Scheduler::getInstance() {
  20:src/scheduler.cpp ****     return this->instance;
  21:src/scheduler.cpp **** }
  22:src/scheduler.cpp **** 
  23:src/scheduler.cpp **** void *Scheduler::operator new(size_t n) {
  24:src/scheduler.cpp ****     return MemoryAllocator::malloc(n);
  25:src/scheduler.cpp **** }
  26:src/scheduler.cpp **** 
  27:src/scheduler.cpp **** void Scheduler::operator delete(void *p) {
  28:src/scheduler.cpp ****     MemoryAllocator::free(p);
  29:src/scheduler.cpp ****     return;
  30:src/scheduler.cpp **** }
  11              		.loc 1 30 1
  12              		.cfi_startproc
  13              	.LVL0:
  14 0000 130101FF 		addi	sp,sp,-16
  15              		.cfi_def_cfa_offset 16
  16 0004 23348100 		sd	s0,8(sp)
  17              		.cfi_offset 8, -8
  18 0008 13040101 		addi	s0,sp,16
  19              		.cfi_def_cfa 8, 0
  20              		.loc 1 30 1 is_stmt 0
  21 000c 93071000 		li	a5,1
  22 0010 6308F500 		beq	a0,a5,.L4
  23              	.L1:
  24 0014 03348100 		ld	s0,8(sp)
  25              		.cfi_remember_state
  26              		.cfi_restore 8
  27              		.cfi_def_cfa 2, 16
  28 0018 13010101 		addi	sp,sp,16
GAS LISTING /tmp/ccDPXBA3.s 			page 2


  29              		.cfi_def_cfa_offset 0
  30 001c 67800000 		jr	ra
  31              	.L4:
  32              		.cfi_restore_state
  33              		.loc 1 30 1 discriminator 1
  34 0020 B7070100 		li	a5,65536
  35 0024 9387F7FF 		addi	a5,a5,-1
  36 0028 E396F5FE 		bne	a1,a5,.L1
  37              	.LVL1:
  38              	.LBB15:
  39              	.LBB16:
  40              	.LBB17:
  41              		.file 2 "src/../h/list.hpp"
   1:src/../h/list.hpp **** //
   2:src/../h/list.hpp **** // Created by os on 8/27/22.
   3:src/../h/list.hpp **** //
   4:src/../h/list.hpp **** 
   5:src/../h/list.hpp **** #ifndef PROJECT_BASE_LIST_HPP
   6:src/../h/list.hpp **** #define PROJECT_BASE_LIST_HPP
   7:src/../h/list.hpp **** 
   8:src/../h/list.hpp **** #include "../lib/mem.h"
   9:src/../h/list.hpp **** #include "MemoryAllocator.hpp"
  10:src/../h/list.hpp **** 
  11:src/../h/list.hpp **** template<typename T>
  12:src/../h/list.hpp **** class List
  13:src/../h/list.hpp **** {
  14:src/../h/list.hpp **** private:
  15:src/../h/list.hpp ****     struct Elem
  16:src/../h/list.hpp ****     {
  17:src/../h/list.hpp ****         T *data;
  18:src/../h/list.hpp ****         Elem *next;
  19:src/../h/list.hpp **** 
  20:src/../h/list.hpp ****         Elem(T *data, Elem *next) : data(data), next(next) {}
  21:src/../h/list.hpp ****     };
  22:src/../h/list.hpp **** 
  23:src/../h/list.hpp ****     Elem *head, *tail;
  24:src/../h/list.hpp **** 
  25:src/../h/list.hpp **** public:
  26:src/../h/list.hpp ****     List() : head(0), tail(0) {}
  42              		.loc 2 26 29
  43 002c 97070000 		lla	a5,.LANCHOR0
  43      93870700 
  44 0034 23B00700 		sd	zero,0(a5)
  45 0038 23B40700 		sd	zero,8(a5)
  46              	.LVL2:
  47              	.LBE17:
  48              	.LBE16:
  49              	.LBE15:
  50              		.loc 1 30 1
  51 003c 6FF09FFD 		j	.L1
  52              		.cfi_endproc
  53              	.LFE28:
  55              		.align	2
  56              		.globl	_ZN9Scheduler3getEv
  58              	_ZN9Scheduler3getEv:
  59              	.LFB15:
  10:src/scheduler.cpp ****     return readyThreadQueue.removeFirst();
GAS LISTING /tmp/ccDPXBA3.s 			page 3


  60              		.loc 1 10 1 is_stmt 1
  61              		.cfi_startproc
  62 0040 130101FE 		addi	sp,sp,-32
  63              		.cfi_def_cfa_offset 32
  64 0044 233C1100 		sd	ra,24(sp)
  65 0048 23388100 		sd	s0,16(sp)
  66 004c 23349100 		sd	s1,8(sp)
  67              		.cfi_offset 1, -8
  68              		.cfi_offset 8, -16
  69              		.cfi_offset 9, -24
  70 0050 13040102 		addi	s0,sp,32
  71              		.cfi_def_cfa 8, 0
  11:src/scheduler.cpp **** }
  72              		.loc 1 11 5
  73              	.LVL3:
  74              	.LBB18:
  75              	.LBB19:
  27:src/../h/list.hpp **** 
  28:src/../h/list.hpp ****     List(const List<T> &) = delete;
  29:src/../h/list.hpp **** 
  30:src/../h/list.hpp ****     List<T> &operator=(const List<T> &) = delete;
  31:src/../h/list.hpp ****     static void* operator new (size_t n);
  32:src/../h/list.hpp ****     static void operator delete (void* p);
  33:src/../h/list.hpp **** 
  34:src/../h/list.hpp ****     void addFirst(T *data)
  35:src/../h/list.hpp ****     {
  36:src/../h/list.hpp ****         Elem *elem = new Elem(data, head);
  37:src/../h/list.hpp ****         head = elem;
  38:src/../h/list.hpp ****         if (!tail) { tail = head; }
  39:src/../h/list.hpp ****     }
  40:src/../h/list.hpp **** 
  41:src/../h/list.hpp ****     void addLast(T *data)
  42:src/../h/list.hpp ****     {
  43:src/../h/list.hpp ****         Elem *elem = new Elem(data, 0);
  44:src/../h/list.hpp ****         if (tail)
  45:src/../h/list.hpp ****         {
  46:src/../h/list.hpp ****             tail->next = elem;
  47:src/../h/list.hpp ****             tail = elem;
  48:src/../h/list.hpp ****         } else
  49:src/../h/list.hpp ****         {
  50:src/../h/list.hpp ****             head = tail = elem;
  51:src/../h/list.hpp ****         }
  52:src/../h/list.hpp ****     }
  53:src/../h/list.hpp **** 
  54:src/../h/list.hpp ****     T *removeFirst()
  55:src/../h/list.hpp ****     {
  56:src/../h/list.hpp ****         if (!head) { return 0; }
  76              		.loc 2 56 14 is_stmt 0
  77 0054 17050000 		ld	a0,.LANCHOR0
  77      03350500 
  78              		.loc 2 56 9
  79 005c 63020504 		beqz	a0,.L8
  80              	.LVL4:
  57:src/../h/list.hpp **** 
  58:src/../h/list.hpp ****         Elem *elem = head;
  59:src/../h/list.hpp ****         head = head->next;
  81              		.loc 2 59 22
GAS LISTING /tmp/ccDPXBA3.s 			page 4


  82 0060 83378500 		ld	a5,8(a0)
  83              		.loc 2 59 9
  84 0064 17070000 		sd	a5,.LANCHOR0,a4
  84      2330F700 
  60:src/../h/list.hpp ****         if (!head) { tail = 0; }
  85              		.loc 2 60 9
  86 006c 63840702 		beqz	a5,.L10
  87              	.L7:
  61:src/../h/list.hpp **** 
  62:src/../h/list.hpp ****         T *ret = elem->data;
  88              		.loc 2 62 12
  89 0070 83340500 		ld	s1,0(a0)
  90              	.LVL5:
  63:src/../h/list.hpp ****         delete elem;
  91              		.loc 2 63 9
  92 0074 97000000 		call	_ZdlPv@plt
  92      E7800000 
  93              	.LVL6:
  94              	.L5:
  95              	.LBE19:
  96              	.LBE18:
  12:src/scheduler.cpp **** 
  97              		.loc 1 12 1
  98 007c 13850400 		mv	a0,s1
  99 0080 83308101 		ld	ra,24(sp)
 100              		.cfi_remember_state
 101              		.cfi_restore 1
 102 0084 03340101 		ld	s0,16(sp)
 103              		.cfi_restore 8
 104              		.cfi_def_cfa 2, 32
 105 0088 83348100 		ld	s1,8(sp)
 106              		.cfi_restore 9
 107 008c 13010102 		addi	sp,sp,32
 108              		.cfi_def_cfa_offset 0
 109 0090 67800000 		jr	ra
 110              	.LVL7:
 111              	.L10:
 112              		.cfi_restore_state
 113              	.LBB21:
 114              	.LBB20:
  60:src/../h/list.hpp **** 
 115              		.loc 2 60 22
 116 0094 97070000 		sd	zero,.LANCHOR0+8,a5
 116      23B00700 
 117 009c 6FF05FFD 		j	.L7
 118              	.LVL8:
 119              	.L8:
  56:src/../h/list.hpp **** 
 120              		.loc 2 56 29
 121 00a0 93040500 		mv	s1,a0
 122              	.LVL9:
 123              	.LBE20:
 124              	.LBE21:
  11:src/scheduler.cpp **** }
 125              		.loc 1 11 41
 126 00a4 6FF09FFD 		j	.L5
 127              		.cfi_endproc
GAS LISTING /tmp/ccDPXBA3.s 			page 5


 128              	.LFE15:
 130              		.align	2
 131              		.globl	_ZN9Scheduler3putEP3TCB
 133              	_ZN9Scheduler3putEP3TCB:
 134              	.LFB16:
  15:src/scheduler.cpp ****     readyThreadQueue.addLast(tcb);
 135              		.loc 1 15 1 is_stmt 1
 136              		.cfi_startproc
 137              	.LVL10:
 138 00a8 130101FE 		addi	sp,sp,-32
 139              		.cfi_def_cfa_offset 32
 140 00ac 233C1100 		sd	ra,24(sp)
 141 00b0 23388100 		sd	s0,16(sp)
 142 00b4 23349100 		sd	s1,8(sp)
 143              		.cfi_offset 1, -8
 144              		.cfi_offset 8, -16
 145              		.cfi_offset 9, -24
 146 00b8 13040102 		addi	s0,sp,32
 147              		.cfi_def_cfa 8, 0
 148 00bc 93040500 		mv	s1,a0
  16:src/scheduler.cpp **** }
 149              		.loc 1 16 5
 150              	.LVL11:
 151              	.LBB22:
 152              	.LBB23:
  43:src/../h/list.hpp ****         if (tail)
 153              		.loc 2 43 22 is_stmt 0
 154 00c0 13050001 		li	a0,16
 155              	.LVL12:
 156 00c4 97000000 		call	_Znwm@plt
 156      E7800000 
 157              	.LVL13:
 158              	.LBB24:
 159              	.LBB25:
  20:src/../h/list.hpp ****     };
 160              		.loc 2 20 58
 161 00cc 23309500 		sd	s1,0(a0)
 162 00d0 23340500 		sd	zero,8(a0)
 163              	.LVL14:
 164              	.LBE25:
 165              	.LBE24:
  44:src/../h/list.hpp ****         {
 166              		.loc 2 44 13
 167 00d4 97070000 		ld	a5,.LANCHOR0+8
 167      83B70700 
  44:src/../h/list.hpp ****         {
 168              		.loc 2 44 9
 169 00dc 63820702 		beqz	a5,.L12
  46:src/../h/list.hpp ****             tail = elem;
 170              		.loc 2 46 13
 171 00e0 23B4A700 		sd	a0,8(a5)
  47:src/../h/list.hpp ****         } else
 172              		.loc 2 47 13
 173 00e4 97070000 		sd	a0,.LANCHOR0+8,a5
 173      23B0A700 
 174              	.LVL15:
 175              	.L11:
GAS LISTING /tmp/ccDPXBA3.s 			page 6


 176              	.LBE23:
 177              	.LBE22:
  17:src/scheduler.cpp **** 
 178              		.loc 1 17 1
 179 00ec 83308101 		ld	ra,24(sp)
 180              		.cfi_remember_state
 181              		.cfi_restore 1
 182 00f0 03340101 		ld	s0,16(sp)
 183              		.cfi_restore 8
 184              		.cfi_def_cfa 2, 32
 185 00f4 83348100 		ld	s1,8(sp)
 186              		.cfi_restore 9
 187              	.LVL16:
 188 00f8 13010102 		addi	sp,sp,32
 189              		.cfi_def_cfa_offset 0
 190 00fc 67800000 		jr	ra
 191              	.LVL17:
 192              	.L12:
 193              		.cfi_restore_state
 194              	.LBB27:
 195              	.LBB26:
  50:src/../h/list.hpp ****         }
 196              		.loc 2 50 13
 197 0100 97070000 		lla	a5,.LANCHOR0
 197      93870700 
 198 0108 23B4A700 		sd	a0,8(a5)
 199 010c 23B0A700 		sd	a0,0(a5)
 200              	.LVL18:
 201              	.LBE26:
 202              	.LBE27:
  17:src/scheduler.cpp **** 
 203              		.loc 1 17 1
 204 0110 6FF0DFFD 		j	.L11
 205              		.cfi_endproc
 206              	.LFE16:
 208              		.align	2
 209              		.globl	_ZN9Scheduler11getInstanceEv
 211              	_ZN9Scheduler11getInstanceEv:
 212              	.LFB17:
  19:src/scheduler.cpp ****     return this->instance;
 213              		.loc 1 19 37 is_stmt 1
 214              		.cfi_startproc
 215              	.LVL19:
 216 0114 130101FF 		addi	sp,sp,-16
 217              		.cfi_def_cfa_offset 16
 218 0118 23348100 		sd	s0,8(sp)
 219              		.cfi_offset 8, -8
 220 011c 13040101 		addi	s0,sp,16
 221              		.cfi_def_cfa 8, 0
  20:src/scheduler.cpp **** }
 222              		.loc 1 20 5
  21:src/scheduler.cpp **** 
 223              		.loc 1 21 1 is_stmt 0
 224 0120 03350500 		ld	a0,0(a0)
 225              	.LVL20:
 226 0124 03348100 		ld	s0,8(sp)
 227              		.cfi_restore 8
GAS LISTING /tmp/ccDPXBA3.s 			page 7


 228              		.cfi_def_cfa 2, 16
 229 0128 13010101 		addi	sp,sp,16
 230              		.cfi_def_cfa_offset 0
 231 012c 67800000 		jr	ra
 232              		.cfi_endproc
 233              	.LFE17:
 235              		.align	2
 236              		.globl	_ZN9SchedulernwEm
 238              	_ZN9SchedulernwEm:
 239              	.LFB18:
  23:src/scheduler.cpp ****     return MemoryAllocator::malloc(n);
 240              		.loc 1 23 41 is_stmt 1
 241              		.cfi_startproc
 242              	.LVL21:
 243 0130 130101FF 		addi	sp,sp,-16
 244              		.cfi_def_cfa_offset 16
 245 0134 23341100 		sd	ra,8(sp)
 246 0138 23308100 		sd	s0,0(sp)
 247              		.cfi_offset 1, -8
 248              		.cfi_offset 8, -16
 249 013c 13040101 		addi	s0,sp,16
 250              		.cfi_def_cfa 8, 0
  24:src/scheduler.cpp **** }
 251              		.loc 1 24 5
  24:src/scheduler.cpp **** }
 252              		.loc 1 24 35 is_stmt 0
 253 0140 97000000 		call	_ZN15MemoryAllocator6mallocEm@plt
 253      E7800000 
 254              	.LVL22:
  25:src/scheduler.cpp **** 
 255              		.loc 1 25 1
 256 0148 83308100 		ld	ra,8(sp)
 257              		.cfi_restore 1
 258 014c 03340100 		ld	s0,0(sp)
 259              		.cfi_restore 8
 260              		.cfi_def_cfa 2, 16
 261 0150 13010101 		addi	sp,sp,16
 262              		.cfi_def_cfa_offset 0
 263 0154 67800000 		jr	ra
 264              		.cfi_endproc
 265              	.LFE18:
 267              		.align	2
 268              		.globl	_ZN9SchedulerdlEPv
 270              	_ZN9SchedulerdlEPv:
 271              	.LFB19:
  27:src/scheduler.cpp ****     MemoryAllocator::free(p);
 272              		.loc 1 27 42 is_stmt 1
 273              		.cfi_startproc
 274              	.LVL23:
 275 0158 130101FF 		addi	sp,sp,-16
 276              		.cfi_def_cfa_offset 16
 277 015c 23341100 		sd	ra,8(sp)
 278 0160 23308100 		sd	s0,0(sp)
 279              		.cfi_offset 1, -8
 280              		.cfi_offset 8, -16
 281 0164 13040101 		addi	s0,sp,16
 282              		.cfi_def_cfa 8, 0
GAS LISTING /tmp/ccDPXBA3.s 			page 8


  28:src/scheduler.cpp ****     return;
 283              		.loc 1 28 5
  28:src/scheduler.cpp ****     return;
 284              		.loc 1 28 26 is_stmt 0
 285 0168 97000000 		call	_ZN15MemoryAllocator4freeEPv@plt
 285      E7800000 
 286              	.LVL24:
  29:src/scheduler.cpp **** }
 287              		.loc 1 29 5 is_stmt 1
 288              		.loc 1 30 1 is_stmt 0
 289 0170 83308100 		ld	ra,8(sp)
 290              		.cfi_restore 1
 291 0174 03340100 		ld	s0,0(sp)
 292              		.cfi_restore 8
 293              		.cfi_def_cfa 2, 16
 294 0178 13010101 		addi	sp,sp,16
 295              		.cfi_def_cfa_offset 0
 296 017c 67800000 		jr	ra
 297              		.cfi_endproc
 298              	.LFE19:
 300              		.align	2
 302              	_GLOBAL__sub_I__ZN9Scheduler16readyThreadQueueE:
 303              	.LFB29:
 304              		.loc 1 30 1 is_stmt 1
 305              		.cfi_startproc
 306 0180 130101FF 		addi	sp,sp,-16
 307              		.cfi_def_cfa_offset 16
 308 0184 23341100 		sd	ra,8(sp)
 309 0188 23308100 		sd	s0,0(sp)
 310              		.cfi_offset 1, -8
 311              		.cfi_offset 8, -16
 312 018c 13040101 		addi	s0,sp,16
 313              		.cfi_def_cfa 8, 0
 314              		.loc 1 30 1 is_stmt 0
 315 0190 B7050100 		li	a1,65536
 316 0194 9385F5FF 		addi	a1,a1,-1
 317 0198 13051000 		li	a0,1
 318 019c 97000000 		call	_Z41__static_initialization_and_destruction_0ii
 318      E7800000 
 319              	.LVL25:
 320 01a4 83308100 		ld	ra,8(sp)
 321              		.cfi_restore 1
 322 01a8 03340100 		ld	s0,0(sp)
 323              		.cfi_restore 8
 324              		.cfi_def_cfa 2, 16
 325 01ac 13010101 		addi	sp,sp,16
 326              		.cfi_def_cfa_offset 0
 327 01b0 67800000 		jr	ra
 328              		.cfi_endproc
 329              	.LFE29:
 331              		.section	.init_array,"aw"
 332              		.align	3
 333 0000 00000000 		.dword	_GLOBAL__sub_I__ZN9Scheduler16readyThreadQueueE
 333      00000000 
 334              		.globl	_ZN9Scheduler16readyThreadQueueE
 335              		.bss
 336              		.align	3
GAS LISTING /tmp/ccDPXBA3.s 			page 9


 337              		.set	.LANCHOR0,. + 0
 340              	_ZN9Scheduler16readyThreadQueueE:
 341 0000 00000000 		.zero	16
 341      00000000 
 341      00000000 
 341      00000000 
 342              		.text
 343              	.Letext0:
 344              		.file 3 "src/../h/../lib/hw.h"
 345              		.file 4 "src/../h/MemoryAllocator.hpp"
 346              		.file 5 "src/../h/scheduler.hpp"
GAS LISTING /tmp/ccDPXBA3.s 			page 10


DEFINED SYMBOLS
                            *ABS*:0000000000000000 scheduler.cpp
     /tmp/ccDPXBA3.s:8      .text:0000000000000000 _Z41__static_initialization_and_destruction_0ii
     /tmp/ccDPXBA3.s:12     .text:0000000000000000 .L0 
     /tmp/ccDPXBA3.s:14     .text:0000000000000000 .L0 
     /tmp/ccDPXBA3.s:15     .text:0000000000000004 .L0 
     /tmp/ccDPXBA3.s:17     .text:0000000000000008 .L0 
     /tmp/ccDPXBA3.s:19     .text:000000000000000c .L0 
     /tmp/ccDPXBA3.s:21     .text:000000000000000c .L0 
     /tmp/ccDPXBA3.s:25     .text:0000000000000018 .L0 
     /tmp/ccDPXBA3.s:26     .text:0000000000000018 .L0 
     /tmp/ccDPXBA3.s:27     .text:0000000000000018 .L0 
     /tmp/ccDPXBA3.s:29     .text:000000000000001c .L0 
     /tmp/ccDPXBA3.s:32     .text:0000000000000020 .L0 
     /tmp/ccDPXBA3.s:34     .text:0000000000000020 .L0 
     /tmp/ccDPXBA3.s:43     .text:000000000000002c .L0 
     /tmp/ccDPXBA3.s:51     .text:000000000000003c .L0 
     /tmp/ccDPXBA3.s:52     .text:0000000000000040 .L0 
     /tmp/ccDPXBA3.s:58     .text:0000000000000040 _ZN9Scheduler3getEv
     /tmp/ccDPXBA3.s:61     .text:0000000000000040 .L0 
     /tmp/ccDPXBA3.s:62     .text:0000000000000040 .L0 
     /tmp/ccDPXBA3.s:63     .text:0000000000000044 .L0 
     /tmp/ccDPXBA3.s:67     .text:0000000000000050 .L0 
     /tmp/ccDPXBA3.s:68     .text:0000000000000050 .L0 
     /tmp/ccDPXBA3.s:69     .text:0000000000000050 .L0 
     /tmp/ccDPXBA3.s:71     .text:0000000000000054 .L0 
     /tmp/ccDPXBA3.s:76     .text:0000000000000054 .L0 
     /tmp/ccDPXBA3.s:77     .text:0000000000000054 .L0 
     /tmp/ccDPXBA3.s:79     .text:000000000000005c .L0 
     /tmp/ccDPXBA3.s:82     .text:0000000000000060 .L0 
     /tmp/ccDPXBA3.s:84     .text:0000000000000064 .L0 
     /tmp/ccDPXBA3.s:86     .text:000000000000006c .L0 
     /tmp/ccDPXBA3.s:89     .text:0000000000000070 .L0 
     /tmp/ccDPXBA3.s:92     .text:0000000000000074 .L0 
     /tmp/ccDPXBA3.s:98     .text:000000000000007c .L0 
     /tmp/ccDPXBA3.s:100    .text:0000000000000084 .L0 
     /tmp/ccDPXBA3.s:101    .text:0000000000000084 .L0 
     /tmp/ccDPXBA3.s:103    .text:0000000000000088 .L0 
     /tmp/ccDPXBA3.s:104    .text:0000000000000088 .L0 
     /tmp/ccDPXBA3.s:106    .text:000000000000008c .L0 
     /tmp/ccDPXBA3.s:108    .text:0000000000000090 .L0 
     /tmp/ccDPXBA3.s:112    .text:0000000000000094 .L0 
     /tmp/ccDPXBA3.s:116    .text:0000000000000094 .L0 
     /tmp/ccDPXBA3.s:121    .text:00000000000000a0 .L0 
     /tmp/ccDPXBA3.s:126    .text:00000000000000a4 .L0 
     /tmp/ccDPXBA3.s:127    .text:00000000000000a8 .L0 
     /tmp/ccDPXBA3.s:133    .text:00000000000000a8 _ZN9Scheduler3putEP3TCB
     /tmp/ccDPXBA3.s:136    .text:00000000000000a8 .L0 
     /tmp/ccDPXBA3.s:138    .text:00000000000000a8 .L0 
     /tmp/ccDPXBA3.s:139    .text:00000000000000ac .L0 
     /tmp/ccDPXBA3.s:143    .text:00000000000000b8 .L0 
     /tmp/ccDPXBA3.s:144    .text:00000000000000b8 .L0 
     /tmp/ccDPXBA3.s:145    .text:00000000000000b8 .L0 
     /tmp/ccDPXBA3.s:147    .text:00000000000000bc .L0 
     /tmp/ccDPXBA3.s:153    .text:00000000000000c0 .L0 
     /tmp/ccDPXBA3.s:154    .text:00000000000000c0 .L0 
     /tmp/ccDPXBA3.s:161    .text:00000000000000cc .L0 
GAS LISTING /tmp/ccDPXBA3.s 			page 11


     /tmp/ccDPXBA3.s:167    .text:00000000000000d4 .L0 
     /tmp/ccDPXBA3.s:169    .text:00000000000000dc .L0 
     /tmp/ccDPXBA3.s:171    .text:00000000000000e0 .L0 
     /tmp/ccDPXBA3.s:173    .text:00000000000000e4 .L0 
     /tmp/ccDPXBA3.s:179    .text:00000000000000ec .L0 
     /tmp/ccDPXBA3.s:180    .text:00000000000000f0 .L0 
     /tmp/ccDPXBA3.s:181    .text:00000000000000f0 .L0 
     /tmp/ccDPXBA3.s:183    .text:00000000000000f4 .L0 
     /tmp/ccDPXBA3.s:184    .text:00000000000000f4 .L0 
     /tmp/ccDPXBA3.s:186    .text:00000000000000f8 .L0 
     /tmp/ccDPXBA3.s:189    .text:00000000000000fc .L0 
     /tmp/ccDPXBA3.s:193    .text:0000000000000100 .L0 
     /tmp/ccDPXBA3.s:197    .text:0000000000000100 .L0 
     /tmp/ccDPXBA3.s:204    .text:0000000000000110 .L0 
     /tmp/ccDPXBA3.s:205    .text:0000000000000114 .L0 
     /tmp/ccDPXBA3.s:211    .text:0000000000000114 _ZN9Scheduler11getInstanceEv
     /tmp/ccDPXBA3.s:214    .text:0000000000000114 .L0 
     /tmp/ccDPXBA3.s:216    .text:0000000000000114 .L0 
     /tmp/ccDPXBA3.s:217    .text:0000000000000118 .L0 
     /tmp/ccDPXBA3.s:219    .text:000000000000011c .L0 
     /tmp/ccDPXBA3.s:221    .text:0000000000000120 .L0 
     /tmp/ccDPXBA3.s:223    .text:0000000000000120 .L0 
     /tmp/ccDPXBA3.s:224    .text:0000000000000120 .L0 
     /tmp/ccDPXBA3.s:227    .text:0000000000000128 .L0 
     /tmp/ccDPXBA3.s:228    .text:0000000000000128 .L0 
     /tmp/ccDPXBA3.s:230    .text:000000000000012c .L0 
     /tmp/ccDPXBA3.s:232    .text:0000000000000130 .L0 
     /tmp/ccDPXBA3.s:238    .text:0000000000000130 _ZN9SchedulernwEm
     /tmp/ccDPXBA3.s:241    .text:0000000000000130 .L0 
     /tmp/ccDPXBA3.s:243    .text:0000000000000130 .L0 
     /tmp/ccDPXBA3.s:244    .text:0000000000000134 .L0 
     /tmp/ccDPXBA3.s:247    .text:000000000000013c .L0 
     /tmp/ccDPXBA3.s:248    .text:000000000000013c .L0 
     /tmp/ccDPXBA3.s:250    .text:0000000000000140 .L0 
     /tmp/ccDPXBA3.s:252    .text:0000000000000140 .L0 
     /tmp/ccDPXBA3.s:253    .text:0000000000000140 .L0 
     /tmp/ccDPXBA3.s:256    .text:0000000000000148 .L0 
     /tmp/ccDPXBA3.s:257    .text:000000000000014c .L0 
     /tmp/ccDPXBA3.s:259    .text:0000000000000150 .L0 
     /tmp/ccDPXBA3.s:260    .text:0000000000000150 .L0 
     /tmp/ccDPXBA3.s:262    .text:0000000000000154 .L0 
     /tmp/ccDPXBA3.s:264    .text:0000000000000158 .L0 
     /tmp/ccDPXBA3.s:270    .text:0000000000000158 _ZN9SchedulerdlEPv
     /tmp/ccDPXBA3.s:273    .text:0000000000000158 .L0 
     /tmp/ccDPXBA3.s:275    .text:0000000000000158 .L0 
     /tmp/ccDPXBA3.s:276    .text:000000000000015c .L0 
     /tmp/ccDPXBA3.s:279    .text:0000000000000164 .L0 
     /tmp/ccDPXBA3.s:280    .text:0000000000000164 .L0 
     /tmp/ccDPXBA3.s:282    .text:0000000000000168 .L0 
     /tmp/ccDPXBA3.s:284    .text:0000000000000168 .L0 
     /tmp/ccDPXBA3.s:285    .text:0000000000000168 .L0 
     /tmp/ccDPXBA3.s:288    .text:0000000000000170 .L0 
     /tmp/ccDPXBA3.s:289    .text:0000000000000170 .L0 
     /tmp/ccDPXBA3.s:290    .text:0000000000000174 .L0 
     /tmp/ccDPXBA3.s:292    .text:0000000000000178 .L0 
     /tmp/ccDPXBA3.s:293    .text:0000000000000178 .L0 
     /tmp/ccDPXBA3.s:295    .text:000000000000017c .L0 
GAS LISTING /tmp/ccDPXBA3.s 			page 12


     /tmp/ccDPXBA3.s:297    .text:0000000000000180 .L0 
     /tmp/ccDPXBA3.s:302    .text:0000000000000180 _GLOBAL__sub_I__ZN9Scheduler16readyThreadQueueE
     /tmp/ccDPXBA3.s:305    .text:0000000000000180 .L0 
     /tmp/ccDPXBA3.s:306    .text:0000000000000180 .L0 
     /tmp/ccDPXBA3.s:307    .text:0000000000000184 .L0 
     /tmp/ccDPXBA3.s:310    .text:000000000000018c .L0 
     /tmp/ccDPXBA3.s:311    .text:000000000000018c .L0 
     /tmp/ccDPXBA3.s:313    .text:0000000000000190 .L0 
     /tmp/ccDPXBA3.s:315    .text:0000000000000190 .L0 
     /tmp/ccDPXBA3.s:321    .text:00000000000001a8 .L0 
     /tmp/ccDPXBA3.s:323    .text:00000000000001ac .L0 
     /tmp/ccDPXBA3.s:324    .text:00000000000001ac .L0 
     /tmp/ccDPXBA3.s:326    .text:00000000000001b0 .L0 
     /tmp/ccDPXBA3.s:328    .text:00000000000001b4 .L0 
     /tmp/ccDPXBA3.s:340    .bss:0000000000000000 _ZN9Scheduler16readyThreadQueueE
     /tmp/ccDPXBA3.s:337    .bss:0000000000000000 .LANCHOR0
     /tmp/ccDPXBA3.s:347    .text:00000000000001b4 .L0 
     /tmp/ccDPXBA3.s:43     .text:000000000000002c .L0 
     /tmp/ccDPXBA3.s:77     .text:0000000000000054 .L0 
     /tmp/ccDPXBA3.s:84     .text:0000000000000064 .L0 
     /tmp/ccDPXBA3.s:116    .text:0000000000000094 .L0 
     /tmp/ccDPXBA3.s:167    .text:00000000000000d4 .L0 
     /tmp/ccDPXBA3.s:173    .text:00000000000000e4 .L0 
     /tmp/ccDPXBA3.s:197    .text:0000000000000100 .L0 
     /tmp/ccDPXBA3.s:31     .text:0000000000000020 .L4
     /tmp/ccDPXBA3.s:23     .text:0000000000000014 .L1
     /tmp/ccDPXBA3.s:119    .text:00000000000000a0 .L8
     /tmp/ccDPXBA3.s:111    .text:0000000000000094 .L10
     /tmp/ccDPXBA3.s:87     .text:0000000000000070 .L7
     /tmp/ccDPXBA3.s:94     .text:000000000000007c .L5
     /tmp/ccDPXBA3.s:192    .text:0000000000000100 .L12
     /tmp/ccDPXBA3.s:175    .text:00000000000000ec .L11
     /tmp/ccDPXBA3.s:1253   .debug_abbrev:0000000000000000 .Ldebug_abbrev0
     /tmp/ccDPXBA3.s:2546   .debug_str:00000000000004ec .LASF75
     /tmp/ccDPXBA3.s:2566   .debug_str:0000000000000613 .LASF76
     /tmp/ccDPXBA3.s:2448   .debug_str:00000000000001e4 .LASF77
     /tmp/ccDPXBA3.s:5      .text:0000000000000000 .Ltext0
     /tmp/ccDPXBA3.s:343    .text:00000000000001b4 .Letext0
     /tmp/ccDPXBA3.s:2402   .debug_line:0000000000000000 .Ldebug_line0
     /tmp/ccDPXBA3.s:2496   .debug_str:0000000000000361 .LASF0
     /tmp/ccDPXBA3.s:2506   .debug_str:00000000000003b1 .LASF1
     /tmp/ccDPXBA3.s:2484   .debug_str:0000000000000306 .LASF2
     /tmp/ccDPXBA3.s:2466   .debug_str:000000000000027f .LASF4
     /tmp/ccDPXBA3.s:2534   .debug_str:000000000000049c .LASF3
     /tmp/ccDPXBA3.s:2410   .debug_str:000000000000004b .LASF5
     /tmp/ccDPXBA3.s:2508   .debug_str:00000000000003c4 .LASF6
     /tmp/ccDPXBA3.s:2494   .debug_str:000000000000034e .LASF7
     /tmp/ccDPXBA3.s:2558   .debug_str:00000000000005e1 .LASF8
     /tmp/ccDPXBA3.s:2454   .debug_str:000000000000021b .LASF9
     /tmp/ccDPXBA3.s:2514   .debug_str:00000000000003e6 .LASF10
     /tmp/ccDPXBA3.s:2552   .debug_str:00000000000005c2 .LASF11
     /tmp/ccDPXBA3.s:2414   .debug_str:0000000000000059 .LASF12
     /tmp/ccDPXBA3.s:2406   .debug_str:000000000000001e .LASF13
     /tmp/ccDPXBA3.s:2424   .debug_str:00000000000000c0 .LASF14
     /tmp/ccDPXBA3.s:2528   .debug_str:000000000000047b .LASF15
     /tmp/ccDPXBA3.s:2434   .debug_str:000000000000013e .LASF16
     /tmp/ccDPXBA3.s:2482   .debug_str:00000000000002f6 .LASF30
GAS LISTING /tmp/ccDPXBA3.s 			page 13


     /tmp/ccDPXBA3.s:2560   .debug_str:00000000000005f1 .LASF44
     /tmp/ccDPXBA3.s:2572   .debug_str:0000000000000658 .LASF17
     /tmp/ccDPXBA3.s:2564   .debug_str:000000000000060e .LASF18
     /tmp/ccDPXBA3.s:2542   .debug_str:00000000000004de .LASF19
     /tmp/ccDPXBA3.s:2468   .debug_str:0000000000000286 .LASF20
     /tmp/ccDPXBA3.s:2488   .debug_str:0000000000000320 .LASF21
     /tmp/ccDPXBA3.s:2538   .debug_str:00000000000004c0 .LASF22
     /tmp/ccDPXBA3.s:2550   .debug_str:00000000000005bc .LASF23
     /tmp/ccDPXBA3.s:2502   .debug_str:000000000000038a .LASF25
     /tmp/ccDPXBA3.s:2504   .debug_str:00000000000003a7 .LASF24
     /tmp/ccDPXBA3.s:2568   .debug_str:0000000000000625 .LASF26
     /tmp/ccDPXBA3.s:2426   .debug_str:00000000000000cc .LASF78
     /tmp/ccDPXBA3.s:2430   .debug_str:00000000000000f3 .LASF79
     /tmp/ccDPXBA3.s:2412   .debug_str:0000000000000052 .LASF32
     /tmp/ccDPXBA3.s:2516   .debug_str:00000000000003f5 .LASF34
     /tmp/ccDPXBA3.s:2446   .debug_str:00000000000001df .LASF27
     /tmp/ccDPXBA3.s:2524   .debug_str:0000000000000447 .LASF28
     /tmp/ccDPXBA3.s:2510   .debug_str:00000000000003d7 .LASF29
     /tmp/ccDPXBA3.s:2512   .debug_str:00000000000003dc .LASF31
     /tmp/ccDPXBA3.s:2562   .debug_str:0000000000000601 .LASF33
     /tmp/ccDPXBA3.s:2570   .debug_str:0000000000000646 .LASF35
     /tmp/ccDPXBA3.s:2540   .debug_str:00000000000004ce .LASF36
     /tmp/ccDPXBA3.s:2498   .debug_str:000000000000036e .LASF37
     /tmp/ccDPXBA3.s:2450   .debug_str:0000000000000202 .LASF38
     /tmp/ccDPXBA3.s:2500   .debug_str:0000000000000381 .LASF39
     /tmp/ccDPXBA3.s:2536   .debug_str:00000000000004ae .LASF40
     /tmp/ccDPXBA3.s:2460   .debug_str:0000000000000253 .LASF80
     /tmp/ccDPXBA3.s:2422   .debug_str:00000000000000a8 .LASF81
     /tmp/ccDPXBA3.s:2548   .debug_str:00000000000005b0 .LASF41
     /tmp/ccDPXBA3.s:2438   .debug_str:0000000000000159 .LASF42
     /tmp/ccDPXBA3.s:2480   .debug_str:00000000000002ec .LASF43
     /tmp/ccDPXBA3.s:2554   .debug_str:00000000000005d1 .LASF45
     /tmp/ccDPXBA3.s:2522   .debug_str:0000000000000442 .LASF46
     /tmp/ccDPXBA3.s:2490   .debug_str:0000000000000325 .LASF82
     /tmp/ccDPXBA3.s:2436   .debug_str:0000000000000154 .LASF47
     /tmp/ccDPXBA3.s:2464   .debug_str:000000000000027a .LASF48
     /tmp/ccDPXBA3.s:2456   .debug_str:0000000000000229 .LASF49
     /tmp/ccDPXBA3.s:2526   .debug_str:0000000000000464 .LASF57
     /tmp/ccDPXBA3.s:2492   .debug_str:0000000000000344 .LASF83
     /tmp/ccDPXBA3.s:2458   .debug_str:000000000000023c .LASF84
     /tmp/ccDPXBA3.s:2462   .debug_str:0000000000000267 .LASF50
     /tmp/ccDPXBA3.s:2418   .debug_str:000000000000008a .LASF51
     /tmp/ccDPXBA3.s:2544   .debug_str:00000000000004e3 .LASF52
     /tmp/ccDPXBA3.s:2444   .debug_str:00000000000001c2 .LASF53
     /tmp/ccDPXBA3.s:2452   .debug_str:0000000000000213 .LASF54
     /tmp/ccDPXBA3.s:2442   .debug_str:00000000000001a6 .LASF55
     /tmp/ccDPXBA3.s:2486   .debug_str:0000000000000314 .LASF56
     /tmp/ccDPXBA3.s:2404   .debug_str:0000000000000000 .LASF58
     /tmp/ccDPXBA3.s:2420   .debug_str:000000000000009e .LASF59
     /tmp/ccDPXBA3.s:2474   .debug_str:00000000000002b9 .LASF60
     /tmp/ccDPXBA3.s:2556   .debug_str:00000000000005d6 .LASF61
     /tmp/ccDPXBA3.s:2408   .debug_str:000000000000002e .LASF62
     /tmp/ccDPXBA3.s:2476   .debug_str:00000000000002d4 .LASF63
     /tmp/ccDPXBA3.s:2472   .debug_str:000000000000029f .LASF64
     /tmp/ccDPXBA3.s:2416   .debug_str:0000000000000069 .LASF85
     /tmp/ccDPXBA3.s:2440   .debug_str:0000000000000176 .LASF65
     /tmp/ccDPXBA3.s:303    .text:0000000000000180 .LFB29
GAS LISTING /tmp/ccDPXBA3.s 			page 14


     /tmp/ccDPXBA3.s:329    .text:00000000000001b4 .LFE29
     /tmp/ccDPXBA3.s:319    .text:00000000000001a4 .LVL25
     /tmp/ccDPXBA3.s:2518   .debug_str:0000000000000413 .LASF66
     /tmp/ccDPXBA3.s:9      .text:0000000000000000 .LFB28
     /tmp/ccDPXBA3.s:53     .text:0000000000000040 .LFE28
     /tmp/ccDPXBA3.s:2478   .debug_str:00000000000002dd .LASF67
     /tmp/ccDPXBA3.s:2470   .debug_str:0000000000000294 .LASF68
     /tmp/ccDPXBA3.s:38     .text:000000000000002c .LBB15
     /tmp/ccDPXBA3.s:49     .text:000000000000003c .LBE15
     /tmp/ccDPXBA3.s:2217   .debug_loc:0000000000000000 .LLST0
     /tmp/ccDPXBA3.s:2520   .debug_str:000000000000043d .LASF69
     /tmp/ccDPXBA3.s:2432   .debug_str:000000000000011f .LASF71
     /tmp/ccDPXBA3.s:2530   .debug_str:0000000000000491 .LASF70
     /tmp/ccDPXBA3.s:2428   .debug_str:00000000000000e0 .LASF72
     /tmp/ccDPXBA3.s:271    .text:0000000000000158 .LFB19
     /tmp/ccDPXBA3.s:298    .text:0000000000000180 .LFE19
     /tmp/ccDPXBA3.s:2226   .debug_loc:000000000000002c .LLST12
     /tmp/ccDPXBA3.s:286    .text:0000000000000170 .LVL24
     /tmp/ccDPXBA3.s:239    .text:0000000000000130 .LFB18
     /tmp/ccDPXBA3.s:265    .text:0000000000000158 .LFE18
     /tmp/ccDPXBA3.s:2240   .debug_loc:0000000000000065 .LLST11
     /tmp/ccDPXBA3.s:254    .text:0000000000000148 .LVL22
     /tmp/ccDPXBA3.s:212    .text:0000000000000114 .LFB17
     /tmp/ccDPXBA3.s:233    .text:0000000000000130 .LFE17
     /tmp/ccDPXBA3.s:2254   .debug_loc:000000000000009e .LLST10
     /tmp/ccDPXBA3.s:134    .text:00000000000000a8 .LFB16
     /tmp/ccDPXBA3.s:206    .text:0000000000000114 .LFE16
     /tmp/ccDPXBA3.s:2268   .debug_loc:00000000000000d7 .LLST4
     /tmp/ccDPXBA3.s:151    .text:00000000000000c0 .LBB22
     /tmp/ccDPXBA3.s:2388   .debug_ranges:0000000000000000 .Ldebug_ranges0
     /tmp/ccDPXBA3.s:2290   .debug_loc:0000000000000136 .LLST5
     /tmp/ccDPXBA3.s:2305   .debug_loc:000000000000017f .LLST6
     /tmp/ccDPXBA3.s:158    .text:00000000000000cc .LBB24
     /tmp/ccDPXBA3.s:165    .text:00000000000000d4 .LBE24
     /tmp/ccDPXBA3.s:2320   .debug_loc:00000000000001c7 .LLST7
     /tmp/ccDPXBA3.s:2328   .debug_loc:00000000000001eb .LLST8
     /tmp/ccDPXBA3.s:2335   .debug_loc:000000000000020e .LLST9
     /tmp/ccDPXBA3.s:157    .text:00000000000000cc .LVL13
     /tmp/ccDPXBA3.s:59     .text:0000000000000040 .LFB15
     /tmp/ccDPXBA3.s:128    .text:00000000000000a8 .LFE15
     /tmp/ccDPXBA3.s:74     .text:0000000000000054 .LBB18
     /tmp/ccDPXBA3.s:2342   .debug_loc:0000000000000231 .LLST1
     /tmp/ccDPXBA3.s:2357   .debug_loc:0000000000000279 .LLST2
     /tmp/ccDPXBA3.s:2368   .debug_loc:00000000000002af .LLST3
     /tmp/ccDPXBA3.s:93     .text:000000000000007c .LVL6
     /tmp/ccDPXBA3.s:2532   .debug_str:0000000000000496 .LASF73
     /tmp/ccDPXBA3.s:2574   .debug_str:000000000000065d .LASF74
     /tmp/ccDPXBA3.s:37     .text:000000000000002c .LVL1
     /tmp/ccDPXBA3.s:46     .text:000000000000003c .LVL2
     /tmp/ccDPXBA3.s:274    .text:0000000000000158 .LVL23
     /tmp/ccDPXBA3.s:242    .text:0000000000000130 .LVL21
     /tmp/ccDPXBA3.s:215    .text:0000000000000114 .LVL19
     /tmp/ccDPXBA3.s:225    .text:0000000000000124 .LVL20
     /tmp/ccDPXBA3.s:137    .text:00000000000000a8 .LVL10
     /tmp/ccDPXBA3.s:155    .text:00000000000000c4 .LVL12
     /tmp/ccDPXBA3.s:187    .text:00000000000000f8 .LVL16
     /tmp/ccDPXBA3.s:191    .text:0000000000000100 .LVL17
GAS LISTING /tmp/ccDPXBA3.s 			page 15


     /tmp/ccDPXBA3.s:150    .text:00000000000000c0 .LVL11
     /tmp/ccDPXBA3.s:174    .text:00000000000000ec .LVL15
     /tmp/ccDPXBA3.s:200    .text:0000000000000110 .LVL18
     /tmp/ccDPXBA3.s:163    .text:00000000000000d4 .LVL14
     /tmp/ccDPXBA3.s:73     .text:0000000000000054 .LVL3
     /tmp/ccDPXBA3.s:110    .text:0000000000000094 .LVL7
     /tmp/ccDPXBA3.s:122    .text:00000000000000a4 .LVL9
     /tmp/ccDPXBA3.s:80     .text:0000000000000060 .LVL4
     /tmp/ccDPXBA3.s:118    .text:00000000000000a0 .LVL8
     /tmp/ccDPXBA3.s:90     .text:0000000000000074 .LVL5
     /tmp/ccDPXBA3.s:348    .debug_info:0000000000000000 .Ldebug_info0
     /tmp/ccDPXBA3.s:96     .text:000000000000007c .LBE18
     /tmp/ccDPXBA3.s:113    .text:0000000000000094 .LBB21
     /tmp/ccDPXBA3.s:124    .text:00000000000000a4 .LBE21
     /tmp/ccDPXBA3.s:177    .text:00000000000000ec .LBE22
     /tmp/ccDPXBA3.s:194    .text:0000000000000100 .LBB27
     /tmp/ccDPXBA3.s:202    .text:0000000000000110 .LBE27

UNDEFINED SYMBOLS
_ZdlPv
_Znwm
_ZN15MemoryAllocator6mallocEm
_ZN15MemoryAllocator4freeEPv
