GAS LISTING /tmp/cclKgfHb.s 			page 1


   1              		.file	"scheduler.cpp"
   2              		.option pic
   3              		.option norelax
   4              		.text
   5              	.Ltext0:
   6              		.align	2
   8              	_Z41__static_initialization_and_destruction_0ii:
   9              	.LFB32:
  10              		.file 1 "src/scheduler.cpp"
   1:src/scheduler.cpp **** //
   2:src/scheduler.cpp **** // Created by os on 8/27/22.
   3:src/scheduler.cpp **** //
   4:src/scheduler.cpp **** 
   5:src/scheduler.cpp **** #include "../h/scheduler.hpp"
   6:src/scheduler.cpp **** 
   7:src/scheduler.cpp **** List<TCB> Scheduler::readyThreadQueue;
   8:src/scheduler.cpp **** 
   9:src/scheduler.cpp **** TCB *Scheduler::get()
  10:src/scheduler.cpp **** {
  11:src/scheduler.cpp ****     return readyThreadQueue.removeFirst();
  12:src/scheduler.cpp **** }
  13:src/scheduler.cpp **** 
  14:src/scheduler.cpp **** void Scheduler::put(TCB *tcb)
  15:src/scheduler.cpp **** {
  16:src/scheduler.cpp ****     readyThreadQueue.addLast(tcb);
  17:src/scheduler.cpp **** }
  18:src/scheduler.cpp **** 
  19:src/scheduler.cpp **** Scheduler *Scheduler::getInstance() {
  20:src/scheduler.cpp ****     return this->instance;
  21:src/scheduler.cpp **** }
  22:src/scheduler.cpp **** 
  23:src/scheduler.cpp **** void *Scheduler::operator new(size_t n) {
  24:src/scheduler.cpp ****     return MemoryAllocator::malloc(n);
  25:src/scheduler.cpp **** }
  26:src/scheduler.cpp **** 
  27:src/scheduler.cpp **** void Scheduler::operator delete(void *p) {
  28:src/scheduler.cpp ****     MemoryAllocator::free(p);
  29:src/scheduler.cpp ****     return;
  30:src/scheduler.cpp **** }
  31:src/scheduler.cpp **** 
  32:src/scheduler.cpp **** bool Scheduler::isEmpty() {
  33:src/scheduler.cpp ****     bool a=true;
  34:src/scheduler.cpp ****     if(readyThreadQueue.peekFirst())a=false;
  35:src/scheduler.cpp ****     return a;
  36:src/scheduler.cpp **** }
  37:src/scheduler.cpp **** 
  38:src/scheduler.cpp **** bool Scheduler::oneLeft() {
  39:src/scheduler.cpp ****     bool a=false;
  40:src/scheduler.cpp ****     TCB* t= Scheduler::get();
  41:src/scheduler.cpp ****     if(isEmpty())a=true;
  42:src/scheduler.cpp ****     Scheduler::put(t);
  43:src/scheduler.cpp ****     return a;
  44:src/scheduler.cpp **** }
  11              		.loc 1 44 1
  12              		.cfi_startproc
  13              	.LVL0:
  14 0000 130101FF 		addi	sp,sp,-16
GAS LISTING /tmp/cclKgfHb.s 			page 2


  15              		.cfi_def_cfa_offset 16
  16 0004 23348100 		sd	s0,8(sp)
  17              		.cfi_offset 8, -8
  18 0008 13040101 		addi	s0,sp,16
  19              		.cfi_def_cfa 8, 0
  20              		.loc 1 44 1 is_stmt 0
  21 000c 93071000 		li	a5,1
  22 0010 6308F500 		beq	a0,a5,.L4
  23              	.L1:
  24 0014 03348100 		ld	s0,8(sp)
  25              		.cfi_remember_state
  26              		.cfi_restore 8
  27              		.cfi_def_cfa 2, 16
  28 0018 13010101 		addi	sp,sp,16
  29              		.cfi_def_cfa_offset 0
  30 001c 67800000 		jr	ra
  31              	.L4:
  32              		.cfi_restore_state
  33              		.loc 1 44 1 discriminator 1
  34 0020 B7070100 		li	a5,65536
  35 0024 9387F7FF 		addi	a5,a5,-1
  36 0028 E396F5FE 		bne	a1,a5,.L1
  37              	.LVL1:
  38              	.LBB12:
  39              	.LBB13:
  40              	.LBB14:
  41              		.file 2 "src/../h/list.hpp"
   1:src/../h/list.hpp **** //
   2:src/../h/list.hpp **** // Created by os on 8/27/22.
   3:src/../h/list.hpp **** //
   4:src/../h/list.hpp **** 
   5:src/../h/list.hpp **** #ifndef PROJECT_BASE_LIST_HPP
   6:src/../h/list.hpp **** #define PROJECT_BASE_LIST_HPP
   7:src/../h/list.hpp **** 
   8:src/../h/list.hpp **** #include "../lib/mem.h"
   9:src/../h/list.hpp **** #include "MemoryAllocator.hpp"
  10:src/../h/list.hpp **** 
  11:src/../h/list.hpp **** template<typename T>
  12:src/../h/list.hpp **** class List
  13:src/../h/list.hpp **** {
  14:src/../h/list.hpp **** private:
  15:src/../h/list.hpp ****     struct Elem
  16:src/../h/list.hpp ****     {
  17:src/../h/list.hpp ****         T *data;
  18:src/../h/list.hpp ****         Elem *next;
  19:src/../h/list.hpp **** 
  20:src/../h/list.hpp **** 
  21:src/../h/list.hpp ****         Elem(T *data, Elem *next) : data(data), next(next) {}
  22:src/../h/list.hpp ****     };
  23:src/../h/list.hpp **** 
  24:src/../h/list.hpp ****     Elem *head, *tail;
  25:src/../h/list.hpp ****     int num;
  26:src/../h/list.hpp **** 
  27:src/../h/list.hpp **** public:
  28:src/../h/list.hpp ****     List() : head(0), tail(0), num(0){}
  42              		.loc 2 28 37
  43 002c 97070000 		lla	a5,.LANCHOR0
GAS LISTING /tmp/cclKgfHb.s 			page 3


  43      93870700 
  44 0034 23B00700 		sd	zero,0(a5)
  45 0038 23B40700 		sd	zero,8(a5)
  46 003c 23A80700 		sw	zero,16(a5)
  47              	.LVL2:
  48              	.LBE14:
  49              	.LBE13:
  50              	.LBE12:
  51              		.loc 1 44 1
  52 0040 6FF05FFD 		j	.L1
  53              		.cfi_endproc
  54              	.LFE32:
  56              		.align	2
  57              		.globl	_ZN9Scheduler3getEv
  59              	_ZN9Scheduler3getEv:
  60              	.LFB16:
  10:src/scheduler.cpp ****     return readyThreadQueue.removeFirst();
  61              		.loc 1 10 1 is_stmt 1
  62              		.cfi_startproc
  63 0044 130101FF 		addi	sp,sp,-16
  64              		.cfi_def_cfa_offset 16
  65 0048 23348100 		sd	s0,8(sp)
  66              		.cfi_offset 8, -8
  67 004c 13040101 		addi	s0,sp,16
  68              		.cfi_def_cfa 8, 0
  11:src/scheduler.cpp **** }
  69              		.loc 1 11 5
  70              	.LVL3:
  71              	.LBB15:
  72              	.LBB16:
  29:src/../h/list.hpp **** 
  30:src/../h/list.hpp ****     List(const List<T> &) = delete;
  31:src/../h/list.hpp **** 
  32:src/../h/list.hpp ****     List<T> &operator=(const List<T> &) = delete;
  33:src/../h/list.hpp ****     static void* operator new (size_t n);
  34:src/../h/list.hpp ****     static void operator delete (void* p);
  35:src/../h/list.hpp **** 
  36:src/../h/list.hpp ****     int getNum(){return num;}
  37:src/../h/list.hpp **** 
  38:src/../h/list.hpp ****     void addFirst(T *data)
  39:src/../h/list.hpp ****     {
  40:src/../h/list.hpp ****         Elem *elem = new Elem(data, head);
  41:src/../h/list.hpp ****         head = elem;
  42:src/../h/list.hpp ****         if (!tail) { tail = head; }
  43:src/../h/list.hpp ****     }
  44:src/../h/list.hpp **** 
  45:src/../h/list.hpp ****     void addLast(T *data)
  46:src/../h/list.hpp ****     {
  47:src/../h/list.hpp ****         Elem *elem = new Elem(data, 0);
  48:src/../h/list.hpp ****         if (tail)
  49:src/../h/list.hpp ****         {
  50:src/../h/list.hpp ****             tail->next = elem;
  51:src/../h/list.hpp ****             tail = elem;
  52:src/../h/list.hpp ****         } else
  53:src/../h/list.hpp ****         {
  54:src/../h/list.hpp ****             head = tail = elem;
  55:src/../h/list.hpp ****         }
GAS LISTING /tmp/cclKgfHb.s 			page 4


  56:src/../h/list.hpp ****         num++;
  57:src/../h/list.hpp **** 
  58:src/../h/list.hpp ****     }
  59:src/../h/list.hpp **** 
  60:src/../h/list.hpp ****     T *removeFirst()
  61:src/../h/list.hpp ****     {
  62:src/../h/list.hpp ****         if (!head) { return 0; }
  73              		.loc 2 62 14 is_stmt 0
  74 0050 17050000 		ld	a0,.LANCHOR0
  74      03350500 
  75              		.loc 2 62 9
  76 0058 63060502 		beqz	a0,.L5
  77              	.LVL4:
  63:src/../h/list.hpp **** 
  64:src/../h/list.hpp ****         Elem *elem = head;
  65:src/../h/list.hpp ****         head = head->next;
  78              		.loc 2 65 22
  79 005c 83378500 		ld	a5,8(a0)
  80              		.loc 2 65 9
  81 0060 17070000 		sd	a5,.LANCHOR0,a4
  81      2330F700 
  66:src/../h/list.hpp ****         if (!head) { tail = 0; }
  82              		.loc 2 66 9
  83 0068 63840702 		beqz	a5,.L9
  84              	.L7:
  67:src/../h/list.hpp **** 
  68:src/../h/list.hpp ****         T *ret = elem->data;
  85              		.loc 2 68 12
  86 006c 03350500 		ld	a0,0(a0)
  87              	.LVL5:
  69:src/../h/list.hpp **** //        delete elem;
  70:src/../h/list.hpp ****         num--;
  88              		.loc 2 70 9
  89 0070 17070000 		lla	a4,.LANCHOR0
  89      13070700 
  90 0078 83270701 		lw	a5,16(a4)
  91 007c 9B87F7FF 		addiw	a5,a5,-1
  92 0080 2328F700 		sw	a5,16(a4)
  93              	.LVL6:
  94              	.L5:
  95              	.LBE16:
  96              	.LBE15:
  12:src/scheduler.cpp **** 
  97              		.loc 1 12 1
  98 0084 03348100 		ld	s0,8(sp)
  99              		.cfi_remember_state
 100              		.cfi_restore 8
 101              		.cfi_def_cfa 2, 16
 102 0088 13010101 		addi	sp,sp,16
 103              		.cfi_def_cfa_offset 0
 104 008c 67800000 		jr	ra
 105              	.LVL7:
 106              	.L9:
 107              		.cfi_restore_state
 108              	.LBB18:
 109              	.LBB17:
  66:src/../h/list.hpp **** 
GAS LISTING /tmp/cclKgfHb.s 			page 5


 110              		.loc 2 66 22
 111 0090 97070000 		sd	zero,.LANCHOR0+8,a5
 111      23B00700 
 112 0098 6FF05FFD 		j	.L7
 113              	.LBE17:
 114              	.LBE18:
 115              		.cfi_endproc
 116              	.LFE16:
 118              		.align	2
 119              		.globl	_ZN9Scheduler3putEP3TCB
 121              	_ZN9Scheduler3putEP3TCB:
 122              	.LFB17:
  15:src/scheduler.cpp ****     readyThreadQueue.addLast(tcb);
 123              		.loc 1 15 1 is_stmt 1
 124              		.cfi_startproc
 125              	.LVL8:
 126 009c 130101FE 		addi	sp,sp,-32
 127              		.cfi_def_cfa_offset 32
 128 00a0 233C1100 		sd	ra,24(sp)
 129 00a4 23388100 		sd	s0,16(sp)
 130 00a8 23349100 		sd	s1,8(sp)
 131              		.cfi_offset 1, -8
 132              		.cfi_offset 8, -16
 133              		.cfi_offset 9, -24
 134 00ac 13040102 		addi	s0,sp,32
 135              		.cfi_def_cfa 8, 0
 136 00b0 93040500 		mv	s1,a0
  16:src/scheduler.cpp **** }
 137              		.loc 1 16 5
 138              	.LVL9:
 139              	.LBB24:
 140              	.LBB25:
  47:src/../h/list.hpp ****         if (tail)
 141              		.loc 2 47 22 is_stmt 0
 142 00b4 13050001 		li	a0,16
 143              	.LVL10:
 144 00b8 97000000 		call	_Znwm@plt
 144      E7800000 
 145              	.LVL11:
 146              	.LBB26:
 147              	.LBB27:
  21:src/../h/list.hpp ****     };
 148              		.loc 2 21 58
 149 00c0 23309500 		sd	s1,0(a0)
 150 00c4 23340500 		sd	zero,8(a0)
 151              	.LVL12:
 152              	.LBE27:
 153              	.LBE26:
  48:src/../h/list.hpp ****         {
 154              		.loc 2 48 13
 155 00c8 97070000 		ld	a5,.LANCHOR0+8
 155      83B70700 
  48:src/../h/list.hpp ****         {
 156              		.loc 2 48 9
 157 00d0 638C0702 		beqz	a5,.L11
  50:src/../h/list.hpp ****             tail = elem;
 158              		.loc 2 50 13
GAS LISTING /tmp/cclKgfHb.s 			page 6


 159 00d4 23B4A700 		sd	a0,8(a5)
  51:src/../h/list.hpp ****         } else
 160              		.loc 2 51 13
 161 00d8 97070000 		sd	a0,.LANCHOR0+8,a5
 161      23B0A700 
 162              	.L12:
  56:src/../h/list.hpp **** 
 163              		.loc 2 56 9
 164 00e0 17070000 		lla	a4,.LANCHOR0
 164      13070700 
 165 00e8 83270701 		lw	a5,16(a4)
 166 00ec 9B871700 		addiw	a5,a5,1
 167 00f0 2328F700 		sw	a5,16(a4)
 168              	.LVL13:
 169              	.LBE25:
 170              	.LBE24:
  17:src/scheduler.cpp **** 
 171              		.loc 1 17 1
 172 00f4 83308101 		ld	ra,24(sp)
 173              		.cfi_remember_state
 174              		.cfi_restore 1
 175 00f8 03340101 		ld	s0,16(sp)
 176              		.cfi_restore 8
 177              		.cfi_def_cfa 2, 32
 178 00fc 83348100 		ld	s1,8(sp)
 179              		.cfi_restore 9
 180              	.LVL14:
 181 0100 13010102 		addi	sp,sp,32
 182              		.cfi_def_cfa_offset 0
 183 0104 67800000 		jr	ra
 184              	.LVL15:
 185              	.L11:
 186              		.cfi_restore_state
 187              	.LBB29:
 188              	.LBB28:
  54:src/../h/list.hpp ****         }
 189              		.loc 2 54 13
 190 0108 97070000 		lla	a5,.LANCHOR0
 190      93870700 
 191 0110 23B4A700 		sd	a0,8(a5)
 192 0114 23B0A700 		sd	a0,0(a5)
 193 0118 6FF09FFC 		j	.L12
 194              	.LBE28:
 195              	.LBE29:
 196              		.cfi_endproc
 197              	.LFE17:
 199              		.align	2
 200              		.globl	_ZN9Scheduler11getInstanceEv
 202              	_ZN9Scheduler11getInstanceEv:
 203              	.LFB18:
  19:src/scheduler.cpp ****     return this->instance;
 204              		.loc 1 19 37 is_stmt 1
 205              		.cfi_startproc
 206              	.LVL16:
 207 011c 130101FF 		addi	sp,sp,-16
 208              		.cfi_def_cfa_offset 16
 209 0120 23348100 		sd	s0,8(sp)
GAS LISTING /tmp/cclKgfHb.s 			page 7


 210              		.cfi_offset 8, -8
 211 0124 13040101 		addi	s0,sp,16
 212              		.cfi_def_cfa 8, 0
  20:src/scheduler.cpp **** }
 213              		.loc 1 20 5
  21:src/scheduler.cpp **** 
 214              		.loc 1 21 1 is_stmt 0
 215 0128 03350500 		ld	a0,0(a0)
 216              	.LVL17:
 217 012c 03348100 		ld	s0,8(sp)
 218              		.cfi_restore 8
 219              		.cfi_def_cfa 2, 16
 220 0130 13010101 		addi	sp,sp,16
 221              		.cfi_def_cfa_offset 0
 222 0134 67800000 		jr	ra
 223              		.cfi_endproc
 224              	.LFE18:
 226              		.align	2
 227              		.globl	_ZN9SchedulernwEm
 229              	_ZN9SchedulernwEm:
 230              	.LFB19:
  23:src/scheduler.cpp ****     return MemoryAllocator::malloc(n);
 231              		.loc 1 23 41 is_stmt 1
 232              		.cfi_startproc
 233              	.LVL18:
 234 0138 130101FF 		addi	sp,sp,-16
 235              		.cfi_def_cfa_offset 16
 236 013c 23341100 		sd	ra,8(sp)
 237 0140 23308100 		sd	s0,0(sp)
 238              		.cfi_offset 1, -8
 239              		.cfi_offset 8, -16
 240 0144 13040101 		addi	s0,sp,16
 241              		.cfi_def_cfa 8, 0
  24:src/scheduler.cpp **** }
 242              		.loc 1 24 5
  24:src/scheduler.cpp **** }
 243              		.loc 1 24 35 is_stmt 0
 244 0148 97000000 		call	_ZN15MemoryAllocator6mallocEm@plt
 244      E7800000 
 245              	.LVL19:
  25:src/scheduler.cpp **** 
 246              		.loc 1 25 1
 247 0150 83308100 		ld	ra,8(sp)
 248              		.cfi_restore 1
 249 0154 03340100 		ld	s0,0(sp)
 250              		.cfi_restore 8
 251              		.cfi_def_cfa 2, 16
 252 0158 13010101 		addi	sp,sp,16
 253              		.cfi_def_cfa_offset 0
 254 015c 67800000 		jr	ra
 255              		.cfi_endproc
 256              	.LFE19:
 258              		.align	2
 259              		.globl	_ZN9SchedulerdlEPv
 261              	_ZN9SchedulerdlEPv:
 262              	.LFB20:
  27:src/scheduler.cpp ****     MemoryAllocator::free(p);
GAS LISTING /tmp/cclKgfHb.s 			page 8


 263              		.loc 1 27 42 is_stmt 1
 264              		.cfi_startproc
 265              	.LVL20:
 266 0160 130101FF 		addi	sp,sp,-16
 267              		.cfi_def_cfa_offset 16
 268 0164 23341100 		sd	ra,8(sp)
 269 0168 23308100 		sd	s0,0(sp)
 270              		.cfi_offset 1, -8
 271              		.cfi_offset 8, -16
 272 016c 13040101 		addi	s0,sp,16
 273              		.cfi_def_cfa 8, 0
  28:src/scheduler.cpp ****     return;
 274              		.loc 1 28 5
  28:src/scheduler.cpp ****     return;
 275              		.loc 1 28 26 is_stmt 0
 276 0170 97000000 		call	_ZN15MemoryAllocator4freeEPv@plt
 276      E7800000 
 277              	.LVL21:
  29:src/scheduler.cpp **** }
 278              		.loc 1 29 5 is_stmt 1
  30:src/scheduler.cpp **** 
 279              		.loc 1 30 1 is_stmt 0
 280 0178 83308100 		ld	ra,8(sp)
 281              		.cfi_restore 1
 282 017c 03340100 		ld	s0,0(sp)
 283              		.cfi_restore 8
 284              		.cfi_def_cfa 2, 16
 285 0180 13010101 		addi	sp,sp,16
 286              		.cfi_def_cfa_offset 0
 287 0184 67800000 		jr	ra
 288              		.cfi_endproc
 289              	.LFE20:
 291              		.align	2
 292              		.globl	_ZN9Scheduler7isEmptyEv
 294              	_ZN9Scheduler7isEmptyEv:
 295              	.LFB21:
  32:src/scheduler.cpp ****     bool a=true;
 296              		.loc 1 32 27 is_stmt 1
 297              		.cfi_startproc
 298 0188 130101FF 		addi	sp,sp,-16
 299              		.cfi_def_cfa_offset 16
 300 018c 23348100 		sd	s0,8(sp)
 301              		.cfi_offset 8, -8
 302 0190 13040101 		addi	s0,sp,16
 303              		.cfi_def_cfa 8, 0
  33:src/scheduler.cpp ****     if(readyThreadQueue.peekFirst())a=false;
 304              		.loc 1 33 5
 305              	.LVL22:
  34:src/scheduler.cpp ****     return a;
 306              		.loc 1 34 5
 307              	.LBB30:
 308              	.LBB31:
  71:src/../h/list.hpp ****         return ret;
  72:src/../h/list.hpp ****     }
  73:src/../h/list.hpp **** 
  74:src/../h/list.hpp ****     T *peekFirst()
  75:src/../h/list.hpp ****     {
GAS LISTING /tmp/cclKgfHb.s 			page 9


  76:src/../h/list.hpp ****         if (!head) { return 0; }
 309              		.loc 2 76 14 is_stmt 0
 310 0194 97070000 		ld	a5,.LANCHOR0
 310      83B70700 
 311              		.loc 2 76 9
 312 019c 63820702 		beqz	a5,.L22
  77:src/../h/list.hpp ****         return head->data;
 313              		.loc 2 77 22
 314 01a0 83B70700 		ld	a5,0(a5)
 315              	.LVL23:
 316              	.LBE31:
 317              	.LBE30:
  34:src/scheduler.cpp ****     return a;
 318              		.loc 1 34 5
 319 01a4 638A0700 		beqz	a5,.L25
  34:src/scheduler.cpp ****     return a;
 320              		.loc 1 34 38
 321 01a8 13050000 		li	a0,0
 322              	.L21:
 323              	.LVL24:
  35:src/scheduler.cpp **** }
 324              		.loc 1 35 5 is_stmt 1
  36:src/scheduler.cpp **** 
 325              		.loc 1 36 1 is_stmt 0
 326 01ac 03348100 		ld	s0,8(sp)
 327              		.cfi_remember_state
 328              		.cfi_restore 8
 329              		.cfi_def_cfa 2, 16
 330 01b0 13010101 		addi	sp,sp,16
 331              		.cfi_def_cfa_offset 0
 332 01b4 67800000 		jr	ra
 333              	.LVL25:
 334              	.L25:
 335              		.cfi_restore_state
  33:src/scheduler.cpp ****     if(readyThreadQueue.peekFirst())a=false;
 336              		.loc 1 33 10
 337 01b8 13051000 		li	a0,1
 338 01bc 6FF01FFF 		j	.L21
 339              	.LVL26:
 340              	.L22:
 341 01c0 13051000 		li	a0,1
 342 01c4 6FF09FFE 		j	.L21
 343              		.cfi_endproc
 344              	.LFE21:
 346              		.align	2
 347              		.globl	_ZN9Scheduler7oneLeftEv
 349              	_ZN9Scheduler7oneLeftEv:
 350              	.LFB22:
  38:src/scheduler.cpp ****     bool a=false;
 351              		.loc 1 38 27 is_stmt 1
 352              		.cfi_startproc
 353 01c8 130101FE 		addi	sp,sp,-32
 354              		.cfi_def_cfa_offset 32
 355 01cc 233C1100 		sd	ra,24(sp)
 356 01d0 23388100 		sd	s0,16(sp)
 357 01d4 23349100 		sd	s1,8(sp)
 358 01d8 23302101 		sd	s2,0(sp)
GAS LISTING /tmp/cclKgfHb.s 			page 10


 359              		.cfi_offset 1, -8
 360              		.cfi_offset 8, -16
 361              		.cfi_offset 9, -24
 362              		.cfi_offset 18, -32
 363 01dc 13040102 		addi	s0,sp,32
 364              		.cfi_def_cfa 8, 0
  39:src/scheduler.cpp ****     TCB* t= Scheduler::get();
 365              		.loc 1 39 5
 366              	.LVL27:
  40:src/scheduler.cpp ****     if(isEmpty())a=true;
 367              		.loc 1 40 5
  40:src/scheduler.cpp ****     if(isEmpty())a=true;
 368              		.loc 1 40 27 is_stmt 0
 369 01e0 97000000 		call	_ZN9Scheduler3getEv
 369      E7800000 
 370              	.LVL28:
 371 01e8 13090500 		mv	s2,a0
 372              	.LVL29:
  41:src/scheduler.cpp ****     Scheduler::put(t);
 373              		.loc 1 41 5 is_stmt 1
  41:src/scheduler.cpp ****     Scheduler::put(t);
 374              		.loc 1 41 15 is_stmt 0
 375 01ec 97000000 		call	_ZN9Scheduler7isEmptyEv
 375      E7800000 
 376              	.LVL30:
 377 01f4 93040500 		mv	s1,a0
 378              	.LVL31:
  42:src/scheduler.cpp ****     return a;
 379              		.loc 1 42 5 is_stmt 1
  42:src/scheduler.cpp ****     return a;
 380              		.loc 1 42 19 is_stmt 0
 381 01f8 13050900 		mv	a0,s2
 382 01fc 97000000 		call	_ZN9Scheduler3putEP3TCB
 382      E7800000 
 383              	.LVL32:
  43:src/scheduler.cpp **** }
 384              		.loc 1 43 5 is_stmt 1
 385              		.loc 1 44 1 is_stmt 0
 386 0204 13850400 		mv	a0,s1
 387 0208 83308101 		ld	ra,24(sp)
 388              		.cfi_restore 1
 389 020c 03340101 		ld	s0,16(sp)
 390              		.cfi_restore 8
 391              		.cfi_def_cfa 2, 32
 392 0210 83348100 		ld	s1,8(sp)
 393              		.cfi_restore 9
 394              	.LVL33:
 395 0214 03390100 		ld	s2,0(sp)
 396              		.cfi_restore 18
 397              	.LVL34:
 398 0218 13010102 		addi	sp,sp,32
 399              		.cfi_def_cfa_offset 0
 400 021c 67800000 		jr	ra
 401              		.cfi_endproc
 402              	.LFE22:
 404              		.align	2
 406              	_GLOBAL__sub_I__ZN9Scheduler16readyThreadQueueE:
GAS LISTING /tmp/cclKgfHb.s 			page 11


 407              	.LFB33:
 408              		.loc 1 44 1 is_stmt 1
 409              		.cfi_startproc
 410 0220 130101FF 		addi	sp,sp,-16
 411              		.cfi_def_cfa_offset 16
 412 0224 23341100 		sd	ra,8(sp)
 413 0228 23308100 		sd	s0,0(sp)
 414              		.cfi_offset 1, -8
 415              		.cfi_offset 8, -16
 416 022c 13040101 		addi	s0,sp,16
 417              		.cfi_def_cfa 8, 0
 418              		.loc 1 44 1 is_stmt 0
 419 0230 B7050100 		li	a1,65536
 420 0234 9385F5FF 		addi	a1,a1,-1
 421 0238 13051000 		li	a0,1
 422 023c 97000000 		call	_Z41__static_initialization_and_destruction_0ii
 422      E7800000 
 423              	.LVL35:
 424 0244 83308100 		ld	ra,8(sp)
 425              		.cfi_restore 1
 426 0248 03340100 		ld	s0,0(sp)
 427              		.cfi_restore 8
 428              		.cfi_def_cfa 2, 16
 429 024c 13010101 		addi	sp,sp,16
 430              		.cfi_def_cfa_offset 0
 431 0250 67800000 		jr	ra
 432              		.cfi_endproc
 433              	.LFE33:
 435              		.section	.init_array,"aw"
 436              		.align	3
 437 0000 00000000 		.dword	_GLOBAL__sub_I__ZN9Scheduler16readyThreadQueueE
 437      00000000 
 438              		.globl	_ZN9Scheduler16readyThreadQueueE
 439              		.bss
 440              		.align	3
 441              		.set	.LANCHOR0,. + 0
 444              	_ZN9Scheduler16readyThreadQueueE:
 445 0000 00000000 		.zero	24
 445      00000000 
 445      00000000 
 445      00000000 
 445      00000000 
 446              		.text
 447              	.Letext0:
 448              		.file 3 "src/../h/../lib/hw.h"
 449              		.file 4 "src/../h/MemoryAllocator.hpp"
 450              		.file 5 "src/../h/scheduler.hpp"
GAS LISTING /tmp/cclKgfHb.s 			page 12


DEFINED SYMBOLS
                            *ABS*:0000000000000000 scheduler.cpp
     /tmp/cclKgfHb.s:8      .text:0000000000000000 _Z41__static_initialization_and_destruction_0ii
     /tmp/cclKgfHb.s:12     .text:0000000000000000 .L0 
     /tmp/cclKgfHb.s:14     .text:0000000000000000 .L0 
     /tmp/cclKgfHb.s:15     .text:0000000000000004 .L0 
     /tmp/cclKgfHb.s:17     .text:0000000000000008 .L0 
     /tmp/cclKgfHb.s:19     .text:000000000000000c .L0 
     /tmp/cclKgfHb.s:21     .text:000000000000000c .L0 
     /tmp/cclKgfHb.s:25     .text:0000000000000018 .L0 
     /tmp/cclKgfHb.s:26     .text:0000000000000018 .L0 
     /tmp/cclKgfHb.s:27     .text:0000000000000018 .L0 
     /tmp/cclKgfHb.s:29     .text:000000000000001c .L0 
     /tmp/cclKgfHb.s:32     .text:0000000000000020 .L0 
     /tmp/cclKgfHb.s:34     .text:0000000000000020 .L0 
     /tmp/cclKgfHb.s:43     .text:000000000000002c .L0 
     /tmp/cclKgfHb.s:52     .text:0000000000000040 .L0 
     /tmp/cclKgfHb.s:53     .text:0000000000000044 .L0 
     /tmp/cclKgfHb.s:59     .text:0000000000000044 _ZN9Scheduler3getEv
     /tmp/cclKgfHb.s:62     .text:0000000000000044 .L0 
     /tmp/cclKgfHb.s:63     .text:0000000000000044 .L0 
     /tmp/cclKgfHb.s:64     .text:0000000000000048 .L0 
     /tmp/cclKgfHb.s:66     .text:000000000000004c .L0 
     /tmp/cclKgfHb.s:68     .text:0000000000000050 .L0 
     /tmp/cclKgfHb.s:73     .text:0000000000000050 .L0 
     /tmp/cclKgfHb.s:74     .text:0000000000000050 .L0 
     /tmp/cclKgfHb.s:76     .text:0000000000000058 .L0 
     /tmp/cclKgfHb.s:79     .text:000000000000005c .L0 
     /tmp/cclKgfHb.s:81     .text:0000000000000060 .L0 
     /tmp/cclKgfHb.s:83     .text:0000000000000068 .L0 
     /tmp/cclKgfHb.s:86     .text:000000000000006c .L0 
     /tmp/cclKgfHb.s:89     .text:0000000000000070 .L0 
     /tmp/cclKgfHb.s:98     .text:0000000000000084 .L0 
     /tmp/cclKgfHb.s:99     .text:0000000000000088 .L0 
     /tmp/cclKgfHb.s:100    .text:0000000000000088 .L0 
     /tmp/cclKgfHb.s:101    .text:0000000000000088 .L0 
     /tmp/cclKgfHb.s:103    .text:000000000000008c .L0 
     /tmp/cclKgfHb.s:107    .text:0000000000000090 .L0 
     /tmp/cclKgfHb.s:111    .text:0000000000000090 .L0 
     /tmp/cclKgfHb.s:115    .text:000000000000009c .L0 
     /tmp/cclKgfHb.s:121    .text:000000000000009c _ZN9Scheduler3putEP3TCB
     /tmp/cclKgfHb.s:124    .text:000000000000009c .L0 
     /tmp/cclKgfHb.s:126    .text:000000000000009c .L0 
     /tmp/cclKgfHb.s:127    .text:00000000000000a0 .L0 
     /tmp/cclKgfHb.s:131    .text:00000000000000ac .L0 
     /tmp/cclKgfHb.s:132    .text:00000000000000ac .L0 
     /tmp/cclKgfHb.s:133    .text:00000000000000ac .L0 
     /tmp/cclKgfHb.s:135    .text:00000000000000b0 .L0 
     /tmp/cclKgfHb.s:141    .text:00000000000000b4 .L0 
     /tmp/cclKgfHb.s:142    .text:00000000000000b4 .L0 
     /tmp/cclKgfHb.s:149    .text:00000000000000c0 .L0 
     /tmp/cclKgfHb.s:155    .text:00000000000000c8 .L0 
     /tmp/cclKgfHb.s:157    .text:00000000000000d0 .L0 
     /tmp/cclKgfHb.s:159    .text:00000000000000d4 .L0 
     /tmp/cclKgfHb.s:161    .text:00000000000000d8 .L0 
     /tmp/cclKgfHb.s:164    .text:00000000000000e0 .L0 
     /tmp/cclKgfHb.s:172    .text:00000000000000f4 .L0 
GAS LISTING /tmp/cclKgfHb.s 			page 13


     /tmp/cclKgfHb.s:173    .text:00000000000000f8 .L0 
     /tmp/cclKgfHb.s:174    .text:00000000000000f8 .L0 
     /tmp/cclKgfHb.s:176    .text:00000000000000fc .L0 
     /tmp/cclKgfHb.s:177    .text:00000000000000fc .L0 
     /tmp/cclKgfHb.s:179    .text:0000000000000100 .L0 
     /tmp/cclKgfHb.s:182    .text:0000000000000104 .L0 
     /tmp/cclKgfHb.s:186    .text:0000000000000108 .L0 
     /tmp/cclKgfHb.s:190    .text:0000000000000108 .L0 
     /tmp/cclKgfHb.s:196    .text:000000000000011c .L0 
     /tmp/cclKgfHb.s:202    .text:000000000000011c _ZN9Scheduler11getInstanceEv
     /tmp/cclKgfHb.s:205    .text:000000000000011c .L0 
     /tmp/cclKgfHb.s:207    .text:000000000000011c .L0 
     /tmp/cclKgfHb.s:208    .text:0000000000000120 .L0 
     /tmp/cclKgfHb.s:210    .text:0000000000000124 .L0 
     /tmp/cclKgfHb.s:212    .text:0000000000000128 .L0 
     /tmp/cclKgfHb.s:214    .text:0000000000000128 .L0 
     /tmp/cclKgfHb.s:215    .text:0000000000000128 .L0 
     /tmp/cclKgfHb.s:218    .text:0000000000000130 .L0 
     /tmp/cclKgfHb.s:219    .text:0000000000000130 .L0 
     /tmp/cclKgfHb.s:221    .text:0000000000000134 .L0 
     /tmp/cclKgfHb.s:223    .text:0000000000000138 .L0 
     /tmp/cclKgfHb.s:229    .text:0000000000000138 _ZN9SchedulernwEm
     /tmp/cclKgfHb.s:232    .text:0000000000000138 .L0 
     /tmp/cclKgfHb.s:234    .text:0000000000000138 .L0 
     /tmp/cclKgfHb.s:235    .text:000000000000013c .L0 
     /tmp/cclKgfHb.s:238    .text:0000000000000144 .L0 
     /tmp/cclKgfHb.s:239    .text:0000000000000144 .L0 
     /tmp/cclKgfHb.s:241    .text:0000000000000148 .L0 
     /tmp/cclKgfHb.s:243    .text:0000000000000148 .L0 
     /tmp/cclKgfHb.s:244    .text:0000000000000148 .L0 
     /tmp/cclKgfHb.s:247    .text:0000000000000150 .L0 
     /tmp/cclKgfHb.s:248    .text:0000000000000154 .L0 
     /tmp/cclKgfHb.s:250    .text:0000000000000158 .L0 
     /tmp/cclKgfHb.s:251    .text:0000000000000158 .L0 
     /tmp/cclKgfHb.s:253    .text:000000000000015c .L0 
     /tmp/cclKgfHb.s:255    .text:0000000000000160 .L0 
     /tmp/cclKgfHb.s:261    .text:0000000000000160 _ZN9SchedulerdlEPv
     /tmp/cclKgfHb.s:264    .text:0000000000000160 .L0 
     /tmp/cclKgfHb.s:266    .text:0000000000000160 .L0 
     /tmp/cclKgfHb.s:267    .text:0000000000000164 .L0 
     /tmp/cclKgfHb.s:270    .text:000000000000016c .L0 
     /tmp/cclKgfHb.s:271    .text:000000000000016c .L0 
     /tmp/cclKgfHb.s:273    .text:0000000000000170 .L0 
     /tmp/cclKgfHb.s:275    .text:0000000000000170 .L0 
     /tmp/cclKgfHb.s:276    .text:0000000000000170 .L0 
     /tmp/cclKgfHb.s:279    .text:0000000000000178 .L0 
     /tmp/cclKgfHb.s:280    .text:0000000000000178 .L0 
     /tmp/cclKgfHb.s:281    .text:000000000000017c .L0 
     /tmp/cclKgfHb.s:283    .text:0000000000000180 .L0 
     /tmp/cclKgfHb.s:284    .text:0000000000000180 .L0 
     /tmp/cclKgfHb.s:286    .text:0000000000000184 .L0 
     /tmp/cclKgfHb.s:288    .text:0000000000000188 .L0 
     /tmp/cclKgfHb.s:294    .text:0000000000000188 _ZN9Scheduler7isEmptyEv
     /tmp/cclKgfHb.s:297    .text:0000000000000188 .L0 
     /tmp/cclKgfHb.s:298    .text:0000000000000188 .L0 
     /tmp/cclKgfHb.s:299    .text:000000000000018c .L0 
     /tmp/cclKgfHb.s:301    .text:0000000000000190 .L0 
GAS LISTING /tmp/cclKgfHb.s 			page 14


     /tmp/cclKgfHb.s:303    .text:0000000000000194 .L0 
     /tmp/cclKgfHb.s:306    .text:0000000000000194 .L0 
     /tmp/cclKgfHb.s:309    .text:0000000000000194 .L0 
     /tmp/cclKgfHb.s:310    .text:0000000000000194 .L0 
     /tmp/cclKgfHb.s:312    .text:000000000000019c .L0 
     /tmp/cclKgfHb.s:314    .text:00000000000001a0 .L0 
     /tmp/cclKgfHb.s:319    .text:00000000000001a4 .L0 
     /tmp/cclKgfHb.s:321    .text:00000000000001a8 .L0 
     /tmp/cclKgfHb.s:325    .text:00000000000001ac .L0 
     /tmp/cclKgfHb.s:326    .text:00000000000001ac .L0 
     /tmp/cclKgfHb.s:327    .text:00000000000001b0 .L0 
     /tmp/cclKgfHb.s:328    .text:00000000000001b0 .L0 
     /tmp/cclKgfHb.s:329    .text:00000000000001b0 .L0 
     /tmp/cclKgfHb.s:331    .text:00000000000001b4 .L0 
     /tmp/cclKgfHb.s:335    .text:00000000000001b8 .L0 
     /tmp/cclKgfHb.s:337    .text:00000000000001b8 .L0 
     /tmp/cclKgfHb.s:343    .text:00000000000001c8 .L0 
     /tmp/cclKgfHb.s:349    .text:00000000000001c8 _ZN9Scheduler7oneLeftEv
     /tmp/cclKgfHb.s:352    .text:00000000000001c8 .L0 
     /tmp/cclKgfHb.s:353    .text:00000000000001c8 .L0 
     /tmp/cclKgfHb.s:354    .text:00000000000001cc .L0 
     /tmp/cclKgfHb.s:359    .text:00000000000001dc .L0 
     /tmp/cclKgfHb.s:360    .text:00000000000001dc .L0 
     /tmp/cclKgfHb.s:361    .text:00000000000001dc .L0 
     /tmp/cclKgfHb.s:362    .text:00000000000001dc .L0 
     /tmp/cclKgfHb.s:364    .text:00000000000001e0 .L0 
     /tmp/cclKgfHb.s:367    .text:00000000000001e0 .L0 
     /tmp/cclKgfHb.s:368    .text:00000000000001e0 .L0 
     /tmp/cclKgfHb.s:369    .text:00000000000001e0 .L0 
     /tmp/cclKgfHb.s:374    .text:00000000000001ec .L0 
     /tmp/cclKgfHb.s:375    .text:00000000000001ec .L0 
     /tmp/cclKgfHb.s:380    .text:00000000000001f8 .L0 
     /tmp/cclKgfHb.s:381    .text:00000000000001f8 .L0 
     /tmp/cclKgfHb.s:385    .text:0000000000000204 .L0 
     /tmp/cclKgfHb.s:386    .text:0000000000000204 .L0 
     /tmp/cclKgfHb.s:388    .text:000000000000020c .L0 
     /tmp/cclKgfHb.s:390    .text:0000000000000210 .L0 
     /tmp/cclKgfHb.s:391    .text:0000000000000210 .L0 
     /tmp/cclKgfHb.s:393    .text:0000000000000214 .L0 
     /tmp/cclKgfHb.s:396    .text:0000000000000218 .L0 
     /tmp/cclKgfHb.s:399    .text:000000000000021c .L0 
     /tmp/cclKgfHb.s:401    .text:0000000000000220 .L0 
     /tmp/cclKgfHb.s:406    .text:0000000000000220 _GLOBAL__sub_I__ZN9Scheduler16readyThreadQueueE
     /tmp/cclKgfHb.s:409    .text:0000000000000220 .L0 
     /tmp/cclKgfHb.s:410    .text:0000000000000220 .L0 
     /tmp/cclKgfHb.s:411    .text:0000000000000224 .L0 
     /tmp/cclKgfHb.s:414    .text:000000000000022c .L0 
     /tmp/cclKgfHb.s:415    .text:000000000000022c .L0 
     /tmp/cclKgfHb.s:417    .text:0000000000000230 .L0 
     /tmp/cclKgfHb.s:419    .text:0000000000000230 .L0 
     /tmp/cclKgfHb.s:425    .text:0000000000000248 .L0 
     /tmp/cclKgfHb.s:427    .text:000000000000024c .L0 
     /tmp/cclKgfHb.s:428    .text:000000000000024c .L0 
     /tmp/cclKgfHb.s:430    .text:0000000000000250 .L0 
     /tmp/cclKgfHb.s:432    .text:0000000000000254 .L0 
     /tmp/cclKgfHb.s:444    .bss:0000000000000000 _ZN9Scheduler16readyThreadQueueE
     /tmp/cclKgfHb.s:441    .bss:0000000000000000 .LANCHOR0
GAS LISTING /tmp/cclKgfHb.s 			page 15


     /tmp/cclKgfHb.s:451    .text:0000000000000254 .L0 
     /tmp/cclKgfHb.s:43     .text:000000000000002c .L0 
     /tmp/cclKgfHb.s:74     .text:0000000000000050 .L0 
     /tmp/cclKgfHb.s:81     .text:0000000000000060 .L0 
     /tmp/cclKgfHb.s:89     .text:0000000000000070 .L0 
     /tmp/cclKgfHb.s:111    .text:0000000000000090 .L0 
     /tmp/cclKgfHb.s:155    .text:00000000000000c8 .L0 
     /tmp/cclKgfHb.s:161    .text:00000000000000d8 .L0 
     /tmp/cclKgfHb.s:164    .text:00000000000000e0 .L0 
     /tmp/cclKgfHb.s:190    .text:0000000000000108 .L0 
     /tmp/cclKgfHb.s:310    .text:0000000000000194 .L0 
     /tmp/cclKgfHb.s:31     .text:0000000000000020 .L4
     /tmp/cclKgfHb.s:23     .text:0000000000000014 .L1
     /tmp/cclKgfHb.s:94     .text:0000000000000084 .L5
     /tmp/cclKgfHb.s:106    .text:0000000000000090 .L9
     /tmp/cclKgfHb.s:84     .text:000000000000006c .L7
     /tmp/cclKgfHb.s:185    .text:0000000000000108 .L11
     /tmp/cclKgfHb.s:162    .text:00000000000000e0 .L12
     /tmp/cclKgfHb.s:340    .text:00000000000001c0 .L22
     /tmp/cclKgfHb.s:334    .text:00000000000001b8 .L25
     /tmp/cclKgfHb.s:322    .text:00000000000001ac .L21
     /tmp/cclKgfHb.s:1493   .debug_abbrev:0000000000000000 .Ldebug_abbrev0
     /tmp/cclKgfHb.s:2920   .debug_str:00000000000005a3 .LASF84
     /tmp/cclKgfHb.s:2940   .debug_str:00000000000006ca .LASF85
     /tmp/cclKgfHb.s:2810   .debug_str:000000000000021d .LASF86
     /tmp/cclKgfHb.s:5      .text:0000000000000000 .Ltext0
     /tmp/cclKgfHb.s:447    .text:0000000000000254 .Letext0
     /tmp/cclKgfHb.s:2754   .debug_line:0000000000000000 .Ldebug_line0
     /tmp/cclKgfHb.s:2864   .debug_str:00000000000003e2 .LASF0
     /tmp/cclKgfHb.s:2874   .debug_str:0000000000000432 .LASF1
     /tmp/cclKgfHb.s:2848   .debug_str:0000000000000349 .LASF2
     /tmp/cclKgfHb.s:2828   .debug_str:00000000000002b8 .LASF4
     /tmp/cclKgfHb.s:2908   .debug_str:0000000000000555 .LASF3
     /tmp/cclKgfHb.s:2766   .debug_str:000000000000005f .LASF5
     /tmp/cclKgfHb.s:2876   .debug_str:0000000000000445 .LASF6
     /tmp/cclKgfHb.s:2862   .debug_str:00000000000003cf .LASF7
     /tmp/cclKgfHb.s:2932   .debug_str:0000000000000698 .LASF8
     /tmp/cclKgfHb.s:2816   .debug_str:0000000000000254 .LASF9
     /tmp/cclKgfHb.s:2882   .debug_str:0000000000000467 .LASF10
     /tmp/cclKgfHb.s:2926   .debug_str:0000000000000679 .LASF11
     /tmp/cclKgfHb.s:2770   .debug_str:000000000000006d .LASF12
     /tmp/cclKgfHb.s:2758   .debug_str:000000000000001e .LASF13
     /tmp/cclKgfHb.s:2780   .debug_str:00000000000000d4 .LASF14
     /tmp/cclKgfHb.s:2900   .debug_str:000000000000051c .LASF15
     /tmp/cclKgfHb.s:2792   .debug_str:000000000000015a .LASF16
     /tmp/cclKgfHb.s:2846   .debug_str:0000000000000339 .LASF30
     /tmp/cclKgfHb.s:2934   .debug_str:00000000000006a8 .LASF52
     /tmp/cclKgfHb.s:2946   .debug_str:000000000000070f .LASF17
     /tmp/cclKgfHb.s:2938   .debug_str:00000000000006c5 .LASF18
     /tmp/cclKgfHb.s:2916   .debug_str:0000000000000597 .LASF19
     /tmp/cclKgfHb.s:2830   .debug_str:00000000000002bf .LASF20
     /tmp/cclKgfHb.s:2856   .debug_str:00000000000003a1 .LASF21
     /tmp/cclKgfHb.s:2912   .debug_str:0000000000000579 .LASF22
     /tmp/cclKgfHb.s:2924   .debug_str:0000000000000673 .LASF23
     /tmp/cclKgfHb.s:2870   .debug_str:000000000000040b .LASF25
     /tmp/cclKgfHb.s:2872   .debug_str:0000000000000428 .LASF24
     /tmp/cclKgfHb.s:2942   .debug_str:00000000000006dc .LASF26
GAS LISTING /tmp/cclKgfHb.s 			page 16


     /tmp/cclKgfHb.s:2782   .debug_str:00000000000000e0 .LASF87
     /tmp/cclKgfHb.s:2786   .debug_str:0000000000000107 .LASF88
     /tmp/cclKgfHb.s:2768   .debug_str:0000000000000066 .LASF32
     /tmp/cclKgfHb.s:2884   .debug_str:0000000000000476 .LASF34
     /tmp/cclKgfHb.s:2806   .debug_str:0000000000000213 .LASF27
     /tmp/cclKgfHb.s:2894   .debug_str:00000000000004e0 .LASF28
     /tmp/cclKgfHb.s:2878   .debug_str:0000000000000458 .LASF29
     /tmp/cclKgfHb.s:2880   .debug_str:000000000000045d .LASF31
     /tmp/cclKgfHb.s:2936   .debug_str:00000000000006b8 .LASF33
     /tmp/cclKgfHb.s:2944   .debug_str:00000000000006fd .LASF35
     /tmp/cclKgfHb.s:2914   .debug_str:0000000000000587 .LASF36
     /tmp/cclKgfHb.s:2866   .debug_str:00000000000003ef .LASF37
     /tmp/cclKgfHb.s:2812   .debug_str:000000000000023b .LASF38
     /tmp/cclKgfHb.s:2868   .debug_str:0000000000000402 .LASF39
     /tmp/cclKgfHb.s:2910   .debug_str:0000000000000567 .LASF40
     /tmp/cclKgfHb.s:2822   .debug_str:000000000000028c .LASF89
     /tmp/cclKgfHb.s:2778   .debug_str:00000000000000bc .LASF90
     /tmp/cclKgfHb.s:2834   .debug_str:00000000000002d8 .LASF41
     /tmp/cclKgfHb.s:2854   .debug_str:0000000000000383 .LASF42
     /tmp/cclKgfHb.s:2760   .debug_str:000000000000002e .LASF43
     /tmp/cclKgfHb.s:2850   .debug_str:0000000000000357 .LASF44
     /tmp/cclKgfHb.s:2790   .debug_str:0000000000000152 .LASF45
     /tmp/cclKgfHb.s:2802   .debug_str:00000000000001de .LASF47
     /tmp/cclKgfHb.s:2898   .debug_str:0000000000000514 .LASF46
     /tmp/cclKgfHb.s:2906   .debug_str:000000000000053d .LASF48
     /tmp/cclKgfHb.s:2922   .debug_str:0000000000000667 .LASF49
     /tmp/cclKgfHb.s:2796   .debug_str:0000000000000175 .LASF50
     /tmp/cclKgfHb.s:2844   .debug_str:000000000000032f .LASF51
     /tmp/cclKgfHb.s:2928   .debug_str:0000000000000688 .LASF53
     /tmp/cclKgfHb.s:2892   .debug_str:00000000000004db .LASF54
     /tmp/cclKgfHb.s:2858   .debug_str:00000000000003a6 .LASF91
     /tmp/cclKgfHb.s:2794   .debug_str:0000000000000170 .LASF55
     /tmp/cclKgfHb.s:2826   .debug_str:00000000000002b3 .LASF56
     /tmp/cclKgfHb.s:2818   .debug_str:0000000000000262 .LASF57
     /tmp/cclKgfHb.s:2896   .debug_str:00000000000004fd .LASF61
     /tmp/cclKgfHb.s:2860   .debug_str:00000000000003c5 .LASF92
     /tmp/cclKgfHb.s:2820   .debug_str:0000000000000275 .LASF93
     /tmp/cclKgfHb.s:2824   .debug_str:00000000000002a0 .LASF58
     /tmp/cclKgfHb.s:2774   .debug_str:000000000000009e .LASF59
     /tmp/cclKgfHb.s:2918   .debug_str:000000000000059c .LASF60
     /tmp/cclKgfHb.s:2890   .debug_str:00000000000004c3 .LASF62
     /tmp/cclKgfHb.s:2764   .debug_str:0000000000000056 .LASF63
     /tmp/cclKgfHb.s:2804   .debug_str:00000000000001f6 .LASF64
     /tmp/cclKgfHb.s:2814   .debug_str:000000000000024c .LASF65
     /tmp/cclKgfHb.s:2800   .debug_str:00000000000001c2 .LASF66
     /tmp/cclKgfHb.s:2852   .debug_str:0000000000000377 .LASF67
     /tmp/cclKgfHb.s:2756   .debug_str:0000000000000000 .LASF68
     /tmp/cclKgfHb.s:2776   .debug_str:00000000000000b2 .LASF69
     /tmp/cclKgfHb.s:2838   .debug_str:00000000000002fc .LASF70
     /tmp/cclKgfHb.s:2930   .debug_str:000000000000068d .LASF71
     /tmp/cclKgfHb.s:2762   .debug_str:0000000000000039 .LASF72
     /tmp/cclKgfHb.s:2840   .debug_str:0000000000000317 .LASF73
     /tmp/cclKgfHb.s:2836   .debug_str:00000000000002e2 .LASF74
     /tmp/cclKgfHb.s:2808   .debug_str:0000000000000218 .LASF75
     /tmp/cclKgfHb.s:2772   .debug_str:000000000000007d .LASF94
     /tmp/cclKgfHb.s:2798   .debug_str:0000000000000192 .LASF76
     /tmp/cclKgfHb.s:407    .text:0000000000000220 .LFB33
GAS LISTING /tmp/cclKgfHb.s 			page 17


     /tmp/cclKgfHb.s:433    .text:0000000000000254 .LFE33
     /tmp/cclKgfHb.s:423    .text:0000000000000244 .LVL35
     /tmp/cclKgfHb.s:2886   .debug_str:0000000000000494 .LASF77
     /tmp/cclKgfHb.s:9      .text:0000000000000000 .LFB32
     /tmp/cclKgfHb.s:54     .text:0000000000000044 .LFE32
     /tmp/cclKgfHb.s:2842   .debug_str:0000000000000320 .LASF78
     /tmp/cclKgfHb.s:2832   .debug_str:00000000000002cd .LASF79
     /tmp/cclKgfHb.s:38     .text:000000000000002c .LBB12
     /tmp/cclKgfHb.s:50     .text:0000000000000040 .LBE12
     /tmp/cclKgfHb.s:2514   .debug_loc:0000000000000000 .LLST0
     /tmp/cclKgfHb.s:2888   .debug_str:00000000000004be .LASF80
     /tmp/cclKgfHb.s:2788   .debug_str:0000000000000133 .LASF82
     /tmp/cclKgfHb.s:2902   .debug_str:0000000000000532 .LASF81
     /tmp/cclKgfHb.s:2784   .debug_str:00000000000000f4 .LASF83
     /tmp/cclKgfHb.s:350    .text:00000000000001c8 .LFB22
     /tmp/cclKgfHb.s:402    .text:0000000000000220 .LFE22
     /tmp/cclKgfHb.s:2523   .debug_loc:000000000000002c .LLST15
     /tmp/cclKgfHb.s:2535   .debug_loc:0000000000000063 .LLST16
     /tmp/cclKgfHb.s:370    .text:00000000000001e8 .LVL28
     /tmp/cclKgfHb.s:376    .text:00000000000001f4 .LVL30
     /tmp/cclKgfHb.s:383    .text:0000000000000204 .LVL32
     /tmp/cclKgfHb.s:295    .text:0000000000000188 .LFB21
     /tmp/cclKgfHb.s:344    .text:00000000000001c8 .LFE21
     /tmp/cclKgfHb.s:2546   .debug_loc:0000000000000099 .LLST13
     /tmp/cclKgfHb.s:307    .text:0000000000000194 .LBB30
     /tmp/cclKgfHb.s:317    .text:00000000000001a4 .LBE30
     /tmp/cclKgfHb.s:2563   .debug_loc:00000000000000e4 .LLST14
     /tmp/cclKgfHb.s:262    .text:0000000000000160 .LFB20
     /tmp/cclKgfHb.s:289    .text:0000000000000188 .LFE20
     /tmp/cclKgfHb.s:2578   .debug_loc:000000000000012c .LLST12
     /tmp/cclKgfHb.s:277    .text:0000000000000178 .LVL21
     /tmp/cclKgfHb.s:230    .text:0000000000000138 .LFB19
     /tmp/cclKgfHb.s:256    .text:0000000000000160 .LFE19
     /tmp/cclKgfHb.s:2592   .debug_loc:0000000000000165 .LLST11
     /tmp/cclKgfHb.s:245    .text:0000000000000150 .LVL19
     /tmp/cclKgfHb.s:203    .text:000000000000011c .LFB18
     /tmp/cclKgfHb.s:224    .text:0000000000000138 .LFE18
     /tmp/cclKgfHb.s:2606   .debug_loc:000000000000019e .LLST10
     /tmp/cclKgfHb.s:122    .text:000000000000009c .LFB17
     /tmp/cclKgfHb.s:197    .text:000000000000011c .LFE17
     /tmp/cclKgfHb.s:2620   .debug_loc:00000000000001d7 .LLST4
     /tmp/cclKgfHb.s:139    .text:00000000000000b4 .LBB24
     /tmp/cclKgfHb.s:2740   .debug_ranges:0000000000000000 .Ldebug_ranges0
     /tmp/cclKgfHb.s:2642   .debug_loc:0000000000000236 .LLST5
     /tmp/cclKgfHb.s:2657   .debug_loc:000000000000027f .LLST6
     /tmp/cclKgfHb.s:146    .text:00000000000000c0 .LBB26
     /tmp/cclKgfHb.s:153    .text:00000000000000c8 .LBE26
     /tmp/cclKgfHb.s:2672   .debug_loc:00000000000002c7 .LLST7
     /tmp/cclKgfHb.s:2680   .debug_loc:00000000000002eb .LLST8
     /tmp/cclKgfHb.s:2687   .debug_loc:000000000000030e .LLST9
     /tmp/cclKgfHb.s:145    .text:00000000000000c0 .LVL11
     /tmp/cclKgfHb.s:60     .text:0000000000000044 .LFB16
     /tmp/cclKgfHb.s:116    .text:000000000000009c .LFE16
     /tmp/cclKgfHb.s:71     .text:0000000000000050 .LBB15
     /tmp/cclKgfHb.s:2694   .debug_loc:0000000000000331 .LLST1
     /tmp/cclKgfHb.s:2709   .debug_loc:0000000000000379 .LLST2
     /tmp/cclKgfHb.s:2720   .debug_loc:00000000000003af .LLST3
GAS LISTING /tmp/cclKgfHb.s 			page 18


     /tmp/cclKgfHb.s:2904   .debug_str:0000000000000537 .LASF95
     /tmp/cclKgfHb.s:37     .text:000000000000002c .LVL1
     /tmp/cclKgfHb.s:47     .text:0000000000000040 .LVL2
     /tmp/cclKgfHb.s:366    .text:00000000000001e0 .LVL27
     /tmp/cclKgfHb.s:378    .text:00000000000001f8 .LVL31
     /tmp/cclKgfHb.s:394    .text:0000000000000214 .LVL33
     /tmp/cclKgfHb.s:372    .text:00000000000001ec .LVL29
     /tmp/cclKgfHb.s:397    .text:0000000000000218 .LVL34
     /tmp/cclKgfHb.s:305    .text:0000000000000194 .LVL22
     /tmp/cclKgfHb.s:323    .text:00000000000001ac .LVL24
     /tmp/cclKgfHb.s:333    .text:00000000000001b8 .LVL25
     /tmp/cclKgfHb.s:315    .text:00000000000001a4 .LVL23
     /tmp/cclKgfHb.s:339    .text:00000000000001c0 .LVL26
     /tmp/cclKgfHb.s:265    .text:0000000000000160 .LVL20
     /tmp/cclKgfHb.s:233    .text:0000000000000138 .LVL18
     /tmp/cclKgfHb.s:206    .text:000000000000011c .LVL16
     /tmp/cclKgfHb.s:216    .text:000000000000012c .LVL17
     /tmp/cclKgfHb.s:125    .text:000000000000009c .LVL8
     /tmp/cclKgfHb.s:143    .text:00000000000000b8 .LVL10
     /tmp/cclKgfHb.s:180    .text:0000000000000100 .LVL14
     /tmp/cclKgfHb.s:184    .text:0000000000000108 .LVL15
     /tmp/cclKgfHb.s:138    .text:00000000000000b4 .LVL9
     /tmp/cclKgfHb.s:168    .text:00000000000000f4 .LVL13
     /tmp/cclKgfHb.s:151    .text:00000000000000c8 .LVL12
     /tmp/cclKgfHb.s:70     .text:0000000000000050 .LVL3
     /tmp/cclKgfHb.s:93     .text:0000000000000084 .LVL6
     /tmp/cclKgfHb.s:105    .text:0000000000000090 .LVL7
     /tmp/cclKgfHb.s:77     .text:000000000000005c .LVL4
     /tmp/cclKgfHb.s:87     .text:0000000000000070 .LVL5
     /tmp/cclKgfHb.s:452    .debug_info:0000000000000000 .Ldebug_info0
     /tmp/cclKgfHb.s:96     .text:0000000000000084 .LBE15
     /tmp/cclKgfHb.s:108    .text:0000000000000090 .LBB18
     /tmp/cclKgfHb.s:114    .text:000000000000009c .LBE18
     /tmp/cclKgfHb.s:170    .text:00000000000000f4 .LBE24
     /tmp/cclKgfHb.s:187    .text:0000000000000108 .LBB29
     /tmp/cclKgfHb.s:195    .text:000000000000011c .LBE29

UNDEFINED SYMBOLS
_Znwm
_ZN15MemoryAllocator6mallocEm
_ZN15MemoryAllocator4freeEPv
