GAS LISTING /tmp/ccQvownj.s 			page 1


   1              		.file	"syscall_cpp.cpp"
   2              		.option pic
   3              		.option norelax
   4              		.text
   5              	.Ltext0:
   6              		.section	.text._ZN6Thread3runEv,"axG",@progbits,_ZN6Thread3runEv,comdat
   7              		.align	2
   8              		.weak	_ZN6Thread3runEv
  10              	_ZN6Thread3runEv:
  11              	.LFB30:
  12              		.file 1 "src/../h/syscall_cpp.hpp"
   1:src/../h/syscall_cpp.hpp **** #ifndef _syscall_cpp
   2:src/../h/syscall_cpp.hpp **** #define _syscall_cpp
   3:src/../h/syscall_cpp.hpp **** #include "../lib/console.h"
   4:src/../h/syscall_cpp.hpp **** #include "syscall_c.h"
   5:src/../h/syscall_cpp.hpp **** 
   6:src/../h/syscall_cpp.hpp **** 
   7:src/../h/syscall_cpp.hpp **** class Thread {
   8:src/../h/syscall_cpp.hpp ****     using Body = void (*)(void*);
   9:src/../h/syscall_cpp.hpp **** public:
  10:src/../h/syscall_cpp.hpp ****     Thread(void (*body)(void*), void* arg);
  11:src/../h/syscall_cpp.hpp **** 
  12:src/../h/syscall_cpp.hpp ****     virtual ~Thread ();
  13:src/../h/syscall_cpp.hpp ****     int start ();
  14:src/../h/syscall_cpp.hpp ****     static void dispatch ();
  15:src/../h/syscall_cpp.hpp ****     static int sleep (time_t);
  16:src/../h/syscall_cpp.hpp **** 
  17:src/../h/syscall_cpp.hpp **** protected:
  18:src/../h/syscall_cpp.hpp ****     Thread ();
  19:src/../h/syscall_cpp.hpp ****     virtual void run (){}
  13              		.loc 1 19 18
  14              		.cfi_startproc
  15              	.LVL0:
  16 0000 130101FF 		addi	sp,sp,-16
  17              		.cfi_def_cfa_offset 16
  18 0004 23348100 		sd	s0,8(sp)
  19              		.cfi_offset 8, -8
  20 0008 13040101 		addi	s0,sp,16
  21              		.cfi_def_cfa 8, 0
  22              		.loc 1 19 25 is_stmt 0
  23 000c 03348100 		ld	s0,8(sp)
  24              		.cfi_restore 8
  25              		.cfi_def_cfa 2, 16
  26 0010 13010101 		addi	sp,sp,16
  27              		.cfi_def_cfa_offset 0
  28 0014 67800000 		jr	ra
  29              		.cfi_endproc
  30              	.LFE30:
  32              		.section	.text._ZN6Thread9myWrapperEPv,"axG",@progbits,_ZN6Thread9myWrapperEPv,comdat
  33              		.align	2
  34              		.weak	_ZN6Thread9myWrapperEPv
  36              	_ZN6Thread9myWrapperEPv:
  37              	.LFB31:
  20:src/../h/syscall_cpp.hpp **** private:
  21:src/../h/syscall_cpp.hpp ****     thread_t myHandle;
  22:src/../h/syscall_cpp.hpp ****     static void myWrapper(void* ptr)
  38              		.loc 1 22 17 is_stmt 1
GAS LISTING /tmp/ccQvownj.s 			page 2


  39              		.cfi_startproc
  40              	.LVL1:
  41 0000 130101FF 		addi	sp,sp,-16
  42              		.cfi_def_cfa_offset 16
  43 0004 23341100 		sd	ra,8(sp)
  44 0008 23308100 		sd	s0,0(sp)
  45              		.cfi_offset 1, -8
  46              		.cfi_offset 8, -16
  47 000c 13040101 		addi	s0,sp,16
  48              		.cfi_def_cfa 8, 0
  23:src/../h/syscall_cpp.hpp ****     {
  24:src/../h/syscall_cpp.hpp ****         Thread* thread = (Thread*)ptr;
  49              		.loc 1 24 9
  50              	.LVL2:
  25:src/../h/syscall_cpp.hpp ****         thread->run();
  51              		.loc 1 25 9
  52              		.loc 1 25 21 is_stmt 0
  53 0010 83370500 		ld	a5,0(a0)
  54 0014 83B70701 		ld	a5,16(a5)
  55              		.loc 1 25 20
  56 0018 E7800700 		jalr	a5
  57              	.LVL3:
  26:src/../h/syscall_cpp.hpp ****     }
  58              		.loc 1 26 5
  59 001c 83308100 		ld	ra,8(sp)
  60              		.cfi_restore 1
  61 0020 03340100 		ld	s0,0(sp)
  62              		.cfi_restore 8
  63              		.cfi_def_cfa 2, 16
  64 0024 13010101 		addi	sp,sp,16
  65              		.cfi_def_cfa_offset 0
  66 0028 67800000 		jr	ra
  67              		.cfi_endproc
  68              	.LFE31:
  70              		.text
  71              		.align	2
  72              		.globl	_ZN6ThreadD2Ev
  74              	_ZN6ThreadD2Ev:
  75              	.LFB41:
   7:src/../h/syscall_cpp.hpp ****     using Body = void (*)(void*);
  76              		.loc 1 7 7 is_stmt 1
  77              		.cfi_startproc
  78              	.LVL4:
  79 0000 130101FF 		addi	sp,sp,-16
  80              		.cfi_def_cfa_offset 16
  81 0004 23348100 		sd	s0,8(sp)
  82              		.cfi_offset 8, -8
  83 0008 13040101 		addi	s0,sp,16
  84              		.cfi_def_cfa 8, 0
   7:src/../h/syscall_cpp.hpp ****     using Body = void (*)(void*);
  85              		.loc 1 7 7 is_stmt 0
  86 000c 03348100 		ld	s0,8(sp)
  87              		.cfi_restore 8
  88              		.cfi_def_cfa 2, 16
  89 0010 13010101 		addi	sp,sp,16
  90              		.cfi_def_cfa_offset 0
  91 0014 67800000 		jr	ra
GAS LISTING /tmp/ccQvownj.s 			page 3


  92              		.cfi_endproc
  93              	.LFE41:
  95              		.globl	_ZN6ThreadD1Ev
  96              		.set	_ZN6ThreadD1Ev,_ZN6ThreadD2Ev
  97              		.align	2
  98              		.globl	_ZN9SemaphoreD2Ev
 100              	_ZN9SemaphoreD2Ev:
 101              	.LFB49:
 102              		.file 2 "src/syscall_cpp.cpp"
   1:src/syscall_cpp.cpp **** #include "../h/syscall_cpp.hpp"
   2:src/syscall_cpp.cpp **** 
   3:src/syscall_cpp.cpp **** 
   4:src/syscall_cpp.cpp **** int Thread::start (){
   5:src/syscall_cpp.cpp ****     thread_start(&myHandle);
   6:src/syscall_cpp.cpp ****     return 0;
   7:src/syscall_cpp.cpp **** }
   8:src/syscall_cpp.cpp **** void Thread::dispatch (){
   9:src/syscall_cpp.cpp ****     thread_dispatch();
  10:src/syscall_cpp.cpp **** }
  11:src/syscall_cpp.cpp **** 
  12:src/syscall_cpp.cpp **** Thread::Thread(void (*body)(void*), void* arg) {
  13:src/syscall_cpp.cpp ****     thread_create2(&myHandle, body, arg);
  14:src/syscall_cpp.cpp **** }
  15:src/syscall_cpp.cpp **** Thread::Thread() {
  16:src/syscall_cpp.cpp ****     thread_create2(&myHandle, myWrapper, this);
  17:src/syscall_cpp.cpp **** }
  18:src/syscall_cpp.cpp **** 
  19:src/syscall_cpp.cpp **** Thread::~Thread()=default;
  20:src/syscall_cpp.cpp **** 
  21:src/syscall_cpp.cpp **** int Thread::sleep(time_t) {
  22:src/syscall_cpp.cpp ****     return 0;
  23:src/syscall_cpp.cpp **** }
  24:src/syscall_cpp.cpp **** 
  25:src/syscall_cpp.cpp **** Semaphore::Semaphore(unsigned int init) {
  26:src/syscall_cpp.cpp ****     sem_open(&myHandle, init);
  27:src/syscall_cpp.cpp **** }
  28:src/syscall_cpp.cpp **** 
  29:src/syscall_cpp.cpp **** Semaphore::~Semaphore() {
 103              		.loc 2 29 1 is_stmt 1
 104              		.cfi_startproc
 105              		.cfi_personality 0x9b,DW.ref.__gxx_personality_v0
 106              		.cfi_lsda 0x1b,.LLSDA49
 107              	.LVL5:
 108 0018 130101FF 		addi	sp,sp,-16
 109              		.cfi_def_cfa_offset 16
 110 001c 23341100 		sd	ra,8(sp)
 111 0020 23308100 		sd	s0,0(sp)
 112              		.cfi_offset 1, -8
 113              		.cfi_offset 8, -16
 114 0024 13040101 		addi	s0,sp,16
 115              		.cfi_def_cfa 8, 0
 116              	.LBB2:
 117              		.loc 2 29 23 is_stmt 0
 118 0028 97070000 		lla	a5,_ZTV9Semaphore+16
 118      93870700 
 119 0030 2330F500 		sd	a5,0(a0)
  30:src/syscall_cpp.cpp ****     sem_close(myHandle);
GAS LISTING /tmp/ccQvownj.s 			page 4


 120              		.loc 2 30 5 is_stmt 1
 121              		.loc 2 30 14 is_stmt 0
 122 0034 03358500 		ld	a0,8(a0)
 123              	.LVL6:
 124 0038 97000000 		call	_Z9sem_closeP10Ksemaphore@plt
 124      E7800000 
 125              	.LVL7:
 126              	.LBE2:
  31:src/syscall_cpp.cpp **** }
 127              		.loc 2 31 1
 128 0040 83308100 		ld	ra,8(sp)
 129              		.cfi_restore 1
 130 0044 03340100 		ld	s0,0(sp)
 131              		.cfi_restore 8
 132              		.cfi_def_cfa 2, 16
 133 0048 13010101 		addi	sp,sp,16
 134              		.cfi_def_cfa_offset 0
 135 004c 67800000 		jr	ra
 136              		.cfi_endproc
 137              	.LFE49:
 138              		.globl	__gxx_personality_v0
 139              		.section	.gcc_except_table,"a",@progbits
 140              	.LLSDA49:
 141 0000 FF       		.byte	0xff
 142 0001 FF       		.byte	0xff
 143 0002 03       		.byte	0x3
 144 0003 00       		.byte	0
 145              		.text
 147              		.globl	_ZN9SemaphoreD1Ev
 148              		.set	_ZN9SemaphoreD1Ev,_ZN9SemaphoreD2Ev
 149              		.align	2
 150              		.globl	_ZN6Thread5startEv
 152              	_ZN6Thread5startEv:
 153              	.LFB32:
   4:src/syscall_cpp.cpp ****     thread_start(&myHandle);
 154              		.loc 2 4 21 is_stmt 1
 155              		.cfi_startproc
 156              	.LVL8:
 157 0050 130101FF 		addi	sp,sp,-16
 158              		.cfi_def_cfa_offset 16
 159 0054 23341100 		sd	ra,8(sp)
 160 0058 23308100 		sd	s0,0(sp)
 161              		.cfi_offset 1, -8
 162              		.cfi_offset 8, -16
 163 005c 13040101 		addi	s0,sp,16
 164              		.cfi_def_cfa 8, 0
   5:src/syscall_cpp.cpp ****     return 0;
 165              		.loc 2 5 5
   5:src/syscall_cpp.cpp ****     return 0;
 166              		.loc 2 5 17 is_stmt 0
 167 0060 13058500 		addi	a0,a0,8
 168              	.LVL9:
 169 0064 97000000 		call	_Z12thread_startPP3TCB@plt
 169      E7800000 
 170              	.LVL10:
   6:src/syscall_cpp.cpp **** }
 171              		.loc 2 6 5 is_stmt 1
GAS LISTING /tmp/ccQvownj.s 			page 5


   7:src/syscall_cpp.cpp **** void Thread::dispatch (){
 172              		.loc 2 7 1 is_stmt 0
 173 006c 13050000 		li	a0,0
 174 0070 83308100 		ld	ra,8(sp)
 175              		.cfi_restore 1
 176 0074 03340100 		ld	s0,0(sp)
 177              		.cfi_restore 8
 178              		.cfi_def_cfa 2, 16
 179 0078 13010101 		addi	sp,sp,16
 180              		.cfi_def_cfa_offset 0
 181 007c 67800000 		jr	ra
 182              		.cfi_endproc
 183              	.LFE32:
 185              		.align	2
 186              		.globl	_ZN6Thread8dispatchEv
 188              	_ZN6Thread8dispatchEv:
 189              	.LFB33:
   8:src/syscall_cpp.cpp ****     thread_dispatch();
 190              		.loc 2 8 25 is_stmt 1
 191              		.cfi_startproc
 192 0080 130101FF 		addi	sp,sp,-16
 193              		.cfi_def_cfa_offset 16
 194 0084 23341100 		sd	ra,8(sp)
 195 0088 23308100 		sd	s0,0(sp)
 196              		.cfi_offset 1, -8
 197              		.cfi_offset 8, -16
 198 008c 13040101 		addi	s0,sp,16
 199              		.cfi_def_cfa 8, 0
   9:src/syscall_cpp.cpp **** }
 200              		.loc 2 9 5
   9:src/syscall_cpp.cpp **** }
 201              		.loc 2 9 20 is_stmt 0
 202 0090 97000000 		call	_Z15thread_dispatchv@plt
 202      E7800000 
 203              	.LVL11:
  10:src/syscall_cpp.cpp **** 
 204              		.loc 2 10 1
 205 0098 83308100 		ld	ra,8(sp)
 206              		.cfi_restore 1
 207 009c 03340100 		ld	s0,0(sp)
 208              		.cfi_restore 8
 209              		.cfi_def_cfa 2, 16
 210 00a0 13010101 		addi	sp,sp,16
 211              		.cfi_def_cfa_offset 0
 212 00a4 67800000 		jr	ra
 213              		.cfi_endproc
 214              	.LFE33:
 216              		.align	2
 217              		.globl	_ZN6ThreadC2EPFvPvES0_
 219              	_ZN6ThreadC2EPFvPvES0_:
 220              	.LFB35:
  12:src/syscall_cpp.cpp ****     thread_create2(&myHandle, body, arg);
 221              		.loc 2 12 1 is_stmt 1
 222              		.cfi_startproc
 223              	.LVL12:
 224 00a8 130101FF 		addi	sp,sp,-16
 225              		.cfi_def_cfa_offset 16
GAS LISTING /tmp/ccQvownj.s 			page 6


 226 00ac 23341100 		sd	ra,8(sp)
 227 00b0 23308100 		sd	s0,0(sp)
 228              		.cfi_offset 1, -8
 229              		.cfi_offset 8, -16
 230 00b4 13040101 		addi	s0,sp,16
 231              		.cfi_def_cfa 8, 0
 232              	.LBB3:
  12:src/syscall_cpp.cpp ****     thread_create2(&myHandle, body, arg);
 233              		.loc 2 12 46 is_stmt 0
 234 00b8 97070000 		lla	a5,_ZTV6Thread+16
 234      93870700 
 235 00c0 2330F500 		sd	a5,0(a0)
  13:src/syscall_cpp.cpp **** }
 236              		.loc 2 13 5 is_stmt 1
  13:src/syscall_cpp.cpp **** }
 237              		.loc 2 13 19 is_stmt 0
 238 00c4 13058500 		addi	a0,a0,8
 239              	.LVL13:
 240 00c8 97000000 		call	_Z14thread_create2PP3TCBPFvPvES2_@plt
 240      E7800000 
 241              	.LVL14:
 242              	.LBE3:
  14:src/syscall_cpp.cpp **** Thread::Thread() {
 243              		.loc 2 14 1
 244 00d0 83308100 		ld	ra,8(sp)
 245              		.cfi_restore 1
 246 00d4 03340100 		ld	s0,0(sp)
 247              		.cfi_restore 8
 248              		.cfi_def_cfa 2, 16
 249 00d8 13010101 		addi	sp,sp,16
 250              		.cfi_def_cfa_offset 0
 251 00dc 67800000 		jr	ra
 252              		.cfi_endproc
 253              	.LFE35:
 255              		.globl	_ZN6ThreadC1EPFvPvES0_
 256              		.set	_ZN6ThreadC1EPFvPvES0_,_ZN6ThreadC2EPFvPvES0_
 257              		.align	2
 258              		.globl	_ZN6ThreadC2Ev
 260              	_ZN6ThreadC2Ev:
 261              	.LFB38:
  15:src/syscall_cpp.cpp ****     thread_create2(&myHandle, myWrapper, this);
 262              		.loc 2 15 1 is_stmt 1
 263              		.cfi_startproc
 264              	.LVL15:
 265 00e0 130101FF 		addi	sp,sp,-16
 266              		.cfi_def_cfa_offset 16
 267 00e4 23341100 		sd	ra,8(sp)
 268 00e8 23308100 		sd	s0,0(sp)
 269              		.cfi_offset 1, -8
 270              		.cfi_offset 8, -16
 271 00ec 13040101 		addi	s0,sp,16
 272              		.cfi_def_cfa 8, 0
 273              	.LBB4:
  15:src/syscall_cpp.cpp ****     thread_create2(&myHandle, myWrapper, this);
 274              		.loc 2 15 16 is_stmt 0
 275 00f0 97070000 		lla	a5,_ZTV6Thread+16
 275      93870700 
GAS LISTING /tmp/ccQvownj.s 			page 7


 276 00f8 2330F500 		sd	a5,0(a0)
  16:src/syscall_cpp.cpp **** }
 277              		.loc 2 16 5 is_stmt 1
  16:src/syscall_cpp.cpp **** }
 278              		.loc 2 16 19 is_stmt 0
 279 00fc 13060500 		mv	a2,a0
 280 0100 97050000 		lla	a1,_ZN6Thread9myWrapperEPv
 280      93850500 
 281 0108 13058500 		addi	a0,a0,8
 282              	.LVL16:
 283 010c 97000000 		call	_Z14thread_create2PP3TCBPFvPvES2_@plt
 283      E7800000 
 284              	.LVL17:
 285              	.LBE4:
  17:src/syscall_cpp.cpp **** 
 286              		.loc 2 17 1
 287 0114 83308100 		ld	ra,8(sp)
 288              		.cfi_restore 1
 289 0118 03340100 		ld	s0,0(sp)
 290              		.cfi_restore 8
 291              		.cfi_def_cfa 2, 16
 292 011c 13010101 		addi	sp,sp,16
 293              		.cfi_def_cfa_offset 0
 294 0120 67800000 		jr	ra
 295              		.cfi_endproc
 296              	.LFE38:
 298              		.globl	_ZN6ThreadC1Ev
 299              		.set	_ZN6ThreadC1Ev,_ZN6ThreadC2Ev
 300              		.align	2
 301              		.globl	_ZN6Thread5sleepEm
 303              	_ZN6Thread5sleepEm:
 304              	.LFB44:
  21:src/syscall_cpp.cpp ****     return 0;
 305              		.loc 2 21 27 is_stmt 1
 306              		.cfi_startproc
 307 0124 130101FF 		addi	sp,sp,-16
 308              		.cfi_def_cfa_offset 16
 309 0128 23348100 		sd	s0,8(sp)
 310              		.cfi_offset 8, -8
 311 012c 13040101 		addi	s0,sp,16
 312              		.cfi_def_cfa 8, 0
  22:src/syscall_cpp.cpp **** }
 313              		.loc 2 22 5
  23:src/syscall_cpp.cpp **** 
 314              		.loc 2 23 1 is_stmt 0
 315 0130 13050000 		li	a0,0
 316 0134 03348100 		ld	s0,8(sp)
 317              		.cfi_restore 8
 318              		.cfi_def_cfa 2, 16
 319 0138 13010101 		addi	sp,sp,16
 320              		.cfi_def_cfa_offset 0
 321 013c 67800000 		jr	ra
 322              		.cfi_endproc
 323              	.LFE44:
 325              		.align	2
 326              		.globl	_ZN9SemaphoreC2Ej
 328              	_ZN9SemaphoreC2Ej:
GAS LISTING /tmp/ccQvownj.s 			page 8


 329              	.LFB46:
  25:src/syscall_cpp.cpp ****     sem_open(&myHandle, init);
 330              		.loc 2 25 1 is_stmt 1
 331              		.cfi_startproc
 332              	.LVL18:
 333 0140 130101FF 		addi	sp,sp,-16
 334              		.cfi_def_cfa_offset 16
 335 0144 23341100 		sd	ra,8(sp)
 336 0148 23308100 		sd	s0,0(sp)
 337              		.cfi_offset 1, -8
 338              		.cfi_offset 8, -16
 339 014c 13040101 		addi	s0,sp,16
 340              		.cfi_def_cfa 8, 0
 341              	.LBB5:
  25:src/syscall_cpp.cpp ****     sem_open(&myHandle, init);
 342              		.loc 2 25 39 is_stmt 0
 343 0150 97070000 		lla	a5,_ZTV9Semaphore+16
 343      93870700 
 344 0158 2330F500 		sd	a5,0(a0)
  26:src/syscall_cpp.cpp **** }
 345              		.loc 2 26 5 is_stmt 1
  26:src/syscall_cpp.cpp **** }
 346              		.loc 2 26 13 is_stmt 0
 347 015c 13058500 		addi	a0,a0,8
 348              	.LVL19:
 349 0160 97000000 		call	_Z8sem_openPP10Ksemaphorej@plt
 349      E7800000 
 350              	.LVL20:
 351              	.LBE5:
  27:src/syscall_cpp.cpp **** 
 352              		.loc 2 27 1
 353 0168 83308100 		ld	ra,8(sp)
 354              		.cfi_restore 1
 355 016c 03340100 		ld	s0,0(sp)
 356              		.cfi_restore 8
 357              		.cfi_def_cfa 2, 16
 358 0170 13010101 		addi	sp,sp,16
 359              		.cfi_def_cfa_offset 0
 360 0174 67800000 		jr	ra
 361              		.cfi_endproc
 362              	.LFE46:
 364              		.globl	_ZN9SemaphoreC1Ej
 365              		.set	_ZN9SemaphoreC1Ej,_ZN9SemaphoreC2Ej
 366              		.align	2
 367              		.globl	_ZN9Semaphore4waitEv
 369              	_ZN9Semaphore4waitEv:
 370              	.LFB52:
  32:src/syscall_cpp.cpp **** 
  33:src/syscall_cpp.cpp **** int Semaphore::wait() {
 371              		.loc 2 33 23 is_stmt 1
 372              		.cfi_startproc
 373              	.LVL21:
 374 0178 130101FF 		addi	sp,sp,-16
 375              		.cfi_def_cfa_offset 16
 376 017c 23341100 		sd	ra,8(sp)
 377 0180 23308100 		sd	s0,0(sp)
 378              		.cfi_offset 1, -8
GAS LISTING /tmp/ccQvownj.s 			page 9


 379              		.cfi_offset 8, -16
 380 0184 13040101 		addi	s0,sp,16
 381              		.cfi_def_cfa 8, 0
  34:src/syscall_cpp.cpp ****     return sem_wait(myHandle);
 382              		.loc 2 34 5
 383              		.loc 2 34 20 is_stmt 0
 384 0188 03358500 		ld	a0,8(a0)
 385              	.LVL22:
 386 018c 97000000 		call	_Z8sem_waitP10Ksemaphore@plt
 386      E7800000 
 387              	.LVL23:
  35:src/syscall_cpp.cpp **** }
 388              		.loc 2 35 1
 389 0194 83308100 		ld	ra,8(sp)
 390              		.cfi_restore 1
 391 0198 03340100 		ld	s0,0(sp)
 392              		.cfi_restore 8
 393              		.cfi_def_cfa 2, 16
 394 019c 13010101 		addi	sp,sp,16
 395              		.cfi_def_cfa_offset 0
 396 01a0 67800000 		jr	ra
 397              		.cfi_endproc
 398              	.LFE52:
 400              		.align	2
 401              		.globl	_ZN9Semaphore6signalEv
 403              	_ZN9Semaphore6signalEv:
 404              	.LFB53:
  36:src/syscall_cpp.cpp **** 
  37:src/syscall_cpp.cpp **** int Semaphore::signal() {
 405              		.loc 2 37 25 is_stmt 1
 406              		.cfi_startproc
 407              	.LVL24:
 408 01a4 130101FF 		addi	sp,sp,-16
 409              		.cfi_def_cfa_offset 16
 410 01a8 23341100 		sd	ra,8(sp)
 411 01ac 23308100 		sd	s0,0(sp)
 412              		.cfi_offset 1, -8
 413              		.cfi_offset 8, -16
 414 01b0 13040101 		addi	s0,sp,16
 415              		.cfi_def_cfa 8, 0
  38:src/syscall_cpp.cpp ****     return sem_signal(myHandle);
 416              		.loc 2 38 5
 417              		.loc 2 38 22 is_stmt 0
 418 01b4 03358500 		ld	a0,8(a0)
 419              	.LVL25:
 420 01b8 97000000 		call	_Z10sem_signalP10Ksemaphore@plt
 420      E7800000 
 421              	.LVL26:
  39:src/syscall_cpp.cpp **** }
 422              		.loc 2 39 1
 423 01c0 83308100 		ld	ra,8(sp)
 424              		.cfi_restore 1
 425 01c4 03340100 		ld	s0,0(sp)
 426              		.cfi_restore 8
 427              		.cfi_def_cfa 2, 16
 428 01c8 13010101 		addi	sp,sp,16
 429              		.cfi_def_cfa_offset 0
GAS LISTING /tmp/ccQvownj.s 			page 10


 430 01cc 67800000 		jr	ra
 431              		.cfi_endproc
 432              	.LFE53:
 434              		.align	2
 435              		.globl	_ZN7Console4getcEv
 437              	_ZN7Console4getcEv:
 438              	.LFB54:
  40:src/syscall_cpp.cpp **** 
  41:src/syscall_cpp.cpp **** char Console::getc() {
 439              		.loc 2 41 22 is_stmt 1
 440              		.cfi_startproc
 441 01d0 130101FF 		addi	sp,sp,-16
 442              		.cfi_def_cfa_offset 16
 443 01d4 23341100 		sd	ra,8(sp)
 444 01d8 23308100 		sd	s0,0(sp)
 445              		.cfi_offset 1, -8
 446              		.cfi_offset 8, -16
 447 01dc 13040101 		addi	s0,sp,16
 448              		.cfi_def_cfa 8, 0
  42:src/syscall_cpp.cpp ****     return __getc();
 449              		.loc 2 42 5
 450              		.loc 2 42 18 is_stmt 0
 451 01e0 97000000 		call	__getc@plt
 451      E7800000 
 452              	.LVL27:
  43:src/syscall_cpp.cpp **** }
 453              		.loc 2 43 1
 454 01e8 83308100 		ld	ra,8(sp)
 455              		.cfi_restore 1
 456 01ec 03340100 		ld	s0,0(sp)
 457              		.cfi_restore 8
 458              		.cfi_def_cfa 2, 16
 459 01f0 13010101 		addi	sp,sp,16
 460              		.cfi_def_cfa_offset 0
 461 01f4 67800000 		jr	ra
 462              		.cfi_endproc
 463              	.LFE54:
 465              		.align	2
 466              		.globl	_ZN7Console4putcEc
 468              	_ZN7Console4putcEc:
 469              	.LFB55:
  44:src/syscall_cpp.cpp **** 
  45:src/syscall_cpp.cpp **** void Console::putc(char c) {
 470              		.loc 2 45 28 is_stmt 1
 471              		.cfi_startproc
 472              	.LVL28:
 473 01f8 130101FF 		addi	sp,sp,-16
 474              		.cfi_def_cfa_offset 16
 475 01fc 23341100 		sd	ra,8(sp)
 476 0200 23308100 		sd	s0,0(sp)
 477              		.cfi_offset 1, -8
 478              		.cfi_offset 8, -16
 479 0204 13040101 		addi	s0,sp,16
 480              		.cfi_def_cfa 8, 0
  46:src/syscall_cpp.cpp ****     __putc(c);
 481              		.loc 2 46 5
 482              		.loc 2 46 11 is_stmt 0
GAS LISTING /tmp/ccQvownj.s 			page 11


 483 0208 97000000 		call	__putc@plt
 483      E7800000 
 484              	.LVL29:
  47:src/syscall_cpp.cpp **** }
 485              		.loc 2 47 1
 486 0210 83308100 		ld	ra,8(sp)
 487              		.cfi_restore 1
 488 0214 03340100 		ld	s0,0(sp)
 489              		.cfi_restore 8
 490              		.cfi_def_cfa 2, 16
 491 0218 13010101 		addi	sp,sp,16
 492              		.cfi_def_cfa_offset 0
 493 021c 67800000 		jr	ra
 494              		.cfi_endproc
 495              	.LFE55:
 497              		.align	2
 498              		.globl	_Znwm
 500              	_Znwm:
 501              	.LFB56:
  48:src/syscall_cpp.cpp **** 
  49:src/syscall_cpp.cpp **** void *operator new(size_t n)
  50:src/syscall_cpp.cpp **** {
 502              		.loc 2 50 1 is_stmt 1
 503              		.cfi_startproc
 504              	.LVL30:
 505 0220 130101FF 		addi	sp,sp,-16
 506              		.cfi_def_cfa_offset 16
 507 0224 23341100 		sd	ra,8(sp)
 508 0228 23308100 		sd	s0,0(sp)
 509              		.cfi_offset 1, -8
 510              		.cfi_offset 8, -16
 511 022c 13040101 		addi	s0,sp,16
 512              		.cfi_def_cfa 8, 0
  51:src/syscall_cpp.cpp ****     return MemoryAllocator::malloc(n);
 513              		.loc 2 51 5
 514              		.loc 2 51 35 is_stmt 0
 515 0230 97000000 		call	_ZN15MemoryAllocator6mallocEm@plt
 515      E7800000 
 516              	.LVL31:
  52:src/syscall_cpp.cpp **** //    return mem_alloc(n);
  53:src/syscall_cpp.cpp **** }
 517              		.loc 2 53 1
 518 0238 83308100 		ld	ra,8(sp)
 519              		.cfi_restore 1
 520 023c 03340100 		ld	s0,0(sp)
 521              		.cfi_restore 8
 522              		.cfi_def_cfa 2, 16
 523 0240 13010101 		addi	sp,sp,16
 524              		.cfi_def_cfa_offset 0
 525 0244 67800000 		jr	ra
 526              		.cfi_endproc
 527              	.LFE56:
 529              		.align	2
 530              		.globl	_Znam
 532              	_Znam:
 533              	.LFB57:
  54:src/syscall_cpp.cpp **** 
GAS LISTING /tmp/ccQvownj.s 			page 12


  55:src/syscall_cpp.cpp **** void *operator new[](size_t n)
  56:src/syscall_cpp.cpp **** {
 534              		.loc 2 56 1 is_stmt 1
 535              		.cfi_startproc
 536              	.LVL32:
 537 0248 130101FF 		addi	sp,sp,-16
 538              		.cfi_def_cfa_offset 16
 539 024c 23341100 		sd	ra,8(sp)
 540 0250 23308100 		sd	s0,0(sp)
 541              		.cfi_offset 1, -8
 542              		.cfi_offset 8, -16
 543 0254 13040101 		addi	s0,sp,16
 544              		.cfi_def_cfa 8, 0
  57:src/syscall_cpp.cpp ****     return MemoryAllocator::malloc(n);
 545              		.loc 2 57 5
 546              		.loc 2 57 35 is_stmt 0
 547 0258 97000000 		call	_ZN15MemoryAllocator6mallocEm@plt
 547      E7800000 
 548              	.LVL33:
  58:src/syscall_cpp.cpp **** //   return mem_alloc(n);
  59:src/syscall_cpp.cpp **** }
 549              		.loc 2 59 1
 550 0260 83308100 		ld	ra,8(sp)
 551              		.cfi_restore 1
 552 0264 03340100 		ld	s0,0(sp)
 553              		.cfi_restore 8
 554              		.cfi_def_cfa 2, 16
 555 0268 13010101 		addi	sp,sp,16
 556              		.cfi_def_cfa_offset 0
 557 026c 67800000 		jr	ra
 558              		.cfi_endproc
 559              	.LFE57:
 561              		.align	2
 562              		.globl	_ZdlPv
 564              	_ZdlPv:
 565              	.LFB58:
  60:src/syscall_cpp.cpp **** 
  61:src/syscall_cpp.cpp **** void operator delete(void *p)
  62:src/syscall_cpp.cpp **** {
 566              		.loc 2 62 1 is_stmt 1
 567              		.cfi_startproc
 568              	.LVL34:
 569 0270 130101FF 		addi	sp,sp,-16
 570              		.cfi_def_cfa_offset 16
 571 0274 23341100 		sd	ra,8(sp)
 572 0278 23308100 		sd	s0,0(sp)
 573              		.cfi_offset 1, -8
 574              		.cfi_offset 8, -16
 575 027c 13040101 		addi	s0,sp,16
 576              		.cfi_def_cfa 8, 0
  63:src/syscall_cpp.cpp ****     MemoryAllocator::free(p);
 577              		.loc 2 63 5
 578              		.loc 2 63 26 is_stmt 0
 579 0280 97000000 		call	_ZN15MemoryAllocator4freeEPv@plt
 579      E7800000 
 580              	.LVL35:
  64:src/syscall_cpp.cpp **** //    mem_free(p);
GAS LISTING /tmp/ccQvownj.s 			page 13


  65:src/syscall_cpp.cpp **** }
 581              		.loc 2 65 1
 582 0288 83308100 		ld	ra,8(sp)
 583              		.cfi_restore 1
 584 028c 03340100 		ld	s0,0(sp)
 585              		.cfi_restore 8
 586              		.cfi_def_cfa 2, 16
 587 0290 13010101 		addi	sp,sp,16
 588              		.cfi_def_cfa_offset 0
 589 0294 67800000 		jr	ra
 590              		.cfi_endproc
 591              	.LFE58:
 593              		.align	2
 594              		.globl	_ZN6ThreadD0Ev
 596              	_ZN6ThreadD0Ev:
 597              	.LFB43:
   7:src/../h/syscall_cpp.hpp ****     using Body = void (*)(void*);
 598              		.loc 1 7 7 is_stmt 1
 599              		.cfi_startproc
 600              	.LVL36:
 601 0298 130101FF 		addi	sp,sp,-16
 602              		.cfi_def_cfa_offset 16
 603 029c 23341100 		sd	ra,8(sp)
 604 02a0 23308100 		sd	s0,0(sp)
 605              		.cfi_offset 1, -8
 606              		.cfi_offset 8, -16
 607 02a4 13040101 		addi	s0,sp,16
 608              		.cfi_def_cfa 8, 0
   7:src/../h/syscall_cpp.hpp ****     using Body = void (*)(void*);
 609              		.loc 1 7 7 is_stmt 0
 610 02a8 97000000 		call	_ZdlPv
 610      E7800000 
 611              	.LVL37:
 612 02b0 83308100 		ld	ra,8(sp)
 613              		.cfi_restore 1
 614 02b4 03340100 		ld	s0,0(sp)
 615              		.cfi_restore 8
 616              		.cfi_def_cfa 2, 16
 617 02b8 13010101 		addi	sp,sp,16
 618              		.cfi_def_cfa_offset 0
 619 02bc 67800000 		jr	ra
 620              		.cfi_endproc
 621              	.LFE43:
 623              		.align	2
 624              		.globl	_ZN9SemaphoreD0Ev
 626              	_ZN9SemaphoreD0Ev:
 627              	.LFB51:
  29:src/syscall_cpp.cpp ****     sem_close(myHandle);
 628              		.loc 2 29 1 is_stmt 1
 629              		.cfi_startproc
 630              	.LVL38:
 631 02c0 130101FE 		addi	sp,sp,-32
 632              		.cfi_def_cfa_offset 32
 633 02c4 233C1100 		sd	ra,24(sp)
 634 02c8 23388100 		sd	s0,16(sp)
 635 02cc 23349100 		sd	s1,8(sp)
 636              		.cfi_offset 1, -8
GAS LISTING /tmp/ccQvownj.s 			page 14


 637              		.cfi_offset 8, -16
 638              		.cfi_offset 9, -24
 639 02d0 13040102 		addi	s0,sp,32
 640              		.cfi_def_cfa 8, 0
 641 02d4 93040500 		mv	s1,a0
  31:src/syscall_cpp.cpp **** 
 642              		.loc 2 31 1 is_stmt 0
 643 02d8 97000000 		call	_ZN9SemaphoreD1Ev
 643      E7800000 
 644              	.LVL39:
 645 02e0 13850400 		mv	a0,s1
 646 02e4 97000000 		call	_ZdlPv
 646      E7800000 
 647              	.LVL40:
 648 02ec 83308101 		ld	ra,24(sp)
 649              		.cfi_restore 1
 650 02f0 03340101 		ld	s0,16(sp)
 651              		.cfi_restore 8
 652              		.cfi_def_cfa 2, 32
 653 02f4 83348100 		ld	s1,8(sp)
 654              		.cfi_restore 9
 655              	.LVL41:
 656 02f8 13010102 		addi	sp,sp,32
 657              		.cfi_def_cfa_offset 0
 658 02fc 67800000 		jr	ra
 659              		.cfi_endproc
 660              	.LFE51:
 662              		.align	2
 663              		.globl	_ZdaPv
 665              	_ZdaPv:
 666              	.LFB59:
  66:src/syscall_cpp.cpp **** 
  67:src/syscall_cpp.cpp **** void operator delete[](void *p)
  68:src/syscall_cpp.cpp **** {
 667              		.loc 2 68 1 is_stmt 1
 668              		.cfi_startproc
 669              	.LVL42:
 670 0300 130101FF 		addi	sp,sp,-16
 671              		.cfi_def_cfa_offset 16
 672 0304 23341100 		sd	ra,8(sp)
 673 0308 23308100 		sd	s0,0(sp)
 674              		.cfi_offset 1, -8
 675              		.cfi_offset 8, -16
 676 030c 13040101 		addi	s0,sp,16
 677              		.cfi_def_cfa 8, 0
  69:src/syscall_cpp.cpp ****     MemoryAllocator::free(p);
 678              		.loc 2 69 5
 679              		.loc 2 69 26 is_stmt 0
 680 0310 97000000 		call	_ZN15MemoryAllocator4freeEPv@plt
 680      E7800000 
 681              	.LVL43:
  70:src/syscall_cpp.cpp **** //    mem_free(p);
  71:src/syscall_cpp.cpp **** }
 682              		.loc 2 71 1
 683 0318 83308100 		ld	ra,8(sp)
 684              		.cfi_restore 1
 685 031c 03340100 		ld	s0,0(sp)
GAS LISTING /tmp/ccQvownj.s 			page 15


 686              		.cfi_restore 8
 687              		.cfi_def_cfa 2, 16
 688 0320 13010101 		addi	sp,sp,16
 689              		.cfi_def_cfa_offset 0
 690 0324 67800000 		jr	ra
 691              		.cfi_endproc
 692              	.LFE59:
 694              		.weak	_ZTV6Thread
 695              		.section	.data.rel.ro.local._ZTV6Thread,"awG",@progbits,_ZTV6Thread,comdat
 696              		.align	3
 699              	_ZTV6Thread:
 700 0000 00000000 		.dword	0
 700      00000000 
 701 0008 00000000 		.dword	0
 701      00000000 
 702 0010 00000000 		.dword	_ZN6ThreadD1Ev
 702      00000000 
 703 0018 00000000 		.dword	_ZN6ThreadD0Ev
 703      00000000 
 704 0020 00000000 		.dword	_ZN6Thread3runEv
 704      00000000 
 705              		.weak	_ZTV9Semaphore
 706              		.section	.data.rel.ro.local._ZTV9Semaphore,"awG",@progbits,_ZTV9Semaphore,comdat
 707              		.align	3
 710              	_ZTV9Semaphore:
 711 0000 00000000 		.dword	0
 711      00000000 
 712 0008 00000000 		.dword	0
 712      00000000 
 713 0010 00000000 		.dword	_ZN9SemaphoreD1Ev
 713      00000000 
 714 0018 00000000 		.dword	_ZN9SemaphoreD0Ev
 714      00000000 
 715              		.text
 716              	.Letext0:
 717              		.file 3 "src/../h/../lib/hw.h"
 718              		.file 4 "src/../h/MemoryAllocator.hpp"
 719              		.file 5 "src/../h/list.hpp"
 720              		.file 6 "src/../h/TCB.hpp"
 721              		.file 7 "src/../h/Ksemaphore.hpp"
 722              		.file 8 "src/../h/../lib/console.h"
 723              		.file 9 "src/../h/syscall_c.h"
 4510              		.align	3
 4513              	DW.ref.__gxx_personality_v0:
 4514 0000 00000000 		.dword	__gxx_personality_v0
 4514      00000000 
 4515              		.ident	"GCC: (Ubuntu 9.4.0-1ubuntu1~20.04) 9.4.0"
 4516              		.section	.note.GNU-stack,"",@progbits
GAS LISTING /tmp/ccQvownj.s 			page 16


DEFINED SYMBOLS
                            *ABS*:0000000000000000 syscall_cpp.cpp
     /tmp/ccQvownj.s:10     .text._ZN6Thread3runEv:0000000000000000 _ZN6Thread3runEv
     /tmp/ccQvownj.s:14     .text._ZN6Thread3runEv:0000000000000000 .L0 
     /tmp/ccQvownj.s:16     .text._ZN6Thread3runEv:0000000000000000 .L0 
     /tmp/ccQvownj.s:17     .text._ZN6Thread3runEv:0000000000000004 .L0 
     /tmp/ccQvownj.s:19     .text._ZN6Thread3runEv:0000000000000008 .L0 
     /tmp/ccQvownj.s:21     .text._ZN6Thread3runEv:000000000000000c .L0 
     /tmp/ccQvownj.s:23     .text._ZN6Thread3runEv:000000000000000c .L0 
     /tmp/ccQvownj.s:24     .text._ZN6Thread3runEv:0000000000000010 .L0 
     /tmp/ccQvownj.s:25     .text._ZN6Thread3runEv:0000000000000010 .L0 
     /tmp/ccQvownj.s:27     .text._ZN6Thread3runEv:0000000000000014 .L0 
     /tmp/ccQvownj.s:29     .text._ZN6Thread3runEv:0000000000000018 .L0 
     /tmp/ccQvownj.s:36     .text._ZN6Thread9myWrapperEPv:0000000000000000 _ZN6Thread9myWrapperEPv
     /tmp/ccQvownj.s:39     .text._ZN6Thread9myWrapperEPv:0000000000000000 .L0 
     /tmp/ccQvownj.s:41     .text._ZN6Thread9myWrapperEPv:0000000000000000 .L0 
     /tmp/ccQvownj.s:42     .text._ZN6Thread9myWrapperEPv:0000000000000004 .L0 
     /tmp/ccQvownj.s:45     .text._ZN6Thread9myWrapperEPv:000000000000000c .L0 
     /tmp/ccQvownj.s:46     .text._ZN6Thread9myWrapperEPv:000000000000000c .L0 
     /tmp/ccQvownj.s:48     .text._ZN6Thread9myWrapperEPv:0000000000000010 .L0 
     /tmp/ccQvownj.s:51     .text._ZN6Thread9myWrapperEPv:0000000000000010 .L0 
     /tmp/ccQvownj.s:52     .text._ZN6Thread9myWrapperEPv:0000000000000010 .L0 
     /tmp/ccQvownj.s:53     .text._ZN6Thread9myWrapperEPv:0000000000000010 .L0 
     /tmp/ccQvownj.s:56     .text._ZN6Thread9myWrapperEPv:0000000000000018 .L0 
     /tmp/ccQvownj.s:59     .text._ZN6Thread9myWrapperEPv:000000000000001c .L0 
     /tmp/ccQvownj.s:60     .text._ZN6Thread9myWrapperEPv:0000000000000020 .L0 
     /tmp/ccQvownj.s:62     .text._ZN6Thread9myWrapperEPv:0000000000000024 .L0 
     /tmp/ccQvownj.s:63     .text._ZN6Thread9myWrapperEPv:0000000000000024 .L0 
     /tmp/ccQvownj.s:65     .text._ZN6Thread9myWrapperEPv:0000000000000028 .L0 
     /tmp/ccQvownj.s:67     .text._ZN6Thread9myWrapperEPv:000000000000002c .L0 
     /tmp/ccQvownj.s:74     .text:0000000000000000 _ZN6ThreadD2Ev
     /tmp/ccQvownj.s:77     .text:0000000000000000 .L0 
     /tmp/ccQvownj.s:79     .text:0000000000000000 .L0 
     /tmp/ccQvownj.s:80     .text:0000000000000004 .L0 
     /tmp/ccQvownj.s:82     .text:0000000000000008 .L0 
     /tmp/ccQvownj.s:84     .text:000000000000000c .L0 
     /tmp/ccQvownj.s:86     .text:000000000000000c .L0 
     /tmp/ccQvownj.s:87     .text:0000000000000010 .L0 
     /tmp/ccQvownj.s:88     .text:0000000000000010 .L0 
     /tmp/ccQvownj.s:90     .text:0000000000000014 .L0 
     /tmp/ccQvownj.s:92     .text:0000000000000018 .L0 
     /tmp/ccQvownj.s:74     .text:0000000000000000 _ZN6ThreadD1Ev
     /tmp/ccQvownj.s:100    .text:0000000000000018 _ZN9SemaphoreD2Ev
     /tmp/ccQvownj.s:104    .text:0000000000000018 .L0 
     /tmp/ccQvownj.s:4513   .data.rel.local.DW.ref.__gxx_personality_v0:0000000000000000 DW.ref.__gxx_personality_v0
     /tmp/ccQvownj.s:108    .text:0000000000000018 .L0 
     /tmp/ccQvownj.s:109    .text:000000000000001c .L0 
     /tmp/ccQvownj.s:112    .text:0000000000000024 .L0 
     /tmp/ccQvownj.s:113    .text:0000000000000024 .L0 
     /tmp/ccQvownj.s:115    .text:0000000000000028 .L0 
     /tmp/ccQvownj.s:710    .data.rel.ro.local._ZTV9Semaphore:0000000000000000 _ZTV9Semaphore
     /tmp/ccQvownj.s:118    .text:0000000000000028 .L0 
     /tmp/ccQvownj.s:121    .text:0000000000000034 .L0 
     /tmp/ccQvownj.s:122    .text:0000000000000034 .L0 
     /tmp/ccQvownj.s:128    .text:0000000000000040 .L0 
     /tmp/ccQvownj.s:129    .text:0000000000000044 .L0 
     /tmp/ccQvownj.s:131    .text:0000000000000048 .L0 
GAS LISTING /tmp/ccQvownj.s 			page 17


     /tmp/ccQvownj.s:132    .text:0000000000000048 .L0 
     /tmp/ccQvownj.s:134    .text:000000000000004c .L0 
     /tmp/ccQvownj.s:136    .text:0000000000000050 .L0 
     /tmp/ccQvownj.s:100    .text:0000000000000018 _ZN9SemaphoreD1Ev
     /tmp/ccQvownj.s:152    .text:0000000000000050 _ZN6Thread5startEv
     /tmp/ccQvownj.s:155    .text:0000000000000050 .L0 
     /tmp/ccQvownj.s:157    .text:0000000000000050 .L0 
     /tmp/ccQvownj.s:158    .text:0000000000000054 .L0 
     /tmp/ccQvownj.s:161    .text:000000000000005c .L0 
     /tmp/ccQvownj.s:162    .text:000000000000005c .L0 
     /tmp/ccQvownj.s:164    .text:0000000000000060 .L0 
     /tmp/ccQvownj.s:166    .text:0000000000000060 .L0 
     /tmp/ccQvownj.s:167    .text:0000000000000060 .L0 
     /tmp/ccQvownj.s:172    .text:000000000000006c .L0 
     /tmp/ccQvownj.s:173    .text:000000000000006c .L0 
     /tmp/ccQvownj.s:175    .text:0000000000000074 .L0 
     /tmp/ccQvownj.s:177    .text:0000000000000078 .L0 
     /tmp/ccQvownj.s:178    .text:0000000000000078 .L0 
     /tmp/ccQvownj.s:180    .text:000000000000007c .L0 
     /tmp/ccQvownj.s:182    .text:0000000000000080 .L0 
     /tmp/ccQvownj.s:188    .text:0000000000000080 _ZN6Thread8dispatchEv
     /tmp/ccQvownj.s:191    .text:0000000000000080 .L0 
     /tmp/ccQvownj.s:192    .text:0000000000000080 .L0 
     /tmp/ccQvownj.s:193    .text:0000000000000084 .L0 
     /tmp/ccQvownj.s:196    .text:000000000000008c .L0 
     /tmp/ccQvownj.s:197    .text:000000000000008c .L0 
     /tmp/ccQvownj.s:199    .text:0000000000000090 .L0 
     /tmp/ccQvownj.s:201    .text:0000000000000090 .L0 
     /tmp/ccQvownj.s:202    .text:0000000000000090 .L0 
     /tmp/ccQvownj.s:205    .text:0000000000000098 .L0 
     /tmp/ccQvownj.s:206    .text:000000000000009c .L0 
     /tmp/ccQvownj.s:208    .text:00000000000000a0 .L0 
     /tmp/ccQvownj.s:209    .text:00000000000000a0 .L0 
     /tmp/ccQvownj.s:211    .text:00000000000000a4 .L0 
     /tmp/ccQvownj.s:213    .text:00000000000000a8 .L0 
     /tmp/ccQvownj.s:219    .text:00000000000000a8 _ZN6ThreadC2EPFvPvES0_
     /tmp/ccQvownj.s:222    .text:00000000000000a8 .L0 
     /tmp/ccQvownj.s:224    .text:00000000000000a8 .L0 
     /tmp/ccQvownj.s:225    .text:00000000000000ac .L0 
     /tmp/ccQvownj.s:228    .text:00000000000000b4 .L0 
     /tmp/ccQvownj.s:229    .text:00000000000000b4 .L0 
     /tmp/ccQvownj.s:231    .text:00000000000000b8 .L0 
     /tmp/ccQvownj.s:699    .data.rel.ro.local._ZTV6Thread:0000000000000000 _ZTV6Thread
     /tmp/ccQvownj.s:234    .text:00000000000000b8 .L0 
     /tmp/ccQvownj.s:237    .text:00000000000000c4 .L0 
     /tmp/ccQvownj.s:238    .text:00000000000000c4 .L0 
     /tmp/ccQvownj.s:244    .text:00000000000000d0 .L0 
     /tmp/ccQvownj.s:245    .text:00000000000000d4 .L0 
     /tmp/ccQvownj.s:247    .text:00000000000000d8 .L0 
     /tmp/ccQvownj.s:248    .text:00000000000000d8 .L0 
     /tmp/ccQvownj.s:250    .text:00000000000000dc .L0 
     /tmp/ccQvownj.s:252    .text:00000000000000e0 .L0 
     /tmp/ccQvownj.s:219    .text:00000000000000a8 _ZN6ThreadC1EPFvPvES0_
     /tmp/ccQvownj.s:260    .text:00000000000000e0 _ZN6ThreadC2Ev
     /tmp/ccQvownj.s:263    .text:00000000000000e0 .L0 
     /tmp/ccQvownj.s:265    .text:00000000000000e0 .L0 
     /tmp/ccQvownj.s:266    .text:00000000000000e4 .L0 
GAS LISTING /tmp/ccQvownj.s 			page 18


     /tmp/ccQvownj.s:269    .text:00000000000000ec .L0 
     /tmp/ccQvownj.s:270    .text:00000000000000ec .L0 
     /tmp/ccQvownj.s:272    .text:00000000000000f0 .L0 
     /tmp/ccQvownj.s:275    .text:00000000000000f0 .L0 
     /tmp/ccQvownj.s:278    .text:00000000000000fc .L0 
     /tmp/ccQvownj.s:279    .text:00000000000000fc .L0 
     /tmp/ccQvownj.s:287    .text:0000000000000114 .L0 
     /tmp/ccQvownj.s:288    .text:0000000000000118 .L0 
     /tmp/ccQvownj.s:290    .text:000000000000011c .L0 
     /tmp/ccQvownj.s:291    .text:000000000000011c .L0 
     /tmp/ccQvownj.s:293    .text:0000000000000120 .L0 
     /tmp/ccQvownj.s:295    .text:0000000000000124 .L0 
     /tmp/ccQvownj.s:260    .text:00000000000000e0 _ZN6ThreadC1Ev
     /tmp/ccQvownj.s:303    .text:0000000000000124 _ZN6Thread5sleepEm
     /tmp/ccQvownj.s:306    .text:0000000000000124 .L0 
     /tmp/ccQvownj.s:307    .text:0000000000000124 .L0 
     /tmp/ccQvownj.s:308    .text:0000000000000128 .L0 
     /tmp/ccQvownj.s:310    .text:000000000000012c .L0 
     /tmp/ccQvownj.s:312    .text:0000000000000130 .L0 
     /tmp/ccQvownj.s:314    .text:0000000000000130 .L0 
     /tmp/ccQvownj.s:315    .text:0000000000000130 .L0 
     /tmp/ccQvownj.s:317    .text:0000000000000138 .L0 
     /tmp/ccQvownj.s:318    .text:0000000000000138 .L0 
     /tmp/ccQvownj.s:320    .text:000000000000013c .L0 
     /tmp/ccQvownj.s:322    .text:0000000000000140 .L0 
     /tmp/ccQvownj.s:328    .text:0000000000000140 _ZN9SemaphoreC2Ej
     /tmp/ccQvownj.s:331    .text:0000000000000140 .L0 
     /tmp/ccQvownj.s:333    .text:0000000000000140 .L0 
     /tmp/ccQvownj.s:334    .text:0000000000000144 .L0 
     /tmp/ccQvownj.s:337    .text:000000000000014c .L0 
     /tmp/ccQvownj.s:338    .text:000000000000014c .L0 
     /tmp/ccQvownj.s:340    .text:0000000000000150 .L0 
     /tmp/ccQvownj.s:343    .text:0000000000000150 .L0 
     /tmp/ccQvownj.s:346    .text:000000000000015c .L0 
     /tmp/ccQvownj.s:347    .text:000000000000015c .L0 
     /tmp/ccQvownj.s:353    .text:0000000000000168 .L0 
     /tmp/ccQvownj.s:354    .text:000000000000016c .L0 
     /tmp/ccQvownj.s:356    .text:0000000000000170 .L0 
     /tmp/ccQvownj.s:357    .text:0000000000000170 .L0 
     /tmp/ccQvownj.s:359    .text:0000000000000174 .L0 
     /tmp/ccQvownj.s:361    .text:0000000000000178 .L0 
     /tmp/ccQvownj.s:328    .text:0000000000000140 _ZN9SemaphoreC1Ej
     /tmp/ccQvownj.s:369    .text:0000000000000178 _ZN9Semaphore4waitEv
     /tmp/ccQvownj.s:372    .text:0000000000000178 .L0 
     /tmp/ccQvownj.s:374    .text:0000000000000178 .L0 
     /tmp/ccQvownj.s:375    .text:000000000000017c .L0 
     /tmp/ccQvownj.s:378    .text:0000000000000184 .L0 
     /tmp/ccQvownj.s:379    .text:0000000000000184 .L0 
     /tmp/ccQvownj.s:381    .text:0000000000000188 .L0 
     /tmp/ccQvownj.s:383    .text:0000000000000188 .L0 
     /tmp/ccQvownj.s:384    .text:0000000000000188 .L0 
     /tmp/ccQvownj.s:389    .text:0000000000000194 .L0 
     /tmp/ccQvownj.s:390    .text:0000000000000198 .L0 
     /tmp/ccQvownj.s:392    .text:000000000000019c .L0 
     /tmp/ccQvownj.s:393    .text:000000000000019c .L0 
     /tmp/ccQvownj.s:395    .text:00000000000001a0 .L0 
     /tmp/ccQvownj.s:397    .text:00000000000001a4 .L0 
GAS LISTING /tmp/ccQvownj.s 			page 19


     /tmp/ccQvownj.s:403    .text:00000000000001a4 _ZN9Semaphore6signalEv
     /tmp/ccQvownj.s:406    .text:00000000000001a4 .L0 
     /tmp/ccQvownj.s:408    .text:00000000000001a4 .L0 
     /tmp/ccQvownj.s:409    .text:00000000000001a8 .L0 
     /tmp/ccQvownj.s:412    .text:00000000000001b0 .L0 
     /tmp/ccQvownj.s:413    .text:00000000000001b0 .L0 
     /tmp/ccQvownj.s:415    .text:00000000000001b4 .L0 
     /tmp/ccQvownj.s:417    .text:00000000000001b4 .L0 
     /tmp/ccQvownj.s:418    .text:00000000000001b4 .L0 
     /tmp/ccQvownj.s:423    .text:00000000000001c0 .L0 
     /tmp/ccQvownj.s:424    .text:00000000000001c4 .L0 
     /tmp/ccQvownj.s:426    .text:00000000000001c8 .L0 
     /tmp/ccQvownj.s:427    .text:00000000000001c8 .L0 
     /tmp/ccQvownj.s:429    .text:00000000000001cc .L0 
     /tmp/ccQvownj.s:431    .text:00000000000001d0 .L0 
     /tmp/ccQvownj.s:437    .text:00000000000001d0 _ZN7Console4getcEv
     /tmp/ccQvownj.s:440    .text:00000000000001d0 .L0 
     /tmp/ccQvownj.s:441    .text:00000000000001d0 .L0 
     /tmp/ccQvownj.s:442    .text:00000000000001d4 .L0 
     /tmp/ccQvownj.s:445    .text:00000000000001dc .L0 
     /tmp/ccQvownj.s:446    .text:00000000000001dc .L0 
     /tmp/ccQvownj.s:448    .text:00000000000001e0 .L0 
     /tmp/ccQvownj.s:450    .text:00000000000001e0 .L0 
     /tmp/ccQvownj.s:451    .text:00000000000001e0 .L0 
     /tmp/ccQvownj.s:454    .text:00000000000001e8 .L0 
     /tmp/ccQvownj.s:455    .text:00000000000001ec .L0 
     /tmp/ccQvownj.s:457    .text:00000000000001f0 .L0 
     /tmp/ccQvownj.s:458    .text:00000000000001f0 .L0 
     /tmp/ccQvownj.s:460    .text:00000000000001f4 .L0 
     /tmp/ccQvownj.s:462    .text:00000000000001f8 .L0 
     /tmp/ccQvownj.s:468    .text:00000000000001f8 _ZN7Console4putcEc
     /tmp/ccQvownj.s:471    .text:00000000000001f8 .L0 
     /tmp/ccQvownj.s:473    .text:00000000000001f8 .L0 
     /tmp/ccQvownj.s:474    .text:00000000000001fc .L0 
     /tmp/ccQvownj.s:477    .text:0000000000000204 .L0 
     /tmp/ccQvownj.s:478    .text:0000000000000204 .L0 
     /tmp/ccQvownj.s:480    .text:0000000000000208 .L0 
     /tmp/ccQvownj.s:482    .text:0000000000000208 .L0 
     /tmp/ccQvownj.s:483    .text:0000000000000208 .L0 
     /tmp/ccQvownj.s:486    .text:0000000000000210 .L0 
     /tmp/ccQvownj.s:487    .text:0000000000000214 .L0 
     /tmp/ccQvownj.s:489    .text:0000000000000218 .L0 
     /tmp/ccQvownj.s:490    .text:0000000000000218 .L0 
     /tmp/ccQvownj.s:492    .text:000000000000021c .L0 
     /tmp/ccQvownj.s:494    .text:0000000000000220 .L0 
     /tmp/ccQvownj.s:500    .text:0000000000000220 _Znwm
     /tmp/ccQvownj.s:503    .text:0000000000000220 .L0 
     /tmp/ccQvownj.s:505    .text:0000000000000220 .L0 
     /tmp/ccQvownj.s:506    .text:0000000000000224 .L0 
     /tmp/ccQvownj.s:509    .text:000000000000022c .L0 
     /tmp/ccQvownj.s:510    .text:000000000000022c .L0 
     /tmp/ccQvownj.s:512    .text:0000000000000230 .L0 
     /tmp/ccQvownj.s:514    .text:0000000000000230 .L0 
     /tmp/ccQvownj.s:515    .text:0000000000000230 .L0 
     /tmp/ccQvownj.s:518    .text:0000000000000238 .L0 
     /tmp/ccQvownj.s:519    .text:000000000000023c .L0 
     /tmp/ccQvownj.s:521    .text:0000000000000240 .L0 
GAS LISTING /tmp/ccQvownj.s 			page 20


     /tmp/ccQvownj.s:522    .text:0000000000000240 .L0 
     /tmp/ccQvownj.s:524    .text:0000000000000244 .L0 
     /tmp/ccQvownj.s:526    .text:0000000000000248 .L0 
     /tmp/ccQvownj.s:532    .text:0000000000000248 _Znam
     /tmp/ccQvownj.s:535    .text:0000000000000248 .L0 
     /tmp/ccQvownj.s:537    .text:0000000000000248 .L0 
     /tmp/ccQvownj.s:538    .text:000000000000024c .L0 
     /tmp/ccQvownj.s:541    .text:0000000000000254 .L0 
     /tmp/ccQvownj.s:542    .text:0000000000000254 .L0 
     /tmp/ccQvownj.s:544    .text:0000000000000258 .L0 
     /tmp/ccQvownj.s:546    .text:0000000000000258 .L0 
     /tmp/ccQvownj.s:547    .text:0000000000000258 .L0 
     /tmp/ccQvownj.s:550    .text:0000000000000260 .L0 
     /tmp/ccQvownj.s:551    .text:0000000000000264 .L0 
     /tmp/ccQvownj.s:553    .text:0000000000000268 .L0 
     /tmp/ccQvownj.s:554    .text:0000000000000268 .L0 
     /tmp/ccQvownj.s:556    .text:000000000000026c .L0 
     /tmp/ccQvownj.s:558    .text:0000000000000270 .L0 
     /tmp/ccQvownj.s:564    .text:0000000000000270 _ZdlPv
     /tmp/ccQvownj.s:567    .text:0000000000000270 .L0 
     /tmp/ccQvownj.s:569    .text:0000000000000270 .L0 
     /tmp/ccQvownj.s:570    .text:0000000000000274 .L0 
     /tmp/ccQvownj.s:573    .text:000000000000027c .L0 
     /tmp/ccQvownj.s:574    .text:000000000000027c .L0 
     /tmp/ccQvownj.s:576    .text:0000000000000280 .L0 
     /tmp/ccQvownj.s:578    .text:0000000000000280 .L0 
     /tmp/ccQvownj.s:579    .text:0000000000000280 .L0 
     /tmp/ccQvownj.s:582    .text:0000000000000288 .L0 
     /tmp/ccQvownj.s:583    .text:000000000000028c .L0 
     /tmp/ccQvownj.s:585    .text:0000000000000290 .L0 
     /tmp/ccQvownj.s:586    .text:0000000000000290 .L0 
     /tmp/ccQvownj.s:588    .text:0000000000000294 .L0 
     /tmp/ccQvownj.s:590    .text:0000000000000298 .L0 
     /tmp/ccQvownj.s:596    .text:0000000000000298 _ZN6ThreadD0Ev
     /tmp/ccQvownj.s:599    .text:0000000000000298 .L0 
     /tmp/ccQvownj.s:601    .text:0000000000000298 .L0 
     /tmp/ccQvownj.s:602    .text:000000000000029c .L0 
     /tmp/ccQvownj.s:605    .text:00000000000002a4 .L0 
     /tmp/ccQvownj.s:606    .text:00000000000002a4 .L0 
     /tmp/ccQvownj.s:608    .text:00000000000002a8 .L0 
     /tmp/ccQvownj.s:610    .text:00000000000002a8 .L0 
     /tmp/ccQvownj.s:613    .text:00000000000002b4 .L0 
     /tmp/ccQvownj.s:615    .text:00000000000002b8 .L0 
     /tmp/ccQvownj.s:616    .text:00000000000002b8 .L0 
     /tmp/ccQvownj.s:618    .text:00000000000002bc .L0 
     /tmp/ccQvownj.s:620    .text:00000000000002c0 .L0 
     /tmp/ccQvownj.s:626    .text:00000000000002c0 _ZN9SemaphoreD0Ev
     /tmp/ccQvownj.s:629    .text:00000000000002c0 .L0 
     /tmp/ccQvownj.s:631    .text:00000000000002c0 .L0 
     /tmp/ccQvownj.s:632    .text:00000000000002c4 .L0 
     /tmp/ccQvownj.s:636    .text:00000000000002d0 .L0 
     /tmp/ccQvownj.s:637    .text:00000000000002d0 .L0 
     /tmp/ccQvownj.s:638    .text:00000000000002d0 .L0 
     /tmp/ccQvownj.s:640    .text:00000000000002d4 .L0 
     /tmp/ccQvownj.s:643    .text:00000000000002d8 .L0 
     /tmp/ccQvownj.s:649    .text:00000000000002f0 .L0 
     /tmp/ccQvownj.s:651    .text:00000000000002f4 .L0 
GAS LISTING /tmp/ccQvownj.s 			page 21


     /tmp/ccQvownj.s:652    .text:00000000000002f4 .L0 
     /tmp/ccQvownj.s:654    .text:00000000000002f8 .L0 
     /tmp/ccQvownj.s:657    .text:00000000000002fc .L0 
     /tmp/ccQvownj.s:659    .text:0000000000000300 .L0 
     /tmp/ccQvownj.s:665    .text:0000000000000300 _ZdaPv
     /tmp/ccQvownj.s:668    .text:0000000000000300 .L0 
     /tmp/ccQvownj.s:670    .text:0000000000000300 .L0 
     /tmp/ccQvownj.s:671    .text:0000000000000304 .L0 
     /tmp/ccQvownj.s:674    .text:000000000000030c .L0 
     /tmp/ccQvownj.s:675    .text:000000000000030c .L0 
     /tmp/ccQvownj.s:677    .text:0000000000000310 .L0 
     /tmp/ccQvownj.s:679    .text:0000000000000310 .L0 
     /tmp/ccQvownj.s:680    .text:0000000000000310 .L0 
     /tmp/ccQvownj.s:683    .text:0000000000000318 .L0 
     /tmp/ccQvownj.s:684    .text:000000000000031c .L0 
     /tmp/ccQvownj.s:686    .text:0000000000000320 .L0 
     /tmp/ccQvownj.s:687    .text:0000000000000320 .L0 
     /tmp/ccQvownj.s:689    .text:0000000000000324 .L0 
     /tmp/ccQvownj.s:691    .text:0000000000000328 .L0 
     /tmp/ccQvownj.s:32     .text._ZN6Thread3runEv:0000000000000018 .L0 
     /tmp/ccQvownj.s:70     .text._ZN6Thread9myWrapperEPv:000000000000002c .L0 
     /tmp/ccQvownj.s:724    .text:0000000000000328 .L0 
     /tmp/ccQvownj.s:118    .text:0000000000000028 .L0 
     /tmp/ccQvownj.s:234    .text:00000000000000b8 .L0 
     /tmp/ccQvownj.s:275    .text:00000000000000f0 .L0 
     /tmp/ccQvownj.s:280    .text:0000000000000100 .L0 
     /tmp/ccQvownj.s:343    .text:0000000000000150 .L0 
     /tmp/ccQvownj.s:2560   .debug_abbrev:0000000000000000 .Ldebug_abbrev0
     /tmp/ccQvownj.s:4439   .debug_str:00000000000009cb .LASF181
     /tmp/ccQvownj.s:4253   .debug_str:000000000000040f .LASF182
     /tmp/ccQvownj.s:4225   .debug_str:0000000000000367 .LASF183
     /tmp/ccQvownj.s:4107   .debug_ranges:0000000000000000 .Ldebug_ranges0
     /tmp/ccQvownj.s:4117   .debug_line:0000000000000000 .Ldebug_line0
     /tmp/ccQvownj.s:4243   .debug_str:00000000000003d3 .LASF0
     /tmp/ccQvownj.s:4269   .debug_str:00000000000004a3 .LASF1
     /tmp/ccQvownj.s:4381   .debug_str:0000000000000801 .LASF2
     /tmp/ccQvownj.s:4389   .debug_str:0000000000000840 .LASF4
     /tmp/ccQvownj.s:4255   .debug_str:0000000000000423 .LASF3
     /tmp/ccQvownj.s:4135   .debug_str:000000000000007c .LASF5
     /tmp/ccQvownj.s:4343   .debug_str:00000000000006e8 .LASF6
     /tmp/ccQvownj.s:4335   .debug_str:0000000000000695 .LASF7
     /tmp/ccQvownj.s:4263   .debug_str:0000000000000482 .LASF8
     /tmp/ccQvownj.s:4223   .debug_str:0000000000000357 .LASF9
     /tmp/ccQvownj.s:4229   .debug_str:0000000000000391 .LASF10
     /tmp/ccQvownj.s:4171   .debug_str:0000000000000188 .LASF11
     /tmp/ccQvownj.s:4217   .debug_str:0000000000000320 .LASF12
     /tmp/ccQvownj.s:4185   .debug_str:00000000000001ed .LASF13
     /tmp/ccQvownj.s:4169   .debug_str:0000000000000178 .LASF14
     /tmp/ccQvownj.s:4417   .debug_str:0000000000000921 .LASF15
     /tmp/ccQvownj.s:4203   .debug_str:0000000000000280 .LASF16
     /tmp/ccQvownj.s:4407   .debug_str:00000000000008ad .LASF17
     /tmp/ccQvownj.s:4331   .debug_str:0000000000000679 .LASF31
     /tmp/ccQvownj.s:4153   .debug_str:00000000000000fc .LASF55
     /tmp/ccQvownj.s:4173   .debug_str:0000000000000197 .LASF18
     /tmp/ccQvownj.s:4151   .debug_str:00000000000000f7 .LASF19
     /tmp/ccQvownj.s:4267   .debug_str:000000000000049e .LASF20
     /tmp/ccQvownj.s:4175   .debug_str:000000000000019c .LASF21
GAS LISTING /tmp/ccQvownj.s 			page 22


     /tmp/ccQvownj.s:4311   .debug_str:00000000000005f6 .LASF22
     /tmp/ccQvownj.s:4403   .debug_str:0000000000000896 .LASF23
     /tmp/ccQvownj.s:4237   .debug_str:00000000000003b7 .LASF24
     /tmp/ccQvownj.s:4339   .debug_str:00000000000006b5 .LASF26
     /tmp/ccQvownj.s:4449   .debug_str:0000000000000acf .LASF25
     /tmp/ccQvownj.s:4201   .debug_str:000000000000025f .LASF27
     /tmp/ccQvownj.s:4479   .debug_str:0000000000000be4 .LASF77
     /tmp/ccQvownj.s:4303   .debug_str:00000000000005a7 .LASF79
     /tmp/ccQvownj.s:4119   .debug_str:0000000000000000 .LASF34
     /tmp/ccQvownj.s:4277   .debug_str:00000000000004ce .LASF36
     /tmp/ccQvownj.s:4455   .debug_str:0000000000000afd .LASF28
     /tmp/ccQvownj.s:4257   .debug_str:0000000000000435 .LASF29
     /tmp/ccQvownj.s:4427   .debug_str:0000000000000962 .LASF30
     /tmp/ccQvownj.s:4473   .debug_str:0000000000000bad .LASF32
     /tmp/ccQvownj.s:4459   .debug_str:0000000000000b19 .LASF184
     /tmp/ccQvownj.s:4411   .debug_str:00000000000008d6 .LASF33
     /tmp/ccQvownj.s:4305   .debug_str:00000000000005d3 .LASF35
     /tmp/ccQvownj.s:4409   .debug_str:00000000000008c3 .LASF37
     /tmp/ccQvownj.s:4211   .debug_str:00000000000002e7 .LASF47
     /tmp/ccQvownj.s:4385   .debug_str:000000000000081e .LASF128
     /tmp/ccQvownj.s:4371   .debug_str:00000000000007ad .LASF130
     /tmp/ccQvownj.s:4499   .debug_str:0000000000000ca6 .LASF38
     /tmp/ccQvownj.s:4345   .debug_str:00000000000006ef .LASF39
     /tmp/ccQvownj.s:4123   .debug_str:000000000000000c .LASF40
     /tmp/ccQvownj.s:4313   .debug_str:00000000000005fb .LASF41
     /tmp/ccQvownj.s:4265   .debug_str:0000000000000495 .LASF42
     /tmp/ccQvownj.s:4163   .debug_str:0000000000000135 .LASF43
     /tmp/ccQvownj.s:4289   .debug_str:000000000000055c .LASF44
     /tmp/ccQvownj.s:4207   .debug_str:00000000000002bc .LASF45
     /tmp/ccQvownj.s:4333   .debug_str:0000000000000689 .LASF46
     /tmp/ccQvownj.s:4475   .debug_str:0000000000000bb7 .LASF48
     /tmp/ccQvownj.s:4505   .debug_str:0000000000000cc7 .LASF49
     /tmp/ccQvownj.s:4491   .debug_str:0000000000000c4b .LASF50
     /tmp/ccQvownj.s:4397   .debug_str:000000000000086f .LASF51
     /tmp/ccQvownj.s:4261   .debug_str:0000000000000465 .LASF52
     /tmp/ccQvownj.s:4363   .debug_str:0000000000000786 .LASF53
     /tmp/ccQvownj.s:4127   .debug_str:0000000000000024 .LASF54
     /tmp/ccQvownj.s:4423   .debug_str:000000000000094f .LASF56
     /tmp/ccQvownj.s:4161   .debug_str:0000000000000127 .LASF90
     /tmp/ccQvownj.s:4281   .debug_str:00000000000004f9 .LASF92
     /tmp/ccQvownj.s:4181   .debug_str:00000000000001cf .LASF83
     /tmp/ccQvownj.s:4391   .debug_str:0000000000000847 .LASF57
     /tmp/ccQvownj.s:4131   .debug_str:0000000000000066 .LASF58
     /tmp/ccQvownj.s:4425   .debug_str:0000000000000957 .LASF59
     /tmp/ccQvownj.s:4309   .debug_str:00000000000005df .LASF60
     /tmp/ccQvownj.s:4157   .debug_str:0000000000000116 .LASF61
     /tmp/ccQvownj.s:4457   .debug_str:0000000000000b02 .LASF62
     /tmp/ccQvownj.s:4279   .debug_str:00000000000004ec .LASF63
     /tmp/ccQvownj.s:4463   .debug_str:0000000000000b42 .LASF64
     /tmp/ccQvownj.s:4327   .debug_str:000000000000065e .LASF185
     /tmp/ccQvownj.s:4355   .debug_str:0000000000000752 .LASF65
     /tmp/ccQvownj.s:4295   .debug_str:0000000000000578 .LASF66
     /tmp/ccQvownj.s:4307   .debug_str:00000000000005d8 .LASF67
     /tmp/ccQvownj.s:4147   .debug_str:00000000000000e0 .LASF68
     /tmp/ccQvownj.s:4227   .debug_str:0000000000000385 .LASF69
     /tmp/ccQvownj.s:4293   .debug_str:000000000000056b .LASF70
     /tmp/ccQvownj.s:4415   .debug_str:0000000000000914 .LASF71
GAS LISTING /tmp/ccQvownj.s 			page 23


     /tmp/ccQvownj.s:4465   .debug_str:0000000000000b5b .LASF72
     /tmp/ccQvownj.s:4205   .debug_str:0000000000000296 .LASF73
     /tmp/ccQvownj.s:4413   .debug_str:00000000000008db .LASF74
     /tmp/ccQvownj.s:4209   .debug_str:00000000000002d8 .LASF75
     /tmp/ccQvownj.s:4451   .debug_str:0000000000000ad9 .LASF76
     /tmp/ccQvownj.s:4273   .debug_str:00000000000004c1 .LASF78
     /tmp/ccQvownj.s:4443   .debug_str:0000000000000a9e .LASF80
     /tmp/ccQvownj.s:4493   .debug_str:0000000000000c66 .LASF81
     /tmp/ccQvownj.s:4487   .debug_str:0000000000000c24 .LASF82
     /tmp/ccQvownj.s:4435   .debug_str:00000000000009a1 .LASF186
     /tmp/ccQvownj.s:4347   .debug_str:0000000000000702 .LASF84
     /tmp/ccQvownj.s:4121   .debug_str:0000000000000007 .LASF85
     /tmp/ccQvownj.s:4193   .debug_str:0000000000000238 .LASF86
     /tmp/ccQvownj.s:4453   .debug_str:0000000000000af5 .LASF87
     /tmp/ccQvownj.s:4447   .debug_str:0000000000000ac5 .LASF88
     /tmp/ccQvownj.s:4405   .debug_str:00000000000008a4 .LASF89
     /tmp/ccQvownj.s:4189   .debug_str:0000000000000217 .LASF122
     /tmp/ccQvownj.s:4129   .debug_str:000000000000003e .LASF124
     /tmp/ccQvownj.s:4195   .debug_str:000000000000023e .LASF91
     /tmp/ccQvownj.s:4259   .debug_str:0000000000000452 .LASF93
     /tmp/ccQvownj.s:4285   .debug_str:000000000000052a .LASF94
     /tmp/ccQvownj.s:4461   .debug_str:0000000000000b1e .LASF95
     /tmp/ccQvownj.s:4501   .debug_str:0000000000000cb3 .LASF96
     /tmp/ccQvownj.s:4341   .debug_str:00000000000006d2 .LASF97
     /tmp/ccQvownj.s:4393   .debug_str:000000000000084c .LASF98
     /tmp/ccQvownj.s:4471   .debug_str:0000000000000ba4 .LASF99
     /tmp/ccQvownj.s:4367   .debug_str:000000000000079f .LASF100
     /tmp/ccQvownj.s:4485   .debug_str:0000000000000c1e .LASF101
     /tmp/ccQvownj.s:4271   .debug_str:00000000000004b6 .LASF102
     /tmp/ccQvownj.s:4323   .debug_str:0000000000000643 .LASF103
     /tmp/ccQvownj.s:4197   .debug_str:0000000000000247 .LASF104
     /tmp/ccQvownj.s:4165   .debug_str:0000000000000152 .LASF105
     /tmp/ccQvownj.s:4419   .debug_str:000000000000092d .LASF106
     /tmp/ccQvownj.s:4143   .debug_str:00000000000000c1 .LASF107
     /tmp/ccQvownj.s:4235   .debug_str:00000000000003b1 .LASF108
     /tmp/ccQvownj.s:4287   .debug_str:0000000000000543 .LASF109
     /tmp/ccQvownj.s:4379   .debug_str:00000000000007f1 .LASF110
     /tmp/ccQvownj.s:4219   .debug_str:000000000000032f .LASF111
     /tmp/ccQvownj.s:4441   .debug_str:0000000000000a8f .LASF112
     /tmp/ccQvownj.s:4353   .debug_str:0000000000000730 .LASF113
     /tmp/ccQvownj.s:4241   .debug_str:00000000000003cd .LASF114
     /tmp/ccQvownj.s:4283   .debug_str:0000000000000512 .LASF115
     /tmp/ccQvownj.s:4125   .debug_str:000000000000001c .LASF116
     /tmp/ccQvownj.s:4467   .debug_str:0000000000000b7b .LASF117
     /tmp/ccQvownj.s:4399   .debug_str:000000000000087a .LASF118
     /tmp/ccQvownj.s:4481   .debug_str:0000000000000bf8 .LASF119
     /tmp/ccQvownj.s:4321   .debug_str:000000000000063b .LASF120
     /tmp/ccQvownj.s:4297   .debug_str:000000000000058a .LASF121
     /tmp/ccQvownj.s:4247   .debug_str:00000000000003f2 .LASF187
     /tmp/ccQvownj.s:4191   .debug_str:0000000000000225 .LASF188
     /tmp/ccQvownj.s:4301   .debug_str:00000000000005a2 .LASF123
     /tmp/ccQvownj.s:4199   .debug_str:000000000000024c .LASF125
     /tmp/ccQvownj.s:4349   .debug_str:0000000000000717 .LASF126
     /tmp/ccQvownj.s:4431   .debug_str:0000000000000979 .LASF136
     /tmp/ccQvownj.s:4177   .debug_str:00000000000001aa .LASF138
     /tmp/ccQvownj.s:4429   .debug_str:0000000000000967 .LASF127
     /tmp/ccQvownj.s:4359   .debug_str:0000000000000771 .LASF129
GAS LISTING /tmp/ccQvownj.s 			page 24


     /tmp/ccQvownj.s:4395   .debug_str:000000000000085d .LASF131
     /tmp/ccQvownj.s:4179   .debug_str:00000000000001ba .LASF132
     /tmp/ccQvownj.s:4137   .debug_str:0000000000000083 .LASF133
     /tmp/ccQvownj.s:4249   .debug_str:00000000000003f7 .LASF134
     /tmp/ccQvownj.s:4239   .debug_str:00000000000003bd .LASF189
     /tmp/ccQvownj.s:4233   .debug_str:00000000000003aa .LASF135
     /tmp/ccQvownj.s:4183   .debug_str:00000000000001db .LASF137
     /tmp/ccQvownj.s:4373   .debug_str:00000000000007c4 .LASF139
     /tmp/ccQvownj.s:4495   .debug_str:0000000000000c7c .LASF140
     /tmp/ccQvownj.s:4401   .debug_str:000000000000088e .LASF147
     /tmp/ccQvownj.s:4167   .debug_str:0000000000000169 .LASF190
     /tmp/ccQvownj.s:4489   .debug_str:0000000000000c45 .LASF141
     /tmp/ccQvownj.s:4433   .debug_str:000000000000098e .LASF142
     /tmp/ccQvownj.s:4329   .debug_str:0000000000000663 .LASF143
     /tmp/ccQvownj.s:4149   .debug_str:00000000000000f1 .LASF144
     /tmp/ccQvownj.s:4315   .debug_str:000000000000060f .LASF145
     /tmp/ccQvownj.s:4251   .debug_str:0000000000000400 .LASF146
     /tmp/ccQvownj.s:4483   .debug_str:0000000000000c0d .LASF191
     /tmp/ccQvownj.s:4155   .debug_str:000000000000010c .LASF192
     /tmp/ccQvownj.s:4387   .debug_str:0000000000000828 .LASF193
     /tmp/ccQvownj.s:4497   .debug_str:0000000000000c93 .LASF148
     /tmp/ccQvownj.s:4319   .debug_str:0000000000000634 .LASF149
     /tmp/ccQvownj.s:666    .text:0000000000000300 .LFB59
     /tmp/ccQvownj.s:692    .text:0000000000000328 .LFE59
     /tmp/ccQvownj.s:3798   .debug_loc:0000000000000000 .LLST18
     /tmp/ccQvownj.s:681    .text:0000000000000318 .LVL43
     /tmp/ccQvownj.s:4325   .debug_str:0000000000000657 .LASF150
     /tmp/ccQvownj.s:565    .text:0000000000000270 .LFB58
     /tmp/ccQvownj.s:591    .text:0000000000000298 .LFE58
     /tmp/ccQvownj.s:3812   .debug_loc:0000000000000039 .LLST15
     /tmp/ccQvownj.s:580    .text:0000000000000288 .LVL35
     /tmp/ccQvownj.s:4299   .debug_str:0000000000000592 .LASF151
     /tmp/ccQvownj.s:4145   .debug_str:00000000000000da .LASF152
     /tmp/ccQvownj.s:533    .text:0000000000000248 .LFB57
     /tmp/ccQvownj.s:559    .text:0000000000000270 .LFE57
     /tmp/ccQvownj.s:3826   .debug_loc:0000000000000072 .LLST14
     /tmp/ccQvownj.s:548    .text:0000000000000260 .LVL33
     /tmp/ccQvownj.s:4213   .debug_str:00000000000002fe .LASF153
     /tmp/ccQvownj.s:501    .text:0000000000000220 .LFB56
     /tmp/ccQvownj.s:527    .text:0000000000000248 .LFE56
     /tmp/ccQvownj.s:3840   .debug_loc:00000000000000ab .LLST13
     /tmp/ccQvownj.s:516    .text:0000000000000238 .LVL31
     /tmp/ccQvownj.s:469    .text:00000000000001f8 .LFB55
     /tmp/ccQvownj.s:495    .text:0000000000000220 .LFE55
     /tmp/ccQvownj.s:3854   .debug_loc:00000000000000e4 .LLST12
     /tmp/ccQvownj.s:484    .text:0000000000000210 .LVL29
     /tmp/ccQvownj.s:438    .text:00000000000001d0 .LFB54
     /tmp/ccQvownj.s:463    .text:00000000000001f8 .LFE54
     /tmp/ccQvownj.s:452    .text:00000000000001e8 .LVL27
     /tmp/ccQvownj.s:404    .text:00000000000001a4 .LFB53
     /tmp/ccQvownj.s:432    .text:00000000000001d0 .LFE53
     /tmp/ccQvownj.s:4221   .debug_str:0000000000000352 .LASF154
     /tmp/ccQvownj.s:3868   .debug_loc:000000000000011d .LLST11
     /tmp/ccQvownj.s:421    .text:00000000000001c0 .LVL26
     /tmp/ccQvownj.s:370    .text:0000000000000178 .LFB52
     /tmp/ccQvownj.s:398    .text:00000000000001a4 .LFE52
     /tmp/ccQvownj.s:3882   .debug_loc:0000000000000156 .LLST10
GAS LISTING /tmp/ccQvownj.s 			page 25


     /tmp/ccQvownj.s:387    .text:0000000000000194 .LVL23
     /tmp/ccQvownj.s:4133   .debug_str:0000000000000072 .LASF155
     /tmp/ccQvownj.s:4245   .debug_str:00000000000003e0 .LASF156
     /tmp/ccQvownj.s:627    .text:00000000000002c0 .LFB51
     /tmp/ccQvownj.s:660    .text:0000000000000300 .LFE51
     /tmp/ccQvownj.s:3896   .debug_loc:000000000000018f .LLST17
     /tmp/ccQvownj.s:644    .text:00000000000002e0 .LVL39
     /tmp/ccQvownj.s:647    .text:00000000000002ec .LVL40
     /tmp/ccQvownj.s:4141   .debug_str:00000000000000af .LASF157
     /tmp/ccQvownj.s:101    .text:0000000000000018 .LFB49
     /tmp/ccQvownj.s:137    .text:0000000000000050 .LFE49
     /tmp/ccQvownj.s:3914   .debug_loc:00000000000001db .LLST2
     /tmp/ccQvownj.s:125    .text:0000000000000040 .LVL7
     /tmp/ccQvownj.s:4159   .debug_str:0000000000000122 .LASF162
     /tmp/ccQvownj.s:4317   .debug_str:0000000000000622 .LASF158
     /tmp/ccQvownj.s:329    .text:0000000000000140 .LFB46
     /tmp/ccQvownj.s:362    .text:0000000000000178 .LFE46
     /tmp/ccQvownj.s:3928   .debug_loc:0000000000000214 .LLST8
     /tmp/ccQvownj.s:3948   .debug_loc:0000000000000262 .LLST9
     /tmp/ccQvownj.s:350    .text:0000000000000168 .LVL20
     /tmp/ccQvownj.s:304    .text:0000000000000124 .LFB44
     /tmp/ccQvownj.s:323    .text:0000000000000140 .LFE44
     /tmp/ccQvownj.s:4469   .debug_str:0000000000000b95 .LASF159
     /tmp/ccQvownj.s:597    .text:0000000000000298 .LFB43
     /tmp/ccQvownj.s:621    .text:00000000000002c0 .LFE43
     /tmp/ccQvownj.s:3962   .debug_loc:000000000000029b .LLST16
     /tmp/ccQvownj.s:611    .text:00000000000002b0 .LVL37
     /tmp/ccQvownj.s:4351   .debug_str:0000000000000721 .LASF160
     /tmp/ccQvownj.s:75     .text:0000000000000000 .LFB41
     /tmp/ccQvownj.s:93     .text:0000000000000018 .LFE41
     /tmp/ccQvownj.s:4383   .debug_str:000000000000080f .LASF161
     /tmp/ccQvownj.s:261    .text:00000000000000e0 .LFB38
     /tmp/ccQvownj.s:296    .text:0000000000000124 .LFE38
     /tmp/ccQvownj.s:3976   .debug_loc:00000000000002d4 .LLST7
     /tmp/ccQvownj.s:284    .text:0000000000000114 .LVL17
     /tmp/ccQvownj.s:4445   .debug_str:0000000000000aae .LASF163
     /tmp/ccQvownj.s:220    .text:00000000000000a8 .LFB35
     /tmp/ccQvownj.s:253    .text:00000000000000e0 .LFE35
     /tmp/ccQvownj.s:3994   .debug_loc:0000000000000320 .LLST4
     /tmp/ccQvownj.s:4014   .debug_loc:000000000000036e .LLST5
     /tmp/ccQvownj.s:4028   .debug_loc:00000000000003a7 .LLST6
     /tmp/ccQvownj.s:241    .text:00000000000000d0 .LVL14
     /tmp/ccQvownj.s:189    .text:0000000000000080 .LFB33
     /tmp/ccQvownj.s:214    .text:00000000000000a8 .LFE33
     /tmp/ccQvownj.s:203    .text:0000000000000098 .LVL11
     /tmp/ccQvownj.s:153    .text:0000000000000050 .LFB32
     /tmp/ccQvownj.s:183    .text:0000000000000080 .LFE32
     /tmp/ccQvownj.s:4042   .debug_loc:00000000000003e0 .LLST3
     /tmp/ccQvownj.s:170    .text:000000000000006c .LVL10
     /tmp/ccQvownj.s:37     .text._ZN6Thread9myWrapperEPv:0000000000000000 .LFB31
     /tmp/ccQvownj.s:68     .text._ZN6Thread9myWrapperEPv:000000000000002c .LFE31
     /tmp/ccQvownj.s:4062   .debug_loc:000000000000042e .LLST0
     /tmp/ccQvownj.s:4375   .debug_str:00000000000007d1 .LASF164
     /tmp/ccQvownj.s:4076   .debug_loc:0000000000000467 .LLST1
     /tmp/ccQvownj.s:57     .text._ZN6Thread9myWrapperEPv:000000000000001c .LVL3
     /tmp/ccQvownj.s:11     .text._ZN6Thread3runEv:0000000000000000 .LFB30
     /tmp/ccQvownj.s:30     .text._ZN6Thread3runEv:0000000000000018 .LFE30
GAS LISTING /tmp/ccQvownj.s 			page 26


     /tmp/ccQvownj.s:4291   .debug_str:0000000000000564 .LASF165
     /tmp/ccQvownj.s:4275   .debug_str:00000000000004c7 .LASF166
     /tmp/ccQvownj.s:4215   .debug_str:0000000000000304 .LASF167
     /tmp/ccQvownj.s:4231   .debug_str:000000000000039f .LASF168
     /tmp/ccQvownj.s:4377   .debug_str:00000000000007d8 .LASF169
     /tmp/ccQvownj.s:4503   .debug_str:0000000000000cbe .LASF170
     /tmp/ccQvownj.s:4187   .debug_str:00000000000001fd .LASF171
     /tmp/ccQvownj.s:4361   .debug_str:000000000000077c .LASF172
     /tmp/ccQvownj.s:4421   .debug_str:0000000000000934 .LASF173
     /tmp/ccQvownj.s:4369   .debug_str:00000000000007a4 .LASF174
     /tmp/ccQvownj.s:4437   .debug_str:00000000000009a9 .LASF175
     /tmp/ccQvownj.s:4477   .debug_str:0000000000000bd5 .LASF176
     /tmp/ccQvownj.s:4139   .debug_str:000000000000009a .LASF177
     /tmp/ccQvownj.s:4365   .debug_str:000000000000078f .LASF178
     /tmp/ccQvownj.s:4357   .debug_str:000000000000075a .LASF179
     /tmp/ccQvownj.s:4337   .debug_str:00000000000006a8 .LASF180
     /tmp/ccQvownj.s:669    .text:0000000000000300 .LVL42
     /tmp/ccQvownj.s:568    .text:0000000000000270 .LVL34
     /tmp/ccQvownj.s:536    .text:0000000000000248 .LVL32
     /tmp/ccQvownj.s:504    .text:0000000000000220 .LVL30
     /tmp/ccQvownj.s:472    .text:00000000000001f8 .LVL28
     /tmp/ccQvownj.s:407    .text:00000000000001a4 .LVL24
     /tmp/ccQvownj.s:419    .text:00000000000001b8 .LVL25
     /tmp/ccQvownj.s:373    .text:0000000000000178 .LVL21
     /tmp/ccQvownj.s:385    .text:000000000000018c .LVL22
     /tmp/ccQvownj.s:630    .text:00000000000002c0 .LVL38
     /tmp/ccQvownj.s:655    .text:00000000000002f8 .LVL41
     /tmp/ccQvownj.s:107    .text:0000000000000018 .LVL5
     /tmp/ccQvownj.s:123    .text:0000000000000038 .LVL6
     /tmp/ccQvownj.s:332    .text:0000000000000140 .LVL18
     /tmp/ccQvownj.s:348    .text:0000000000000160 .LVL19
     /tmp/ccQvownj.s:600    .text:0000000000000298 .LVL36
     /tmp/ccQvownj.s:264    .text:00000000000000e0 .LVL15
     /tmp/ccQvownj.s:282    .text:000000000000010c .LVL16
     /tmp/ccQvownj.s:223    .text:00000000000000a8 .LVL12
     /tmp/ccQvownj.s:239    .text:00000000000000c8 .LVL13
     /tmp/ccQvownj.s:156    .text:0000000000000050 .LVL8
     /tmp/ccQvownj.s:168    .text:0000000000000064 .LVL9
     /tmp/ccQvownj.s:40     .text._ZN6Thread9myWrapperEPv:0000000000000000 .LVL1
     /tmp/ccQvownj.s:50     .text._ZN6Thread9myWrapperEPv:0000000000000010 .LVL2
     /tmp/ccQvownj.s:725    .debug_info:0000000000000000 .Ldebug_info0
     /tmp/ccQvownj.s:5      .text:0000000000000000 .Ltext0
     /tmp/ccQvownj.s:716    .text:0000000000000328 .Letext0
     /tmp/ccQvownj.s:140    .gcc_except_table:0000000000000000 .LLSDA49

UNDEFINED SYMBOLS
_Z9sem_closeP10Ksemaphore
__gxx_personality_v0
_Z12thread_startPP3TCB
_Z15thread_dispatchv
_Z14thread_create2PP3TCBPFvPvES2_
_Z8sem_openPP10Ksemaphorej
_Z8sem_waitP10Ksemaphore
_Z10sem_signalP10Ksemaphore
__getc
__putc
_ZN15MemoryAllocator6mallocEm
GAS LISTING /tmp/ccQvownj.s 			page 27


_ZN15MemoryAllocator4freeEPv
