GAS LISTING /tmp/ccoaAUQ5.s 			page 1


   1              		.file	"syscall_c.cpp"
   2              		.option pic
   3              		.option norelax
   4              		.text
   5              	.Ltext0:
   6              		.align	2
   7              		.globl	_Z9mem_allocm
   9              	_Z9mem_allocm:
  10              	.LFB31:
  11              		.file 1 "src/syscall_c.cpp"
   1:src/syscall_c.cpp **** #include "../h/syscall_c.h"
   2:src/syscall_c.cpp **** 
   3:src/syscall_c.cpp **** 
   4:src/syscall_c.cpp **** void* mem_alloc(size_t size){
  12              		.loc 1 4 29
  13              		.cfi_startproc
  14              	.LVL0:
  15 0000 130101FF 		addi	sp,sp,-16
  16              		.cfi_def_cfa_offset 16
  17 0004 23348100 		sd	s0,8(sp)
  18              		.cfi_offset 8, -8
  19 0008 13040101 		addi	s0,sp,16
  20              		.cfi_def_cfa 8, 0
   5:src/syscall_c.cpp ****     __asm__ volatile("mv a7, %0"::"r"(size));
  21              		.loc 1 5 5
  22              		.loc 1 5 45 is_stmt 0
  23              	#APP
  24              	# 5 "src/syscall_c.cpp" 1
   6              	    __asm__ volatile("li a0, 0x01");
  25              		mv a7, a0
  26              	# 0 "" 2
  27              		.loc 1 6 5 is_stmt 1
  28              		.loc 1 6 36 is_stmt 0
  29              	# 6 "src/syscall_c.cpp" 1
   7              	    __asm__ volatile("ecall");
  30              		li a0, 0x01
  31              	# 0 "" 2
  32              		.loc 1 7 5 is_stmt 1
  33              		.loc 1 7 30 is_stmt 0
  34              	# 7 "src/syscall_c.cpp" 1
   8              	    void* a0;
  35              		ecall
  36              	# 0 "" 2
  37              		.loc 1 8 5 is_stmt 1
   9:src/syscall_c.cpp ****     __asm__ volatile ("mv %[a0], a0" : [a0] "=r"(a0));
  38              		.loc 1 9 5
  39              		.loc 1 9 54 is_stmt 0
  40              	# 9 "src/syscall_c.cpp" 1
  10              	    return a0;
  41              		mv a0, a0
  42              	# 0 "" 2
  43              	.LVL1:
  44              		.loc 1 10 5 is_stmt 1
  11:src/syscall_c.cpp **** }
  45              		.loc 1 11 1 is_stmt 0
  46              	#NO_APP
  47 001c 03348100 		ld	s0,8(sp)
GAS LISTING /tmp/ccoaAUQ5.s 			page 2


  48              		.cfi_restore 8
  49              		.cfi_def_cfa 2, 16
  50 0020 13010101 		addi	sp,sp,16
  51              		.cfi_def_cfa_offset 0
  52 0024 67800000 		jr	ra
  53              		.cfi_endproc
  54              	.LFE31:
  56              		.align	2
  57              		.globl	_Z8mem_freePv
  59              	_Z8mem_freePv:
  60              	.LFB32:
  12:src/syscall_c.cpp **** 
  13:src/syscall_c.cpp **** int mem_free (void* r){
  61              		.loc 1 13 23 is_stmt 1
  62              		.cfi_startproc
  63              	.LVL2:
  64 0028 130101FF 		addi	sp,sp,-16
  65              		.cfi_def_cfa_offset 16
  66 002c 23348100 		sd	s0,8(sp)
  67              		.cfi_offset 8, -8
  68 0030 13040101 		addi	s0,sp,16
  69              		.cfi_def_cfa 8, 0
  14:src/syscall_c.cpp ****     __asm__ volatile("mv a7, %0"::"r"(r));
  70              		.loc 1 14 5
  71              		.loc 1 14 42 is_stmt 0
  72              	#APP
  73              	# 14 "src/syscall_c.cpp" 1
  15              	    __asm__ volatile("li a0, 0x02");
  74              		mv a7, a0
  75              	# 0 "" 2
  76              		.loc 1 15 5 is_stmt 1
  77              		.loc 1 15 36 is_stmt 0
  78              	# 15 "src/syscall_c.cpp" 1
  16              	    __asm__ volatile("ecall");
  79              		li a0, 0x02
  80              	# 0 "" 2
  81              		.loc 1 16 5 is_stmt 1
  82              		.loc 1 16 30 is_stmt 0
  83              	# 16 "src/syscall_c.cpp" 1
  17              	
  18:src/syscall_c.cpp ****     uint64 a0;
  84              		ecall
  85              	# 0 "" 2
  86              		.loc 1 18 5 is_stmt 1
  19:src/syscall_c.cpp ****     __asm__ volatile ("mv %[a0], a0" : [a0] "=r"(a0));
  87              		.loc 1 19 5
  88              		.loc 1 19 54 is_stmt 0
  89              	# 19 "src/syscall_c.cpp" 1
  20              	    return a0;
  90              		mv a0, a0
  91              	# 0 "" 2
  92              	.LVL3:
  93              		.loc 1 20 5 is_stmt 1
  21:src/syscall_c.cpp **** }
  94              		.loc 1 21 1 is_stmt 0
  95              	#NO_APP
  96 0044 1B050500 		sext.w	a0,a0
GAS LISTING /tmp/ccoaAUQ5.s 			page 3


  97              	.LVL4:
  98 0048 03348100 		ld	s0,8(sp)
  99              		.cfi_restore 8
 100              		.cfi_def_cfa 2, 16
 101 004c 13010101 		addi	sp,sp,16
 102              		.cfi_def_cfa_offset 0
 103 0050 67800000 		jr	ra
 104              		.cfi_endproc
 105              	.LFE32:
 107              		.align	2
 108              		.globl	_Z13thread_createPP3TCBPFvPvES2_
 110              	_Z13thread_createPP3TCBPFvPvES2_:
 111              	.LFB33:
  22:src/syscall_c.cpp **** 
  23:src/syscall_c.cpp **** int thread_create (thread_t* handle, void(*start_routine)(void*), void* arg){
 112              		.loc 1 23 77 is_stmt 1
 113              		.cfi_startproc
 114              	.LVL5:
 115 0054 130101FF 		addi	sp,sp,-16
 116              		.cfi_def_cfa_offset 16
 117 0058 23348100 		sd	s0,8(sp)
 118              		.cfi_offset 8, -8
 119 005c 13040101 		addi	s0,sp,16
 120              		.cfi_def_cfa 8, 0
  24:src/syscall_c.cpp ****     __asm__ volatile("mv a7, %0"::"r"(arg));
 121              		.loc 1 24 5
 122              		.loc 1 24 44 is_stmt 0
 123              	#APP
 124              	# 24 "src/syscall_c.cpp" 1
  25              	    __asm__ volatile("mv a2, %0"::"r"(start_routine));
 125              		mv a7, a2
 126              	# 0 "" 2
 127              		.loc 1 25 5 is_stmt 1
 128              		.loc 1 25 54 is_stmt 0
 129              	# 25 "src/syscall_c.cpp" 1
  26              	    __asm__ volatile("mv a1, %0"::"r"(handle));
 130              		mv a2, a1
 131              	# 0 "" 2
 132              		.loc 1 26 5 is_stmt 1
 133              		.loc 1 26 47 is_stmt 0
 134              	# 26 "src/syscall_c.cpp" 1
  27              	    __asm__ volatile("li a0, 0x11");
 135              		mv a1, a0
 136              	# 0 "" 2
 137              		.loc 1 27 5 is_stmt 1
 138              		.loc 1 27 36 is_stmt 0
 139              	# 27 "src/syscall_c.cpp" 1
  28              	    __asm__ volatile("ecall");
 140              		li a0, 0x11
 141              	# 0 "" 2
 142              		.loc 1 28 5 is_stmt 1
 143              		.loc 1 28 30 is_stmt 0
 144              	# 28 "src/syscall_c.cpp" 1
  29              	    uint64 a0;
 145              		ecall
 146              	# 0 "" 2
 147              		.loc 1 29 5 is_stmt 1
GAS LISTING /tmp/ccoaAUQ5.s 			page 4


  30:src/syscall_c.cpp ****     __asm__ volatile ("mv %[a0], a0" : [a0] "=r"(a0));
 148              		.loc 1 30 5
 149              		.loc 1 30 54 is_stmt 0
 150              	# 30 "src/syscall_c.cpp" 1
  31              	    return a0;
 151              		mv a0, a0
 152              	# 0 "" 2
 153              	.LVL6:
 154              		.loc 1 31 5 is_stmt 1
  32:src/syscall_c.cpp **** }
 155              		.loc 1 32 1 is_stmt 0
 156              	#NO_APP
 157 0078 1B050500 		sext.w	a0,a0
 158              	.LVL7:
 159 007c 03348100 		ld	s0,8(sp)
 160              		.cfi_restore 8
 161              		.cfi_def_cfa 2, 16
 162 0080 13010101 		addi	sp,sp,16
 163              		.cfi_def_cfa_offset 0
 164 0084 67800000 		jr	ra
 165              		.cfi_endproc
 166              	.LFE33:
 168              		.align	2
 169              		.globl	_Z11thread_exitv
 171              	_Z11thread_exitv:
 172              	.LFB34:
  33:src/syscall_c.cpp **** 
  34:src/syscall_c.cpp **** int thread_exit(){
 173              		.loc 1 34 18 is_stmt 1
 174              		.cfi_startproc
 175 0088 130101FF 		addi	sp,sp,-16
 176              		.cfi_def_cfa_offset 16
 177 008c 23348100 		sd	s0,8(sp)
 178              		.cfi_offset 8, -8
 179 0090 13040101 		addi	s0,sp,16
 180              		.cfi_def_cfa 8, 0
  35:src/syscall_c.cpp ****     __asm__ volatile("li a0, 0x12");
 181              		.loc 1 35 5
 182              		.loc 1 35 36 is_stmt 0
 183              	#APP
 184              	# 35 "src/syscall_c.cpp" 1
  36              	    __asm__ volatile("ecall");
 185              		li a0, 0x12
 186              	# 0 "" 2
 187              		.loc 1 36 5 is_stmt 1
 188              		.loc 1 36 30 is_stmt 0
 189              	# 36 "src/syscall_c.cpp" 1
  37              	
  38:src/syscall_c.cpp ****     uint64 a0;
 190              		ecall
 191              	# 0 "" 2
 192              		.loc 1 38 5 is_stmt 1
  39:src/syscall_c.cpp ****     __asm__ volatile ("mv %[a0], a0" : [a0] "=r"(a0));
 193              		.loc 1 39 5
 194              		.loc 1 39 54 is_stmt 0
 195              	# 39 "src/syscall_c.cpp" 1
  40              	    return a0;
GAS LISTING /tmp/ccoaAUQ5.s 			page 5


 196              		mv a0, a0
 197              	# 0 "" 2
 198              	.LVL8:
 199              		.loc 1 40 5 is_stmt 1
  41:src/syscall_c.cpp **** }
 200              		.loc 1 41 1 is_stmt 0
 201              	#NO_APP
 202 00a0 1B050500 		sext.w	a0,a0
 203              	.LVL9:
 204 00a4 03348100 		ld	s0,8(sp)
 205              		.cfi_restore 8
 206              		.cfi_def_cfa 2, 16
 207 00a8 13010101 		addi	sp,sp,16
 208              		.cfi_def_cfa_offset 0
 209 00ac 67800000 		jr	ra
 210              		.cfi_endproc
 211              	.LFE34:
 213              		.align	2
 214              		.globl	_Z15thread_dispatchv
 216              	_Z15thread_dispatchv:
 217              	.LFB35:
  42:src/syscall_c.cpp **** 
  43:src/syscall_c.cpp **** void thread_dispatch(){
 218              		.loc 1 43 23 is_stmt 1
 219              		.cfi_startproc
 220 00b0 130101FF 		addi	sp,sp,-16
 221              		.cfi_def_cfa_offset 16
 222 00b4 23348100 		sd	s0,8(sp)
 223              		.cfi_offset 8, -8
 224 00b8 13040101 		addi	s0,sp,16
 225              		.cfi_def_cfa 8, 0
  44:src/syscall_c.cpp ****     __asm__ volatile("li a0, 0x13");
 226              		.loc 1 44 5
 227              		.loc 1 44 36 is_stmt 0
 228              	#APP
 229              	# 44 "src/syscall_c.cpp" 1
  45              	     __asm__ volatile("ecall");
 230              		li a0, 0x13
 231              	# 0 "" 2
 232              		.loc 1 45 6 is_stmt 1
 233              		.loc 1 45 31 is_stmt 0
 234              	# 45 "src/syscall_c.cpp" 1
  46              	
  47:src/syscall_c.cpp **** }
 235              		ecall
 236              	# 0 "" 2
 237              		.loc 1 47 1
 238              	#NO_APP
 239 00c4 03348100 		ld	s0,8(sp)
 240              		.cfi_restore 8
 241              		.cfi_def_cfa 2, 16
 242 00c8 13010101 		addi	sp,sp,16
 243              		.cfi_def_cfa_offset 0
 244 00cc 67800000 		jr	ra
 245              		.cfi_endproc
 246              	.LFE35:
 248              		.align	2
GAS LISTING /tmp/ccoaAUQ5.s 			page 6


 249              		.globl	_Z12thread_startPP3TCB
 251              	_Z12thread_startPP3TCB:
 252              	.LFB36:
  48:src/syscall_c.cpp **** 
  49:src/syscall_c.cpp **** int thread_start(thread_t* handle){
 253              		.loc 1 49 35 is_stmt 1
 254              		.cfi_startproc
 255              	.LVL10:
 256 00d0 130101FF 		addi	sp,sp,-16
 257              		.cfi_def_cfa_offset 16
 258 00d4 23348100 		sd	s0,8(sp)
 259              		.cfi_offset 8, -8
 260 00d8 13040101 		addi	s0,sp,16
 261              		.cfi_def_cfa 8, 0
  50:src/syscall_c.cpp ****     __asm__ volatile("mv a1, %0"::"r"(handle));
 262              		.loc 1 50 5
 263              		.loc 1 50 47 is_stmt 0
 264              	#APP
 265              	# 50 "src/syscall_c.cpp" 1
  51              	    __asm__ volatile("li a0, 0x14");
 266              		mv a1, a0
 267              	# 0 "" 2
 268              		.loc 1 51 5 is_stmt 1
 269              		.loc 1 51 36 is_stmt 0
 270              	# 51 "src/syscall_c.cpp" 1
  52              	    __asm__ volatile("ecall");
 271              		li a0, 0x14
 272              	# 0 "" 2
 273              		.loc 1 52 5 is_stmt 1
 274              		.loc 1 52 30 is_stmt 0
 275              	# 52 "src/syscall_c.cpp" 1
  53              	    return 0;
 276              		ecall
 277              	# 0 "" 2
 278              		.loc 1 53 5 is_stmt 1
  54:src/syscall_c.cpp **** }
 279              		.loc 1 54 1 is_stmt 0
 280              	#NO_APP
 281 00e8 13050000 		li	a0,0
 282              	.LVL11:
 283 00ec 03348100 		ld	s0,8(sp)
 284              		.cfi_restore 8
 285              		.cfi_def_cfa 2, 16
 286 00f0 13010101 		addi	sp,sp,16
 287              		.cfi_def_cfa_offset 0
 288 00f4 67800000 		jr	ra
 289              		.cfi_endproc
 290              	.LFE36:
 292              		.align	2
 293              		.globl	_Z14thread_create2PP3TCBPFvPvES2_
 295              	_Z14thread_create2PP3TCBPFvPvES2_:
 296              	.LFB37:
  55:src/syscall_c.cpp **** 
  56:src/syscall_c.cpp **** int thread_create2 (thread_t* handle, void(*start_routine)(void*), void* arg){
 297              		.loc 1 56 78 is_stmt 1
 298              		.cfi_startproc
 299              	.LVL12:
GAS LISTING /tmp/ccoaAUQ5.s 			page 7


 300 00f8 130101FF 		addi	sp,sp,-16
 301              		.cfi_def_cfa_offset 16
 302 00fc 23348100 		sd	s0,8(sp)
 303              		.cfi_offset 8, -8
 304 0100 13040101 		addi	s0,sp,16
 305              		.cfi_def_cfa 8, 0
  57:src/syscall_c.cpp ****     __asm__ volatile("mv a7, %0"::"r"(arg));
 306              		.loc 1 57 5
 307              		.loc 1 57 44 is_stmt 0
 308              	#APP
 309              	# 57 "src/syscall_c.cpp" 1
  58              	    __asm__ volatile("mv a2, %0"::"r"(start_routine));
 310              		mv a7, a2
 311              	# 0 "" 2
 312              		.loc 1 58 5 is_stmt 1
 313              		.loc 1 58 54 is_stmt 0
 314              	# 58 "src/syscall_c.cpp" 1
  59              	    __asm__ volatile("mv a1, %0"::"r"(handle));
 315              		mv a2, a1
 316              	# 0 "" 2
 317              		.loc 1 59 5 is_stmt 1
 318              		.loc 1 59 47 is_stmt 0
 319              	# 59 "src/syscall_c.cpp" 1
  60              	    __asm__ volatile("li a0, 0x15");
 320              		mv a1, a0
 321              	# 0 "" 2
 322              		.loc 1 60 5 is_stmt 1
 323              		.loc 1 60 36 is_stmt 0
 324              	# 60 "src/syscall_c.cpp" 1
  61              	    __asm__ volatile("ecall");
 325              		li a0, 0x15
 326              	# 0 "" 2
 327              		.loc 1 61 5 is_stmt 1
 328              		.loc 1 61 30 is_stmt 0
 329              	# 61 "src/syscall_c.cpp" 1
  62              	    uint64 a0;
 330              		ecall
 331              	# 0 "" 2
 332              		.loc 1 62 5 is_stmt 1
  63:src/syscall_c.cpp ****     __asm__ volatile ("mv %[a0], a0" : [a0] "=r"(a0));
 333              		.loc 1 63 5
 334              		.loc 1 63 54 is_stmt 0
 335              	# 63 "src/syscall_c.cpp" 1
  64              	    return a0;
 336              		mv a0, a0
 337              	# 0 "" 2
 338              	.LVL13:
 339              		.loc 1 64 5 is_stmt 1
  65:src/syscall_c.cpp **** }
 340              		.loc 1 65 1 is_stmt 0
 341              	#NO_APP
 342 011c 1B050500 		sext.w	a0,a0
 343              	.LVL14:
 344 0120 03348100 		ld	s0,8(sp)
 345              		.cfi_restore 8
 346              		.cfi_def_cfa 2, 16
 347 0124 13010101 		addi	sp,sp,16
GAS LISTING /tmp/ccoaAUQ5.s 			page 8


 348              		.cfi_def_cfa_offset 0
 349 0128 67800000 		jr	ra
 350              		.cfi_endproc
 351              	.LFE37:
 353              		.align	2
 354              		.globl	_Z8sem_openPP10Ksemaphorej
 356              	_Z8sem_openPP10Ksemaphorej:
 357              	.LFB38:
  66:src/syscall_c.cpp **** 
  67:src/syscall_c.cpp **** 
  68:src/syscall_c.cpp **** int sem_open (sem_t* handle,unsigned init){
 358              		.loc 1 68 43 is_stmt 1
 359              		.cfi_startproc
 360              	.LVL15:
 361 012c 130101FF 		addi	sp,sp,-16
 362              		.cfi_def_cfa_offset 16
 363 0130 23348100 		sd	s0,8(sp)
 364              		.cfi_offset 8, -8
 365 0134 13040101 		addi	s0,sp,16
 366              		.cfi_def_cfa 8, 0
  69:src/syscall_c.cpp ****     __asm__ volatile("mv a2, %0"::"r"(init));
 367              		.loc 1 69 5
 368              		.loc 1 69 45 is_stmt 0
 369              	#APP
 370              	# 69 "src/syscall_c.cpp" 1
  70              	    __asm__ volatile("mv a1, %0"::"r"(handle));
 371              		mv a2, a1
 372              	# 0 "" 2
 373              		.loc 1 70 5 is_stmt 1
 374              		.loc 1 70 47 is_stmt 0
 375              	# 70 "src/syscall_c.cpp" 1
  71              	    __asm__ volatile("li a0, 0x21");
 376              		mv a1, a0
 377              	# 0 "" 2
 378              		.loc 1 71 5 is_stmt 1
 379              		.loc 1 71 36 is_stmt 0
 380              	# 71 "src/syscall_c.cpp" 1
  72              	    __asm__ volatile("ecall");
 381              		li a0, 0x21
 382              	# 0 "" 2
 383              		.loc 1 72 5 is_stmt 1
 384              		.loc 1 72 30 is_stmt 0
 385              	# 72 "src/syscall_c.cpp" 1
  73              	    uint64 a0;
 386              		ecall
 387              	# 0 "" 2
 388              		.loc 1 73 5 is_stmt 1
  74:src/syscall_c.cpp ****     __asm__ volatile ("mv %[a0], a0" : [a0] "=r"(a0));
 389              		.loc 1 74 5
 390              		.loc 1 74 54 is_stmt 0
 391              	# 74 "src/syscall_c.cpp" 1
  75              	    return a0;
 392              		mv a0, a0
 393              	# 0 "" 2
 394              	.LVL16:
 395              		.loc 1 75 5 is_stmt 1
  76:src/syscall_c.cpp **** 
GAS LISTING /tmp/ccoaAUQ5.s 			page 9


  77:src/syscall_c.cpp **** }
 396              		.loc 1 77 1 is_stmt 0
 397              	#NO_APP
 398 014c 1B050500 		sext.w	a0,a0
 399              	.LVL17:
 400 0150 03348100 		ld	s0,8(sp)
 401              		.cfi_restore 8
 402              		.cfi_def_cfa 2, 16
 403 0154 13010101 		addi	sp,sp,16
 404              		.cfi_def_cfa_offset 0
 405 0158 67800000 		jr	ra
 406              		.cfi_endproc
 407              	.LFE38:
 409              		.align	2
 410              		.globl	_Z9sem_closeP10Ksemaphore
 412              	_Z9sem_closeP10Ksemaphore:
 413              	.LFB39:
  78:src/syscall_c.cpp **** 
  79:src/syscall_c.cpp **** int sem_close (sem_t handle){
 414              		.loc 1 79 29 is_stmt 1
 415              		.cfi_startproc
 416              	.LVL18:
 417 015c 130101FF 		addi	sp,sp,-16
 418              		.cfi_def_cfa_offset 16
 419 0160 23348100 		sd	s0,8(sp)
 420              		.cfi_offset 8, -8
 421 0164 13040101 		addi	s0,sp,16
 422              		.cfi_def_cfa 8, 0
  80:src/syscall_c.cpp ****     __asm__ volatile("mv a1, %0"::"r"(handle));
 423              		.loc 1 80 5
 424              		.loc 1 80 47 is_stmt 0
 425              	#APP
 426              	# 80 "src/syscall_c.cpp" 1
  81              	    __asm__ volatile("li a0, 0x22");
 427              		mv a1, a0
 428              	# 0 "" 2
 429              		.loc 1 81 5 is_stmt 1
 430              		.loc 1 81 36 is_stmt 0
 431              	# 81 "src/syscall_c.cpp" 1
  82              	    __asm__ volatile("ecall");
 432              		li a0, 0x22
 433              	# 0 "" 2
 434              		.loc 1 82 5 is_stmt 1
 435              		.loc 1 82 30 is_stmt 0
 436              	# 82 "src/syscall_c.cpp" 1
  83              	    uint64 a0;
 437              		ecall
 438              	# 0 "" 2
 439              		.loc 1 83 5 is_stmt 1
  84:src/syscall_c.cpp ****     __asm__ volatile ("mv %[a0], a0" : [a0] "=r"(a0));
 440              		.loc 1 84 5
 441              		.loc 1 84 54 is_stmt 0
 442              	# 84 "src/syscall_c.cpp" 1
  85              	
 443              		mv a0, a0
 444              	# 0 "" 2
 445              	.LVL19:
GAS LISTING /tmp/ccoaAUQ5.s 			page 10


  86:src/syscall_c.cpp ****     return a0;
 446              		.loc 1 86 5 is_stmt 1
  87:src/syscall_c.cpp **** }
 447              		.loc 1 87 1 is_stmt 0
 448              	#NO_APP
 449 0178 1B050500 		sext.w	a0,a0
 450              	.LVL20:
 451 017c 03348100 		ld	s0,8(sp)
 452              		.cfi_restore 8
 453              		.cfi_def_cfa 2, 16
 454 0180 13010101 		addi	sp,sp,16
 455              		.cfi_def_cfa_offset 0
 456 0184 67800000 		jr	ra
 457              		.cfi_endproc
 458              	.LFE39:
 460              		.align	2
 461              		.globl	_Z8sem_waitP10Ksemaphore
 463              	_Z8sem_waitP10Ksemaphore:
 464              	.LFB40:
  88:src/syscall_c.cpp **** 
  89:src/syscall_c.cpp **** int sem_wait (sem_t id){
 465              		.loc 1 89 24 is_stmt 1
 466              		.cfi_startproc
 467              	.LVL21:
 468 0188 130101FF 		addi	sp,sp,-16
 469              		.cfi_def_cfa_offset 16
 470 018c 23348100 		sd	s0,8(sp)
 471              		.cfi_offset 8, -8
 472 0190 13040101 		addi	s0,sp,16
 473              		.cfi_def_cfa 8, 0
  90:src/syscall_c.cpp ****     __asm__ volatile("mv a7, %0"::"r"(id));
 474              		.loc 1 90 5
 475              		.loc 1 90 43 is_stmt 0
 476              	#APP
 477              	# 90 "src/syscall_c.cpp" 1
  91              	    __asm__ volatile("li a0, 0x23");
 478              		mv a7, a0
 479              	# 0 "" 2
 480              		.loc 1 91 5 is_stmt 1
 481              		.loc 1 91 36 is_stmt 0
 482              	# 91 "src/syscall_c.cpp" 1
  92              	    __asm__ volatile("ecall");
 483              		li a0, 0x23
 484              	# 0 "" 2
 485              		.loc 1 92 5 is_stmt 1
 486              		.loc 1 92 30 is_stmt 0
 487              	# 92 "src/syscall_c.cpp" 1
  93              	    uint64 a0;
 488              		ecall
 489              	# 0 "" 2
 490              		.loc 1 93 5 is_stmt 1
  94:src/syscall_c.cpp ****     __asm__ volatile ("mv %[a0], a0" : [a0] "=r"(a0));
 491              		.loc 1 94 5
 492              		.loc 1 94 54 is_stmt 0
 493              	# 94 "src/syscall_c.cpp" 1
  95              	
 494              		mv a0, a0
GAS LISTING /tmp/ccoaAUQ5.s 			page 11


 495              	# 0 "" 2
 496              	.LVL22:
  96:src/syscall_c.cpp ****     return a0;
 497              		.loc 1 96 5 is_stmt 1
  97:src/syscall_c.cpp **** 
  98:src/syscall_c.cpp **** }
 498              		.loc 1 98 1 is_stmt 0
 499              	#NO_APP
 500 01a4 1B050500 		sext.w	a0,a0
 501              	.LVL23:
 502 01a8 03348100 		ld	s0,8(sp)
 503              		.cfi_restore 8
 504              		.cfi_def_cfa 2, 16
 505 01ac 13010101 		addi	sp,sp,16
 506              		.cfi_def_cfa_offset 0
 507 01b0 67800000 		jr	ra
 508              		.cfi_endproc
 509              	.LFE40:
 511              		.align	2
 512              		.globl	_Z10sem_signalP10Ksemaphore
 514              	_Z10sem_signalP10Ksemaphore:
 515              	.LFB41:
  99:src/syscall_c.cpp **** 
 100:src/syscall_c.cpp **** int sem_signal(sem_t id){
 516              		.loc 1 100 25 is_stmt 1
 517              		.cfi_startproc
 518              	.LVL24:
 519 01b4 130101FF 		addi	sp,sp,-16
 520              		.cfi_def_cfa_offset 16
 521 01b8 23348100 		sd	s0,8(sp)
 522              		.cfi_offset 8, -8
 523 01bc 13040101 		addi	s0,sp,16
 524              		.cfi_def_cfa 8, 0
 101:src/syscall_c.cpp ****     __asm__ volatile("mv a7, %0"::"r"(id));
 525              		.loc 1 101 5
 526              		.loc 1 101 43 is_stmt 0
 527              	#APP
 528              	# 101 "src/syscall_c.cpp" 1
 102              	    __asm__ volatile("li a0, 0x24");
 529              		mv a7, a0
 530              	# 0 "" 2
 531              		.loc 1 102 5 is_stmt 1
 532              		.loc 1 102 36 is_stmt 0
 533              	# 102 "src/syscall_c.cpp" 1
 103              	    __asm__ volatile("ecall");
 534              		li a0, 0x24
 535              	# 0 "" 2
 536              		.loc 1 103 5 is_stmt 1
 537              		.loc 1 103 30 is_stmt 0
 538              	# 103 "src/syscall_c.cpp" 1
 104              	    uint64 a0;
 539              		ecall
 540              	# 0 "" 2
 541              		.loc 1 104 5 is_stmt 1
 105:src/syscall_c.cpp ****     __asm__ volatile ("mv %[a0], a0" : [a0] "=r"(a0));
 542              		.loc 1 105 5
 543              		.loc 1 105 54 is_stmt 0
GAS LISTING /tmp/ccoaAUQ5.s 			page 12


 544              	# 105 "src/syscall_c.cpp" 1
 106              	
 545              		mv a0, a0
 546              	# 0 "" 2
 547              	.LVL25:
 107:src/syscall_c.cpp ****     return a0;
 548              		.loc 1 107 5 is_stmt 1
 108:src/syscall_c.cpp **** }
 549              		.loc 1 108 1 is_stmt 0
 550              	#NO_APP
 551 01d0 1B050500 		sext.w	a0,a0
 552              	.LVL26:
 553 01d4 03348100 		ld	s0,8(sp)
 554              		.cfi_restore 8
 555              		.cfi_def_cfa 2, 16
 556 01d8 13010101 		addi	sp,sp,16
 557              		.cfi_def_cfa_offset 0
 558 01dc 67800000 		jr	ra
 559              		.cfi_endproc
 560              	.LFE41:
 562              		.align	2
 563              		.globl	_Z4getcv
 565              	_Z4getcv:
 566              	.LFB42:
 109:src/syscall_c.cpp **** 
 110:src/syscall_c.cpp **** char getc(){
 567              		.loc 1 110 12 is_stmt 1
 568              		.cfi_startproc
 569 01e0 130101FF 		addi	sp,sp,-16
 570              		.cfi_def_cfa_offset 16
 571 01e4 23341100 		sd	ra,8(sp)
 572 01e8 23308100 		sd	s0,0(sp)
 573              		.cfi_offset 1, -8
 574              		.cfi_offset 8, -16
 575 01ec 13040101 		addi	s0,sp,16
 576              		.cfi_def_cfa 8, 0
 111:src/syscall_c.cpp ****     return __getc();
 577              		.loc 1 111 5
 578              		.loc 1 111 18 is_stmt 0
 579 01f0 97000000 		call	__getc@plt
 579      E7800000 
 580              	.LVL27:
 112:src/syscall_c.cpp **** }
 581              		.loc 1 112 1
 582 01f8 83308100 		ld	ra,8(sp)
 583              		.cfi_restore 1
 584 01fc 03340100 		ld	s0,0(sp)
 585              		.cfi_restore 8
 586              		.cfi_def_cfa 2, 16
 587 0200 13010101 		addi	sp,sp,16
 588              		.cfi_def_cfa_offset 0
 589 0204 67800000 		jr	ra
 590              		.cfi_endproc
 591              	.LFE42:
 593              		.align	2
 594              		.globl	_Z4putcc
 596              	_Z4putcc:
GAS LISTING /tmp/ccoaAUQ5.s 			page 13


 597              	.LFB43:
 113:src/syscall_c.cpp **** void putc(char c){
 598              		.loc 1 113 18 is_stmt 1
 599              		.cfi_startproc
 600              	.LVL28:
 601 0208 130101FF 		addi	sp,sp,-16
 602              		.cfi_def_cfa_offset 16
 603 020c 23341100 		sd	ra,8(sp)
 604 0210 23308100 		sd	s0,0(sp)
 605              		.cfi_offset 1, -8
 606              		.cfi_offset 8, -16
 607 0214 13040101 		addi	s0,sp,16
 608              		.cfi_def_cfa 8, 0
 114:src/syscall_c.cpp ****     __putc(c);
 609              		.loc 1 114 5
 610              		.loc 1 114 11 is_stmt 0
 611 0218 97000000 		call	__putc@plt
 611      E7800000 
 612              	.LVL29:
 115:src/syscall_c.cpp **** }
 613              		.loc 1 115 1
 614 0220 83308100 		ld	ra,8(sp)
 615              		.cfi_restore 1
 616 0224 03340100 		ld	s0,0(sp)
 617              		.cfi_restore 8
 618              		.cfi_def_cfa 2, 16
 619 0228 13010101 		addi	sp,sp,16
 620              		.cfi_def_cfa_offset 0
 621 022c 67800000 		jr	ra
 622              		.cfi_endproc
 623              	.LFE43:
 625              		.align	2
 626              		.globl	_Z11getThreadIdP3TCB
 628              	_Z11getThreadIdP3TCB:
 629              	.LFB44:
 116:src/syscall_c.cpp **** 
 117:src/syscall_c.cpp **** int getThreadId(thread_t t) {
 630              		.loc 1 117 29 is_stmt 1
 631              		.cfi_startproc
 632              	.LVL30:
 633 0230 130101FE 		addi	sp,sp,-32
 634              		.cfi_def_cfa_offset 32
 635 0234 233C1100 		sd	ra,24(sp)
 636 0238 23388100 		sd	s0,16(sp)
 637 023c 23349100 		sd	s1,8(sp)
 638              		.cfi_offset 1, -8
 639              		.cfi_offset 8, -16
 640              		.cfi_offset 9, -24
 641 0240 13040102 		addi	s0,sp,32
 642              		.cfi_def_cfa 8, 0
 118:src/syscall_c.cpp ****     __asm__ volatile("mv a1, %0"::"r"(t));
 643              		.loc 1 118 5
 644              		.loc 1 118 42 is_stmt 0
 645              	#APP
 646              	# 118 "src/syscall_c.cpp" 1
 119              	    __asm__ volatile("li a0, 0x16");
 647              		mv a1, a0
GAS LISTING /tmp/ccoaAUQ5.s 			page 14


 648              	# 0 "" 2
 649              		.loc 1 119 5 is_stmt 1
 650              		.loc 1 119 36 is_stmt 0
 651              	# 119 "src/syscall_c.cpp" 1
 120              	    __asm__ volatile("ecall");
 652              		li a0, 0x16
 653              	# 0 "" 2
 654              		.loc 1 120 5 is_stmt 1
 655              		.loc 1 120 30 is_stmt 0
 656              	# 120 "src/syscall_c.cpp" 1
 121              	    uint64 a0;
 657              		ecall
 658              	# 0 "" 2
 659              		.loc 1 121 5 is_stmt 1
 122:src/syscall_c.cpp ****     __asm__ volatile ("mv %[a0], a0" : [a0] "=r"(a0));
 660              		.loc 1 122 5
 661              		.loc 1 122 54 is_stmt 0
 662              	# 122 "src/syscall_c.cpp" 1
 123              	    thread_dispatch();
 663              		mv s1, a0
 664              	# 0 "" 2
 665              	.LVL31:
 666              		.loc 1 123 5 is_stmt 1
 667              		.loc 1 123 20 is_stmt 0
 668              	#NO_APP
 669 0254 97000000 		call	_Z15thread_dispatchv
 669      E7800000 
 670              	.LVL32:
 124:src/syscall_c.cpp ****     return a0;
 671              		.loc 1 124 5 is_stmt 1
 125:src/syscall_c.cpp **** }
 672              		.loc 1 125 1 is_stmt 0
 673 025c 1B850400 		sext.w	a0,s1
 674 0260 83308101 		ld	ra,24(sp)
 675              		.cfi_restore 1
 676 0264 03340101 		ld	s0,16(sp)
 677              		.cfi_restore 8
 678              		.cfi_def_cfa 2, 32
 679 0268 83348100 		ld	s1,8(sp)
 680              		.cfi_restore 9
 681              	.LVL33:
 682 026c 13010102 		addi	sp,sp,32
 683              		.cfi_def_cfa_offset 0
 684 0270 67800000 		jr	ra
 685              		.cfi_endproc
 686              	.LFE44:
 688              	.Letext0:
 689              		.file 2 "src/../h/../lib/hw.h"
 690              		.file 3 "src/../h/list.hpp"
 691              		.file 4 "src/../h/TCB.hpp"
 692              		.file 5 "src/../h/Ksemaphore.hpp"
 693              		.file 6 "src/../h/../lib/console.h"
GAS LISTING /tmp/ccoaAUQ5.s 			page 15


DEFINED SYMBOLS
                            *ABS*:0000000000000000 syscall_c.cpp
     /tmp/ccoaAUQ5.s:9      .text:0000000000000000 _Z9mem_allocm
     /tmp/ccoaAUQ5.s:13     .text:0000000000000000 .L0 
     /tmp/ccoaAUQ5.s:15     .text:0000000000000000 .L0 
     /tmp/ccoaAUQ5.s:16     .text:0000000000000004 .L0 
     /tmp/ccoaAUQ5.s:18     .text:0000000000000008 .L0 
     /tmp/ccoaAUQ5.s:20     .text:000000000000000c .L0 
     /tmp/ccoaAUQ5.s:22     .text:000000000000000c .L0 
   src/syscall_c.cpp:5      .text:000000000000000c .L0 
     /tmp/ccoaAUQ5.s:28     .text:0000000000000010 .L0 
   src/syscall_c.cpp:6      .text:0000000000000010 .L0 
     /tmp/ccoaAUQ5.s:33     .text:0000000000000014 .L0 
   src/syscall_c.cpp:7      .text:0000000000000014 .L0 
     /tmp/ccoaAUQ5.s:38     .text:0000000000000018 .L0 
     /tmp/ccoaAUQ5.s:39     .text:0000000000000018 .L0 
   src/syscall_c.cpp:9      .text:0000000000000018 .L0 
     /tmp/ccoaAUQ5.s:45     .text:000000000000001c .L0 
     /tmp/ccoaAUQ5.s:47     .text:000000000000001c .L0 
     /tmp/ccoaAUQ5.s:48     .text:0000000000000020 .L0 
     /tmp/ccoaAUQ5.s:49     .text:0000000000000020 .L0 
     /tmp/ccoaAUQ5.s:51     .text:0000000000000024 .L0 
     /tmp/ccoaAUQ5.s:53     .text:0000000000000028 .L0 
     /tmp/ccoaAUQ5.s:59     .text:0000000000000028 _Z8mem_freePv
     /tmp/ccoaAUQ5.s:62     .text:0000000000000028 .L0 
     /tmp/ccoaAUQ5.s:64     .text:0000000000000028 .L0 
     /tmp/ccoaAUQ5.s:65     .text:000000000000002c .L0 
     /tmp/ccoaAUQ5.s:67     .text:0000000000000030 .L0 
     /tmp/ccoaAUQ5.s:69     .text:0000000000000034 .L0 
     /tmp/ccoaAUQ5.s:71     .text:0000000000000034 .L0 
   src/syscall_c.cpp:14     .text:0000000000000034 .L0 
     /tmp/ccoaAUQ5.s:77     .text:0000000000000038 .L0 
   src/syscall_c.cpp:15     .text:0000000000000038 .L0 
     /tmp/ccoaAUQ5.s:82     .text:000000000000003c .L0 
   src/syscall_c.cpp:16     .text:000000000000003c .L0 
     /tmp/ccoaAUQ5.s:87     .text:0000000000000040 .L0 
     /tmp/ccoaAUQ5.s:88     .text:0000000000000040 .L0 
   src/syscall_c.cpp:19     .text:0000000000000040 .L0 
     /tmp/ccoaAUQ5.s:94     .text:0000000000000044 .L0 
     /tmp/ccoaAUQ5.s:96     .text:0000000000000044 .L0 
     /tmp/ccoaAUQ5.s:99     .text:000000000000004c .L0 
     /tmp/ccoaAUQ5.s:100    .text:000000000000004c .L0 
     /tmp/ccoaAUQ5.s:102    .text:0000000000000050 .L0 
     /tmp/ccoaAUQ5.s:104    .text:0000000000000054 .L0 
     /tmp/ccoaAUQ5.s:110    .text:0000000000000054 _Z13thread_createPP3TCBPFvPvES2_
     /tmp/ccoaAUQ5.s:113    .text:0000000000000054 .L0 
     /tmp/ccoaAUQ5.s:115    .text:0000000000000054 .L0 
     /tmp/ccoaAUQ5.s:116    .text:0000000000000058 .L0 
     /tmp/ccoaAUQ5.s:118    .text:000000000000005c .L0 
     /tmp/ccoaAUQ5.s:120    .text:0000000000000060 .L0 
     /tmp/ccoaAUQ5.s:122    .text:0000000000000060 .L0 
   src/syscall_c.cpp:24     .text:0000000000000060 .L0 
     /tmp/ccoaAUQ5.s:128    .text:0000000000000064 .L0 
   src/syscall_c.cpp:25     .text:0000000000000064 .L0 
     /tmp/ccoaAUQ5.s:133    .text:0000000000000068 .L0 
   src/syscall_c.cpp:26     .text:0000000000000068 .L0 
     /tmp/ccoaAUQ5.s:138    .text:000000000000006c .L0 
GAS LISTING /tmp/ccoaAUQ5.s 			page 16


   src/syscall_c.cpp:27     .text:000000000000006c .L0 
     /tmp/ccoaAUQ5.s:143    .text:0000000000000070 .L0 
   src/syscall_c.cpp:28     .text:0000000000000070 .L0 
     /tmp/ccoaAUQ5.s:148    .text:0000000000000074 .L0 
     /tmp/ccoaAUQ5.s:149    .text:0000000000000074 .L0 
   src/syscall_c.cpp:30     .text:0000000000000074 .L0 
     /tmp/ccoaAUQ5.s:155    .text:0000000000000078 .L0 
     /tmp/ccoaAUQ5.s:157    .text:0000000000000078 .L0 
     /tmp/ccoaAUQ5.s:160    .text:0000000000000080 .L0 
     /tmp/ccoaAUQ5.s:161    .text:0000000000000080 .L0 
     /tmp/ccoaAUQ5.s:163    .text:0000000000000084 .L0 
     /tmp/ccoaAUQ5.s:165    .text:0000000000000088 .L0 
     /tmp/ccoaAUQ5.s:171    .text:0000000000000088 _Z11thread_exitv
     /tmp/ccoaAUQ5.s:174    .text:0000000000000088 .L0 
     /tmp/ccoaAUQ5.s:175    .text:0000000000000088 .L0 
     /tmp/ccoaAUQ5.s:176    .text:000000000000008c .L0 
     /tmp/ccoaAUQ5.s:178    .text:0000000000000090 .L0 
     /tmp/ccoaAUQ5.s:180    .text:0000000000000094 .L0 
     /tmp/ccoaAUQ5.s:182    .text:0000000000000094 .L0 
   src/syscall_c.cpp:35     .text:0000000000000094 .L0 
     /tmp/ccoaAUQ5.s:188    .text:0000000000000098 .L0 
   src/syscall_c.cpp:36     .text:0000000000000098 .L0 
     /tmp/ccoaAUQ5.s:193    .text:000000000000009c .L0 
     /tmp/ccoaAUQ5.s:194    .text:000000000000009c .L0 
   src/syscall_c.cpp:39     .text:000000000000009c .L0 
     /tmp/ccoaAUQ5.s:200    .text:00000000000000a0 .L0 
     /tmp/ccoaAUQ5.s:202    .text:00000000000000a0 .L0 
     /tmp/ccoaAUQ5.s:205    .text:00000000000000a8 .L0 
     /tmp/ccoaAUQ5.s:206    .text:00000000000000a8 .L0 
     /tmp/ccoaAUQ5.s:208    .text:00000000000000ac .L0 
     /tmp/ccoaAUQ5.s:210    .text:00000000000000b0 .L0 
     /tmp/ccoaAUQ5.s:216    .text:00000000000000b0 _Z15thread_dispatchv
     /tmp/ccoaAUQ5.s:219    .text:00000000000000b0 .L0 
     /tmp/ccoaAUQ5.s:220    .text:00000000000000b0 .L0 
     /tmp/ccoaAUQ5.s:221    .text:00000000000000b4 .L0 
     /tmp/ccoaAUQ5.s:223    .text:00000000000000b8 .L0 
     /tmp/ccoaAUQ5.s:225    .text:00000000000000bc .L0 
     /tmp/ccoaAUQ5.s:227    .text:00000000000000bc .L0 
   src/syscall_c.cpp:44     .text:00000000000000bc .L0 
     /tmp/ccoaAUQ5.s:233    .text:00000000000000c0 .L0 
   src/syscall_c.cpp:45     .text:00000000000000c0 .L0 
     /tmp/ccoaAUQ5.s:239    .text:00000000000000c4 .L0 
     /tmp/ccoaAUQ5.s:240    .text:00000000000000c8 .L0 
     /tmp/ccoaAUQ5.s:241    .text:00000000000000c8 .L0 
     /tmp/ccoaAUQ5.s:243    .text:00000000000000cc .L0 
     /tmp/ccoaAUQ5.s:245    .text:00000000000000d0 .L0 
     /tmp/ccoaAUQ5.s:251    .text:00000000000000d0 _Z12thread_startPP3TCB
     /tmp/ccoaAUQ5.s:254    .text:00000000000000d0 .L0 
     /tmp/ccoaAUQ5.s:256    .text:00000000000000d0 .L0 
     /tmp/ccoaAUQ5.s:257    .text:00000000000000d4 .L0 
     /tmp/ccoaAUQ5.s:259    .text:00000000000000d8 .L0 
     /tmp/ccoaAUQ5.s:261    .text:00000000000000dc .L0 
     /tmp/ccoaAUQ5.s:263    .text:00000000000000dc .L0 
   src/syscall_c.cpp:50     .text:00000000000000dc .L0 
     /tmp/ccoaAUQ5.s:269    .text:00000000000000e0 .L0 
   src/syscall_c.cpp:51     .text:00000000000000e0 .L0 
     /tmp/ccoaAUQ5.s:274    .text:00000000000000e4 .L0 
GAS LISTING /tmp/ccoaAUQ5.s 			page 17


   src/syscall_c.cpp:52     .text:00000000000000e4 .L0 
     /tmp/ccoaAUQ5.s:279    .text:00000000000000e8 .L0 
     /tmp/ccoaAUQ5.s:281    .text:00000000000000e8 .L0 
     /tmp/ccoaAUQ5.s:284    .text:00000000000000f0 .L0 
     /tmp/ccoaAUQ5.s:285    .text:00000000000000f0 .L0 
     /tmp/ccoaAUQ5.s:287    .text:00000000000000f4 .L0 
     /tmp/ccoaAUQ5.s:289    .text:00000000000000f8 .L0 
     /tmp/ccoaAUQ5.s:295    .text:00000000000000f8 _Z14thread_create2PP3TCBPFvPvES2_
     /tmp/ccoaAUQ5.s:298    .text:00000000000000f8 .L0 
     /tmp/ccoaAUQ5.s:300    .text:00000000000000f8 .L0 
     /tmp/ccoaAUQ5.s:301    .text:00000000000000fc .L0 
     /tmp/ccoaAUQ5.s:303    .text:0000000000000100 .L0 
     /tmp/ccoaAUQ5.s:305    .text:0000000000000104 .L0 
     /tmp/ccoaAUQ5.s:307    .text:0000000000000104 .L0 
   src/syscall_c.cpp:57     .text:0000000000000104 .L0 
     /tmp/ccoaAUQ5.s:313    .text:0000000000000108 .L0 
   src/syscall_c.cpp:58     .text:0000000000000108 .L0 
     /tmp/ccoaAUQ5.s:318    .text:000000000000010c .L0 
   src/syscall_c.cpp:59     .text:000000000000010c .L0 
     /tmp/ccoaAUQ5.s:323    .text:0000000000000110 .L0 
   src/syscall_c.cpp:60     .text:0000000000000110 .L0 
     /tmp/ccoaAUQ5.s:328    .text:0000000000000114 .L0 
   src/syscall_c.cpp:61     .text:0000000000000114 .L0 
     /tmp/ccoaAUQ5.s:333    .text:0000000000000118 .L0 
     /tmp/ccoaAUQ5.s:334    .text:0000000000000118 .L0 
   src/syscall_c.cpp:63     .text:0000000000000118 .L0 
     /tmp/ccoaAUQ5.s:340    .text:000000000000011c .L0 
     /tmp/ccoaAUQ5.s:342    .text:000000000000011c .L0 
     /tmp/ccoaAUQ5.s:345    .text:0000000000000124 .L0 
     /tmp/ccoaAUQ5.s:346    .text:0000000000000124 .L0 
     /tmp/ccoaAUQ5.s:348    .text:0000000000000128 .L0 
     /tmp/ccoaAUQ5.s:350    .text:000000000000012c .L0 
     /tmp/ccoaAUQ5.s:356    .text:000000000000012c _Z8sem_openPP10Ksemaphorej
     /tmp/ccoaAUQ5.s:359    .text:000000000000012c .L0 
     /tmp/ccoaAUQ5.s:361    .text:000000000000012c .L0 
     /tmp/ccoaAUQ5.s:362    .text:0000000000000130 .L0 
     /tmp/ccoaAUQ5.s:364    .text:0000000000000134 .L0 
     /tmp/ccoaAUQ5.s:366    .text:0000000000000138 .L0 
     /tmp/ccoaAUQ5.s:368    .text:0000000000000138 .L0 
   src/syscall_c.cpp:69     .text:0000000000000138 .L0 
     /tmp/ccoaAUQ5.s:374    .text:000000000000013c .L0 
   src/syscall_c.cpp:70     .text:000000000000013c .L0 
     /tmp/ccoaAUQ5.s:379    .text:0000000000000140 .L0 
   src/syscall_c.cpp:71     .text:0000000000000140 .L0 
     /tmp/ccoaAUQ5.s:384    .text:0000000000000144 .L0 
   src/syscall_c.cpp:72     .text:0000000000000144 .L0 
     /tmp/ccoaAUQ5.s:389    .text:0000000000000148 .L0 
     /tmp/ccoaAUQ5.s:390    .text:0000000000000148 .L0 
   src/syscall_c.cpp:74     .text:0000000000000148 .L0 
     /tmp/ccoaAUQ5.s:396    .text:000000000000014c .L0 
     /tmp/ccoaAUQ5.s:398    .text:000000000000014c .L0 
     /tmp/ccoaAUQ5.s:401    .text:0000000000000154 .L0 
     /tmp/ccoaAUQ5.s:402    .text:0000000000000154 .L0 
     /tmp/ccoaAUQ5.s:404    .text:0000000000000158 .L0 
     /tmp/ccoaAUQ5.s:406    .text:000000000000015c .L0 
     /tmp/ccoaAUQ5.s:412    .text:000000000000015c _Z9sem_closeP10Ksemaphore
     /tmp/ccoaAUQ5.s:415    .text:000000000000015c .L0 
GAS LISTING /tmp/ccoaAUQ5.s 			page 18


     /tmp/ccoaAUQ5.s:417    .text:000000000000015c .L0 
     /tmp/ccoaAUQ5.s:418    .text:0000000000000160 .L0 
     /tmp/ccoaAUQ5.s:420    .text:0000000000000164 .L0 
     /tmp/ccoaAUQ5.s:422    .text:0000000000000168 .L0 
     /tmp/ccoaAUQ5.s:424    .text:0000000000000168 .L0 
   src/syscall_c.cpp:80     .text:0000000000000168 .L0 
     /tmp/ccoaAUQ5.s:430    .text:000000000000016c .L0 
   src/syscall_c.cpp:81     .text:000000000000016c .L0 
     /tmp/ccoaAUQ5.s:435    .text:0000000000000170 .L0 
   src/syscall_c.cpp:82     .text:0000000000000170 .L0 
     /tmp/ccoaAUQ5.s:440    .text:0000000000000174 .L0 
     /tmp/ccoaAUQ5.s:441    .text:0000000000000174 .L0 
   src/syscall_c.cpp:84     .text:0000000000000174 .L0 
     /tmp/ccoaAUQ5.s:447    .text:0000000000000178 .L0 
     /tmp/ccoaAUQ5.s:449    .text:0000000000000178 .L0 
     /tmp/ccoaAUQ5.s:452    .text:0000000000000180 .L0 
     /tmp/ccoaAUQ5.s:453    .text:0000000000000180 .L0 
     /tmp/ccoaAUQ5.s:455    .text:0000000000000184 .L0 
     /tmp/ccoaAUQ5.s:457    .text:0000000000000188 .L0 
     /tmp/ccoaAUQ5.s:463    .text:0000000000000188 _Z8sem_waitP10Ksemaphore
     /tmp/ccoaAUQ5.s:466    .text:0000000000000188 .L0 
     /tmp/ccoaAUQ5.s:468    .text:0000000000000188 .L0 
     /tmp/ccoaAUQ5.s:469    .text:000000000000018c .L0 
     /tmp/ccoaAUQ5.s:471    .text:0000000000000190 .L0 
     /tmp/ccoaAUQ5.s:473    .text:0000000000000194 .L0 
     /tmp/ccoaAUQ5.s:475    .text:0000000000000194 .L0 
   src/syscall_c.cpp:90     .text:0000000000000194 .L0 
     /tmp/ccoaAUQ5.s:481    .text:0000000000000198 .L0 
   src/syscall_c.cpp:91     .text:0000000000000198 .L0 
     /tmp/ccoaAUQ5.s:486    .text:000000000000019c .L0 
   src/syscall_c.cpp:92     .text:000000000000019c .L0 
     /tmp/ccoaAUQ5.s:491    .text:00000000000001a0 .L0 
     /tmp/ccoaAUQ5.s:492    .text:00000000000001a0 .L0 
   src/syscall_c.cpp:94     .text:00000000000001a0 .L0 
     /tmp/ccoaAUQ5.s:498    .text:00000000000001a4 .L0 
     /tmp/ccoaAUQ5.s:500    .text:00000000000001a4 .L0 
     /tmp/ccoaAUQ5.s:503    .text:00000000000001ac .L0 
     /tmp/ccoaAUQ5.s:504    .text:00000000000001ac .L0 
     /tmp/ccoaAUQ5.s:506    .text:00000000000001b0 .L0 
     /tmp/ccoaAUQ5.s:508    .text:00000000000001b4 .L0 
     /tmp/ccoaAUQ5.s:514    .text:00000000000001b4 _Z10sem_signalP10Ksemaphore
     /tmp/ccoaAUQ5.s:517    .text:00000000000001b4 .L0 
     /tmp/ccoaAUQ5.s:519    .text:00000000000001b4 .L0 
     /tmp/ccoaAUQ5.s:520    .text:00000000000001b8 .L0 
     /tmp/ccoaAUQ5.s:522    .text:00000000000001bc .L0 
     /tmp/ccoaAUQ5.s:524    .text:00000000000001c0 .L0 
     /tmp/ccoaAUQ5.s:526    .text:00000000000001c0 .L0 
   src/syscall_c.cpp:101    .text:00000000000001c0 .L0 
     /tmp/ccoaAUQ5.s:532    .text:00000000000001c4 .L0 
   src/syscall_c.cpp:102    .text:00000000000001c4 .L0 
     /tmp/ccoaAUQ5.s:537    .text:00000000000001c8 .L0 
   src/syscall_c.cpp:103    .text:00000000000001c8 .L0 
     /tmp/ccoaAUQ5.s:542    .text:00000000000001cc .L0 
     /tmp/ccoaAUQ5.s:543    .text:00000000000001cc .L0 
   src/syscall_c.cpp:105    .text:00000000000001cc .L0 
     /tmp/ccoaAUQ5.s:549    .text:00000000000001d0 .L0 
     /tmp/ccoaAUQ5.s:551    .text:00000000000001d0 .L0 
GAS LISTING /tmp/ccoaAUQ5.s 			page 19


     /tmp/ccoaAUQ5.s:554    .text:00000000000001d8 .L0 
     /tmp/ccoaAUQ5.s:555    .text:00000000000001d8 .L0 
     /tmp/ccoaAUQ5.s:557    .text:00000000000001dc .L0 
     /tmp/ccoaAUQ5.s:559    .text:00000000000001e0 .L0 
     /tmp/ccoaAUQ5.s:565    .text:00000000000001e0 _Z4getcv
     /tmp/ccoaAUQ5.s:568    .text:00000000000001e0 .L0 
     /tmp/ccoaAUQ5.s:569    .text:00000000000001e0 .L0 
     /tmp/ccoaAUQ5.s:570    .text:00000000000001e4 .L0 
     /tmp/ccoaAUQ5.s:573    .text:00000000000001ec .L0 
     /tmp/ccoaAUQ5.s:574    .text:00000000000001ec .L0 
     /tmp/ccoaAUQ5.s:576    .text:00000000000001f0 .L0 
     /tmp/ccoaAUQ5.s:578    .text:00000000000001f0 .L0 
     /tmp/ccoaAUQ5.s:579    .text:00000000000001f0 .L0 
     /tmp/ccoaAUQ5.s:582    .text:00000000000001f8 .L0 
     /tmp/ccoaAUQ5.s:583    .text:00000000000001fc .L0 
     /tmp/ccoaAUQ5.s:585    .text:0000000000000200 .L0 
     /tmp/ccoaAUQ5.s:586    .text:0000000000000200 .L0 
     /tmp/ccoaAUQ5.s:588    .text:0000000000000204 .L0 
     /tmp/ccoaAUQ5.s:590    .text:0000000000000208 .L0 
     /tmp/ccoaAUQ5.s:596    .text:0000000000000208 _Z4putcc
     /tmp/ccoaAUQ5.s:599    .text:0000000000000208 .L0 
     /tmp/ccoaAUQ5.s:601    .text:0000000000000208 .L0 
     /tmp/ccoaAUQ5.s:602    .text:000000000000020c .L0 
     /tmp/ccoaAUQ5.s:605    .text:0000000000000214 .L0 
     /tmp/ccoaAUQ5.s:606    .text:0000000000000214 .L0 
     /tmp/ccoaAUQ5.s:608    .text:0000000000000218 .L0 
     /tmp/ccoaAUQ5.s:610    .text:0000000000000218 .L0 
     /tmp/ccoaAUQ5.s:611    .text:0000000000000218 .L0 
     /tmp/ccoaAUQ5.s:614    .text:0000000000000220 .L0 
     /tmp/ccoaAUQ5.s:615    .text:0000000000000224 .L0 
     /tmp/ccoaAUQ5.s:617    .text:0000000000000228 .L0 
     /tmp/ccoaAUQ5.s:618    .text:0000000000000228 .L0 
     /tmp/ccoaAUQ5.s:620    .text:000000000000022c .L0 
     /tmp/ccoaAUQ5.s:622    .text:0000000000000230 .L0 
     /tmp/ccoaAUQ5.s:628    .text:0000000000000230 _Z11getThreadIdP3TCB
     /tmp/ccoaAUQ5.s:631    .text:0000000000000230 .L0 
     /tmp/ccoaAUQ5.s:633    .text:0000000000000230 .L0 
     /tmp/ccoaAUQ5.s:634    .text:0000000000000234 .L0 
     /tmp/ccoaAUQ5.s:638    .text:0000000000000240 .L0 
     /tmp/ccoaAUQ5.s:639    .text:0000000000000240 .L0 
     /tmp/ccoaAUQ5.s:640    .text:0000000000000240 .L0 
     /tmp/ccoaAUQ5.s:642    .text:0000000000000244 .L0 
     /tmp/ccoaAUQ5.s:644    .text:0000000000000244 .L0 
   src/syscall_c.cpp:118    .text:0000000000000244 .L0 
     /tmp/ccoaAUQ5.s:650    .text:0000000000000248 .L0 
   src/syscall_c.cpp:119    .text:0000000000000248 .L0 
     /tmp/ccoaAUQ5.s:655    .text:000000000000024c .L0 
   src/syscall_c.cpp:120    .text:000000000000024c .L0 
     /tmp/ccoaAUQ5.s:660    .text:0000000000000250 .L0 
     /tmp/ccoaAUQ5.s:661    .text:0000000000000250 .L0 
   src/syscall_c.cpp:122    .text:0000000000000250 .L0 
     /tmp/ccoaAUQ5.s:667    .text:0000000000000254 .L0 
     /tmp/ccoaAUQ5.s:669    .text:0000000000000254 .L0 
     /tmp/ccoaAUQ5.s:672    .text:000000000000025c .L0 
     /tmp/ccoaAUQ5.s:673    .text:000000000000025c .L0 
     /tmp/ccoaAUQ5.s:675    .text:0000000000000264 .L0 
     /tmp/ccoaAUQ5.s:677    .text:0000000000000268 .L0 
GAS LISTING /tmp/ccoaAUQ5.s 			page 20


     /tmp/ccoaAUQ5.s:678    .text:0000000000000268 .L0 
     /tmp/ccoaAUQ5.s:680    .text:000000000000026c .L0 
     /tmp/ccoaAUQ5.s:683    .text:0000000000000270 .L0 
     /tmp/ccoaAUQ5.s:685    .text:0000000000000274 .L0 
     /tmp/ccoaAUQ5.s:694    .text:0000000000000274 .L0 
     /tmp/ccoaAUQ5.s:1939   .debug_abbrev:0000000000000000 .Ldebug_abbrev0
     /tmp/ccoaAUQ5.s:3237   .debug_str:000000000000073a .LASF139
     /tmp/ccoaAUQ5.s:3133   .debug_str:0000000000000423 .LASF140
     /tmp/ccoaAUQ5.s:3067   .debug_str:0000000000000258 .LASF141
     /tmp/ccoaAUQ5.s:5      .text:0000000000000000 .Ltext0
     /tmp/ccoaAUQ5.s:688    .text:0000000000000274 .Letext0
     /tmp/ccoaAUQ5.s:2999   .debug_line:0000000000000000 .Ldebug_line0
     /tmp/ccoaAUQ5.s:3085   .debug_str:00000000000002c5 .LASF0
     /tmp/ccoaAUQ5.s:3105   .debug_str:0000000000000359 .LASF1
     /tmp/ccoaAUQ5.s:3195   .debug_str:000000000000060b .LASF2
     /tmp/ccoaAUQ5.s:3199   .debug_str:0000000000000623 .LASF4
     /tmp/ccoaAUQ5.s:3091   .debug_str:00000000000002e8 .LASF3
     /tmp/ccoaAUQ5.s:3013   .debug_str:000000000000006c .LASF5
     /tmp/ccoaAUQ5.s:3161   .debug_str:00000000000004ea .LASF6
     /tmp/ccoaAUQ5.s:3097   .debug_str:000000000000032a .LASF7
     /tmp/ccoaAUQ5.s:3065   .debug_str:0000000000000248 .LASF8
     /tmp/ccoaAUQ5.s:3071   .debug_str:0000000000000282 .LASF9
     /tmp/ccoaAUQ5.s:3035   .debug_str:0000000000000131 .LASF10
     /tmp/ccoaAUQ5.s:3061   .debug_str:0000000000000216 .LASF11
     /tmp/ccoaAUQ5.s:3039   .debug_str:000000000000014c .LASF12
     /tmp/ccoaAUQ5.s:3033   .debug_str:0000000000000121 .LASF13
     /tmp/ccoaAUQ5.s:3221   .debug_str:00000000000006dc .LASF14
     /tmp/ccoaAUQ5.s:3051   .debug_str:0000000000000198 .LASF15
     /tmp/ccoaAUQ5.s:3211   .debug_str:0000000000000668 .LASF16
     /tmp/ccoaAUQ5.s:3231   .debug_str:000000000000070b .LASF17
     /tmp/ccoaAUQ5.s:3267   .debug_str:00000000000008fe .LASF37
     /tmp/ccoaAUQ5.s:3251   .debug_str:0000000000000862 .LASF142
     /tmp/ccoaAUQ5.s:3215   .debug_str:0000000000000691 .LASF18
     /tmp/ccoaAUQ5.s:3145   .debug_str:000000000000047b .LASF19
     /tmp/ccoaAUQ5.s:3139   .debug_str:0000000000000458 .LASF20
     /tmp/ccoaAUQ5.s:3213   .debug_str:000000000000067e .LASF22
     /tmp/ccoaAUQ5.s:3059   .debug_str:00000000000001ff .LASF29
     /tmp/ccoaAUQ5.s:3197   .debug_str:0000000000000619 .LASF105
     /tmp/ccoaAUQ5.s:3191   .debug_str:00000000000005e4 .LASF107
     /tmp/ccoaAUQ5.s:3293   .debug_str:00000000000009e8 .LASF21
     /tmp/ccoaAUQ5.s:3169   .debug_str:000000000000053b .LASF23
     /tmp/ccoaAUQ5.s:3003   .debug_str:0000000000000005 .LASF53
     /tmp/ccoaAUQ5.s:3147   .debug_str:0000000000000480 .LASF54
     /tmp/ccoaAUQ5.s:3099   .debug_str:000000000000033d .LASF24
     /tmp/ccoaAUQ5.s:3029   .debug_str:00000000000000ed .LASF25
     /tmp/ccoaAUQ5.s:3121   .debug_str:00000000000003e4 .LASF26
     /tmp/ccoaAUQ5.s:3055   .debug_str:00000000000001d4 .LASF27
     /tmp/ccoaAUQ5.s:3159   .debug_str:00000000000004de .LASF28
     /tmp/ccoaAUQ5.s:3269   .debug_str:0000000000000908 .LASF30
     /tmp/ccoaAUQ5.s:3299   .debug_str:0000000000000a09 .LASF31
     /tmp/ccoaAUQ5.s:3289   .debug_str:00000000000009b7 .LASF32
     /tmp/ccoaAUQ5.s:3205   .debug_str:0000000000000640 .LASF33
     /tmp/ccoaAUQ5.s:3095   .debug_str:000000000000030d .LASF34
     /tmp/ccoaAUQ5.s:3183   .debug_str:00000000000005bd .LASF35
     /tmp/ccoaAUQ5.s:3007   .debug_str:000000000000001e .LASF36
     /tmp/ccoaAUQ5.s:3227   .debug_str:00000000000006f8 .LASF143
     /tmp/ccoaAUQ5.s:3027   .debug_str:00000000000000df .LASF73
GAS LISTING /tmp/ccoaAUQ5.s 			page 21


     /tmp/ccoaAUQ5.s:3113   .debug_str:000000000000038a .LASF75
     /tmp/ccoaAUQ5.s:3037   .debug_str:0000000000000140 .LASF66
     /tmp/ccoaAUQ5.s:3201   .debug_str:000000000000062a .LASF38
     /tmp/ccoaAUQ5.s:3011   .debug_str:0000000000000060 .LASF39
     /tmp/ccoaAUQ5.s:3229   .debug_str:0000000000000700 .LASF40
     /tmp/ccoaAUQ5.s:3143   .debug_str:0000000000000464 .LASF41
     /tmp/ccoaAUQ5.s:3025   .debug_str:00000000000000d3 .LASF42
     /tmp/ccoaAUQ5.s:3249   .debug_str:000000000000084b .LASF43
     /tmp/ccoaAUQ5.s:3111   .debug_str:000000000000037d .LASF44
     /tmp/ccoaAUQ5.s:3257   .debug_str:0000000000000899 .LASF45
     /tmp/ccoaAUQ5.s:3157   .debug_str:00000000000004d9 .LASF144
     /tmp/ccoaAUQ5.s:3175   .debug_str:0000000000000585 .LASF46
     /tmp/ccoaAUQ5.s:3127   .debug_str:0000000000000400 .LASF47
     /tmp/ccoaAUQ5.s:3141   .debug_str:000000000000045d .LASF48
     /tmp/ccoaAUQ5.s:3021   .debug_str:00000000000000bd .LASF49
     /tmp/ccoaAUQ5.s:3271   .debug_str:0000000000000926 .LASF50
     /tmp/ccoaAUQ5.s:3117   .debug_str:00000000000003bb .LASF51
     /tmp/ccoaAUQ5.s:3069   .debug_str:0000000000000276 .LASF52
     /tmp/ccoaAUQ5.s:3125   .debug_str:00000000000003f3 .LASF55
     /tmp/ccoaAUQ5.s:3219   .debug_str:00000000000006cf .LASF56
     /tmp/ccoaAUQ5.s:3259   .debug_str:00000000000008b2 .LASF57
     /tmp/ccoaAUQ5.s:3053   .debug_str:00000000000001ae .LASF58
     /tmp/ccoaAUQ5.s:3217   .debug_str:0000000000000696 .LASF59
     /tmp/ccoaAUQ5.s:3057   .debug_str:00000000000001f0 .LASF60
     /tmp/ccoaAUQ5.s:3245   .debug_str:0000000000000827 .LASF61
     /tmp/ccoaAUQ5.s:3109   .debug_str:0000000000000377 .LASF62
     /tmp/ccoaAUQ5.s:3241   .debug_str:000000000000080d .LASF64
     /tmp/ccoaAUQ5.s:3291   .debug_str:00000000000009d2 .LASF63
     /tmp/ccoaAUQ5.s:3285   .debug_str:0000000000000988 .LASF65
     /tmp/ccoaAUQ5.s:3235   .debug_str:0000000000000732 .LASF145
     /tmp/ccoaAUQ5.s:3171   .debug_str:000000000000054e .LASF67
     /tmp/ccoaAUQ5.s:3001   .debug_str:0000000000000000 .LASF68
     /tmp/ccoaAUQ5.s:3045   .debug_str:0000000000000184 .LASF69
     /tmp/ccoaAUQ5.s:3247   .debug_str:0000000000000843 .LASF70
     /tmp/ccoaAUQ5.s:3243   .debug_str:000000000000081d .LASF71
     /tmp/ccoaAUQ5.s:3209   .debug_str:000000000000065f .LASF72
     /tmp/ccoaAUQ5.s:3043   .debug_str:0000000000000176 .LASF146
     /tmp/ccoaAUQ5.s:3009   .debug_str:0000000000000038 .LASF147
     /tmp/ccoaAUQ5.s:3047   .debug_str:000000000000018a .LASF74
     /tmp/ccoaAUQ5.s:3093   .debug_str:00000000000002fa .LASF76
     /tmp/ccoaAUQ5.s:3281   .debug_str:0000000000000963 .LASF77
     /tmp/ccoaAUQ5.s:3253   .debug_str:0000000000000867 .LASF78
     /tmp/ccoaAUQ5.s:3295   .debug_str:00000000000009f5 .LASF79
     /tmp/ccoaAUQ5.s:3165   .debug_str:000000000000050a .LASF80
     /tmp/ccoaAUQ5.s:3203   .debug_str:000000000000062f .LASF81
     /tmp/ccoaAUQ5.s:3005   .debug_str:0000000000000015 .LASF82
     /tmp/ccoaAUQ5.s:3265   .debug_str:00000000000008f5 .LASF83
     /tmp/ccoaAUQ5.s:3187   .debug_str:00000000000005d6 .LASF84
     /tmp/ccoaAUQ5.s:3279   .debug_str:000000000000095d .LASF85
     /tmp/ccoaAUQ5.s:3107   .debug_str:000000000000036c .LASF86
     /tmp/ccoaAUQ5.s:3153   .debug_str:00000000000004a4 .LASF87
     /tmp/ccoaAUQ5.s:3049   .debug_str:0000000000000193 .LASF88
     /tmp/ccoaAUQ5.s:3031   .debug_str:000000000000010a .LASF89
     /tmp/ccoaAUQ5.s:3225   .debug_str:00000000000006f1 .LASF90
     /tmp/ccoaAUQ5.s:3017   .debug_str:0000000000000088 .LASF91
     /tmp/ccoaAUQ5.s:3077   .debug_str:00000000000002a9 .LASF92
     /tmp/ccoaAUQ5.s:3119   .debug_str:00000000000003cb .LASF93
GAS LISTING /tmp/ccoaAUQ5.s 			page 22


     /tmp/ccoaAUQ5.s:3193   .debug_str:00000000000005fb .LASF94
     /tmp/ccoaAUQ5.s:3063   .debug_str:0000000000000225 .LASF95
     /tmp/ccoaAUQ5.s:3239   .debug_str:00000000000007fe .LASF96
     /tmp/ccoaAUQ5.s:3173   .debug_str:0000000000000563 .LASF97
     /tmp/ccoaAUQ5.s:3083   .debug_str:00000000000002bf .LASF98
     /tmp/ccoaAUQ5.s:3115   .debug_str:00000000000003a3 .LASF99
     /tmp/ccoaAUQ5.s:3149   .debug_str:0000000000000494 .LASF100
     /tmp/ccoaAUQ5.s:3261   .debug_str:00000000000008d2 .LASF101
     /tmp/ccoaAUQ5.s:3207   .debug_str:000000000000064b .LASF102
     /tmp/ccoaAUQ5.s:3275   .debug_str:0000000000000941 .LASF103
     /tmp/ccoaAUQ5.s:3151   .debug_str:000000000000049c .LASF104
     /tmp/ccoaAUQ5.s:3283   .debug_str:000000000000097c .LASF106
     /tmp/ccoaAUQ5.s:3273   .debug_str:000000000000092c .LASF108
     /tmp/ccoaAUQ5.s:629    .text:0000000000000230 .LFB44
     /tmp/ccoaAUQ5.s:686    .text:0000000000000274 .LFE44
     /tmp/ccoaAUQ5.s:2769   .debug_loc:0000000000000000 .LLST18
     /tmp/ccoaAUQ5.s:2783   .debug_loc:0000000000000039 .LLST19
     /tmp/ccoaAUQ5.s:670    .text:000000000000025c .LVL32
     /tmp/ccoaAUQ5.s:3131   .debug_str:000000000000041e .LASF109
     /tmp/ccoaAUQ5.s:3223   .debug_str:00000000000006e8 .LASF110
     /tmp/ccoaAUQ5.s:597    .text:0000000000000208 .LFB43
     /tmp/ccoaAUQ5.s:623    .text:0000000000000230 .LFE43
     /tmp/ccoaAUQ5.s:2790   .debug_loc:000000000000005c .LLST17
     /tmp/ccoaAUQ5.s:612    .text:0000000000000220 .LVL29
     /tmp/ccoaAUQ5.s:3087   .debug_str:00000000000002d2 .LASF111
     /tmp/ccoaAUQ5.s:3263   .debug_str:00000000000008ec .LASF112
     /tmp/ccoaAUQ5.s:566    .text:00000000000001e0 .LFB42
     /tmp/ccoaAUQ5.s:591    .text:0000000000000208 .LFE42
     /tmp/ccoaAUQ5.s:580    .text:00000000000001f8 .LVL27
     /tmp/ccoaAUQ5.s:3075   .debug_str:000000000000029e .LASF113
     /tmp/ccoaAUQ5.s:3019   .debug_str:00000000000000a1 .LASF114
     /tmp/ccoaAUQ5.s:515    .text:00000000000001b4 .LFB41
     /tmp/ccoaAUQ5.s:560    .text:00000000000001e0 .LFE41
     /tmp/ccoaAUQ5.s:2804   .debug_loc:0000000000000095 .LLST15
     /tmp/ccoaAUQ5.s:2818   .debug_loc:00000000000000ce .LLST16
     /tmp/ccoaAUQ5.s:3297   .debug_str:0000000000000a00 .LASF115
     /tmp/ccoaAUQ5.s:3137   .debug_str:000000000000043f .LASF116
     /tmp/ccoaAUQ5.s:464    .text:0000000000000188 .LFB40
     /tmp/ccoaAUQ5.s:509    .text:00000000000001b4 .LFE40
     /tmp/ccoaAUQ5.s:2825   .debug_loc:00000000000000f1 .LLST13
     /tmp/ccoaAUQ5.s:2839   .debug_loc:000000000000012a .LLST14
     /tmp/ccoaAUQ5.s:3181   .debug_str:00000000000005b3 .LASF117
     /tmp/ccoaAUQ5.s:3041   .debug_str:000000000000015c .LASF118
     /tmp/ccoaAUQ5.s:413    .text:000000000000015c .LFB39
     /tmp/ccoaAUQ5.s:458    .text:0000000000000188 .LFE39
     /tmp/ccoaAUQ5.s:3277   .debug_str:0000000000000956 .LASF119
     /tmp/ccoaAUQ5.s:2846   .debug_loc:000000000000014d .LLST11
     /tmp/ccoaAUQ5.s:2860   .debug_loc:0000000000000186 .LLST12
     /tmp/ccoaAUQ5.s:3189   .debug_str:00000000000005db .LASF120
     /tmp/ccoaAUQ5.s:3167   .debug_str:0000000000000520 .LASF121
     /tmp/ccoaAUQ5.s:357    .text:000000000000012c .LFB38
     /tmp/ccoaAUQ5.s:407    .text:000000000000015c .LFE38
     /tmp/ccoaAUQ5.s:2867   .debug_loc:00000000000001a9 .LLST9
     /tmp/ccoaAUQ5.s:3023   .debug_str:00000000000000ce .LASF122
     /tmp/ccoaAUQ5.s:2881   .debug_loc:00000000000001e2 .LLST10
     /tmp/ccoaAUQ5.s:3179   .debug_str:00000000000005a4 .LASF123
     /tmp/ccoaAUQ5.s:3233   .debug_str:0000000000000710 .LASF124
GAS LISTING /tmp/ccoaAUQ5.s 			page 23


     /tmp/ccoaAUQ5.s:296    .text:00000000000000f8 .LFB37
     /tmp/ccoaAUQ5.s:351    .text:000000000000012c .LFE37
     /tmp/ccoaAUQ5.s:2888   .debug_loc:0000000000000205 .LLST7
     /tmp/ccoaAUQ5.s:3101   .debug_str:0000000000000346 .LASF125
     /tmp/ccoaAUQ5.s:2902   .debug_loc:000000000000023e .LLST8
     /tmp/ccoaAUQ5.s:3163   .debug_str:00000000000004fd .LASF126
     /tmp/ccoaAUQ5.s:3177   .debug_str:000000000000058d .LASF127
     /tmp/ccoaAUQ5.s:252    .text:00000000000000d0 .LFB36
     /tmp/ccoaAUQ5.s:290    .text:00000000000000f8 .LFE36
     /tmp/ccoaAUQ5.s:2909   .debug_loc:0000000000000261 .LLST6
     /tmp/ccoaAUQ5.s:3185   .debug_str:00000000000005c6 .LASF148
     /tmp/ccoaAUQ5.s:3015   .debug_str:0000000000000073 .LASF149
     /tmp/ccoaAUQ5.s:217    .text:00000000000000b0 .LFB35
     /tmp/ccoaAUQ5.s:246    .text:00000000000000d0 .LFE35
     /tmp/ccoaAUQ5.s:3129   .debug_str:0000000000000412 .LASF128
     /tmp/ccoaAUQ5.s:3089   .debug_str:00000000000002d7 .LASF129
     /tmp/ccoaAUQ5.s:172    .text:0000000000000088 .LFB34
     /tmp/ccoaAUQ5.s:211    .text:00000000000000b0 .LFE34
     /tmp/ccoaAUQ5.s:2923   .debug_loc:000000000000029a .LLST5
     /tmp/ccoaAUQ5.s:3255   .debug_str:000000000000088b .LASF130
     /tmp/ccoaAUQ5.s:3155   .debug_str:00000000000004b8 .LASF131
     /tmp/ccoaAUQ5.s:111    .text:0000000000000054 .LFB33
     /tmp/ccoaAUQ5.s:166    .text:0000000000000088 .LFE33
     /tmp/ccoaAUQ5.s:2930   .debug_loc:00000000000002bd .LLST3
     /tmp/ccoaAUQ5.s:2944   .debug_loc:00000000000002f6 .LLST4
     /tmp/ccoaAUQ5.s:3081   .debug_str:00000000000002b6 .LASF132
     /tmp/ccoaAUQ5.s:3287   .debug_str:00000000000009a9 .LASF133
     /tmp/ccoaAUQ5.s:60     .text:0000000000000028 .LFB32
     /tmp/ccoaAUQ5.s:105    .text:0000000000000054 .LFE32
     /tmp/ccoaAUQ5.s:2951   .debug_loc:0000000000000319 .LLST1
     /tmp/ccoaAUQ5.s:2965   .debug_loc:0000000000000352 .LLST2
     /tmp/ccoaAUQ5.s:3135   .debug_str:0000000000000435 .LASF134
     /tmp/ccoaAUQ5.s:3073   .debug_str:0000000000000290 .LASF135
     /tmp/ccoaAUQ5.s:10     .text:0000000000000000 .LFB31
     /tmp/ccoaAUQ5.s:54     .text:0000000000000028 .LFE31
     /tmp/ccoaAUQ5.s:3103   .debug_str:0000000000000354 .LASF136
     /tmp/ccoaAUQ5.s:2972   .debug_loc:0000000000000375 .LLST0
     /tmp/ccoaAUQ5.s:3123   .debug_str:00000000000003ec .LASF137
     /tmp/ccoaAUQ5.s:3079   .debug_str:00000000000002af .LASF138
     /tmp/ccoaAUQ5.s:632    .text:0000000000000230 .LVL30
     /tmp/ccoaAUQ5.s:665    .text:0000000000000254 .LVL31
     /tmp/ccoaAUQ5.s:681    .text:000000000000026c .LVL33
     /tmp/ccoaAUQ5.s:600    .text:0000000000000208 .LVL28
     /tmp/ccoaAUQ5.s:518    .text:00000000000001b4 .LVL24
     /tmp/ccoaAUQ5.s:547    .text:00000000000001d0 .LVL25
     /tmp/ccoaAUQ5.s:552    .text:00000000000001d4 .LVL26
     /tmp/ccoaAUQ5.s:467    .text:0000000000000188 .LVL21
     /tmp/ccoaAUQ5.s:496    .text:00000000000001a4 .LVL22
     /tmp/ccoaAUQ5.s:501    .text:00000000000001a8 .LVL23
     /tmp/ccoaAUQ5.s:416    .text:000000000000015c .LVL18
     /tmp/ccoaAUQ5.s:445    .text:0000000000000178 .LVL19
     /tmp/ccoaAUQ5.s:450    .text:000000000000017c .LVL20
     /tmp/ccoaAUQ5.s:360    .text:000000000000012c .LVL15
     /tmp/ccoaAUQ5.s:394    .text:000000000000014c .LVL16
     /tmp/ccoaAUQ5.s:399    .text:0000000000000150 .LVL17
     /tmp/ccoaAUQ5.s:299    .text:00000000000000f8 .LVL12
     /tmp/ccoaAUQ5.s:338    .text:000000000000011c .LVL13
GAS LISTING /tmp/ccoaAUQ5.s 			page 24


     /tmp/ccoaAUQ5.s:343    .text:0000000000000120 .LVL14
     /tmp/ccoaAUQ5.s:255    .text:00000000000000d0 .LVL10
     /tmp/ccoaAUQ5.s:282    .text:00000000000000ec .LVL11
     /tmp/ccoaAUQ5.s:198    .text:00000000000000a0 .LVL8
     /tmp/ccoaAUQ5.s:203    .text:00000000000000a4 .LVL9
     /tmp/ccoaAUQ5.s:114    .text:0000000000000054 .LVL5
     /tmp/ccoaAUQ5.s:153    .text:0000000000000078 .LVL6
     /tmp/ccoaAUQ5.s:158    .text:000000000000007c .LVL7
     /tmp/ccoaAUQ5.s:63     .text:0000000000000028 .LVL2
     /tmp/ccoaAUQ5.s:92     .text:0000000000000044 .LVL3
     /tmp/ccoaAUQ5.s:97     .text:0000000000000048 .LVL4
     /tmp/ccoaAUQ5.s:14     .text:0000000000000000 .LVL0
     /tmp/ccoaAUQ5.s:43     .text:000000000000001c .LVL1
     /tmp/ccoaAUQ5.s:695    .debug_info:0000000000000000 .Ldebug_info0

UNDEFINED SYMBOLS
__getc
__putc
