GAS LISTING /tmp/ccrN5AO7.s 			page 1


   1              		.file	"syscall_cpp.cpp"
   2              		.option pic
   3              		.option norelax
   4              		.text
   5              	.Ltext0:
   6              		.section	.text._ZN14PeriodicThread18periodicActivationEv,"axG",@progbits,_ZN14PeriodicThread18peri
   7              		.align	2
   8              		.weak	_ZN14PeriodicThread18periodicActivationEv
  10              	_ZN14PeriodicThread18periodicActivationEv:
  11              	.LFB32:
  12              		.file 1 "src/../h/syscall_cpp.hpp"
   1:src/../h/syscall_cpp.hpp **** #ifndef _syscall_cpp
   2:src/../h/syscall_cpp.hpp **** #define _syscall_cpp
   3:src/../h/syscall_cpp.hpp **** #include "../lib/console.h"
   4:src/../h/syscall_cpp.hpp **** //#include "riscv.hpp"
   5:src/../h/syscall_cpp.hpp **** //#include "TCB.hpp"
   6:src/../h/syscall_cpp.hpp **** #include "syscall_c.h"
   7:src/../h/syscall_cpp.hpp **** 
   8:src/../h/syscall_cpp.hpp **** 
   9:src/../h/syscall_cpp.hpp **** void* operator new (size_t n);
  10:src/../h/syscall_cpp.hpp **** void operator delete (void* p);
  11:src/../h/syscall_cpp.hpp **** 
  12:src/../h/syscall_cpp.hpp **** class Thread {
  13:src/../h/syscall_cpp.hpp **** 
  14:src/../h/syscall_cpp.hpp **** public:
  15:src/../h/syscall_cpp.hpp ****     Thread(void (*body)(void*), void* arg) {
  16:src/../h/syscall_cpp.hpp ****         myHandle = new TCB(body, arg, DEFAULT_TIME_SLICE);
  17:src/../h/syscall_cpp.hpp **** //        int a =thread_create(&myHandle, body, arg);
  18:src/../h/syscall_cpp.hpp **** //        a++;
  19:src/../h/syscall_cpp.hpp ****     }
  20:src/../h/syscall_cpp.hpp **** 
  21:src/../h/syscall_cpp.hpp ****     virtual ~Thread ();
  22:src/../h/syscall_cpp.hpp ****     int start ();
  23:src/../h/syscall_cpp.hpp ****     static void dispatch ();
  24:src/../h/syscall_cpp.hpp ****     static int sleep (time_t);
  25:src/../h/syscall_cpp.hpp **** protected:
  26:src/../h/syscall_cpp.hpp ****     Thread ();
  27:src/../h/syscall_cpp.hpp ****     virtual void run ();
  28:src/../h/syscall_cpp.hpp **** private:
  29:src/../h/syscall_cpp.hpp ****     thread_t myHandle;
  30:src/../h/syscall_cpp.hpp **** 
  31:src/../h/syscall_cpp.hpp **** };
  32:src/../h/syscall_cpp.hpp **** 
  33:src/../h/syscall_cpp.hpp **** 
  34:src/../h/syscall_cpp.hpp **** class Semaphore {
  35:src/../h/syscall_cpp.hpp **** public:
  36:src/../h/syscall_cpp.hpp ****     Semaphore (unsigned init = 1){
  37:src/../h/syscall_cpp.hpp **** 
  38:src/../h/syscall_cpp.hpp ****     }
  39:src/../h/syscall_cpp.hpp ****     virtual ~Semaphore();
  40:src/../h/syscall_cpp.hpp ****     int wait ();
  41:src/../h/syscall_cpp.hpp ****     int signal ();
  42:src/../h/syscall_cpp.hpp **** private:
  43:src/../h/syscall_cpp.hpp ****     sem_t myHandle;
  44:src/../h/syscall_cpp.hpp **** };
  45:src/../h/syscall_cpp.hpp **** 
  46:src/../h/syscall_cpp.hpp **** 
GAS LISTING /tmp/ccrN5AO7.s 			page 2


  47:src/../h/syscall_cpp.hpp **** class PeriodicThread : public Thread {
  48:src/../h/syscall_cpp.hpp **** protected:
  49:src/../h/syscall_cpp.hpp ****     PeriodicThread (time_t period);
  50:src/../h/syscall_cpp.hpp ****     virtual void periodicActivation () {}
  13              		.loc 1 50 18
  14              		.cfi_startproc
  15              	.LVL0:
  16 0000 130101FF 		addi	sp,sp,-16
  17              		.cfi_def_cfa_offset 16
  18 0004 23348100 		sd	s0,8(sp)
  19              		.cfi_offset 8, -8
  20 0008 13040101 		addi	s0,sp,16
  21              		.cfi_def_cfa 8, 0
  22              		.loc 1 50 41 is_stmt 0
  23 000c 03348100 		ld	s0,8(sp)
  24              		.cfi_restore 8
  25              		.cfi_def_cfa 2, 16
  26 0010 13010101 		addi	sp,sp,16
  27              		.cfi_def_cfa_offset 0
  28 0014 67800000 		jr	ra
  29              		.cfi_endproc
  30              	.LFE32:
  32              		.text
  33              		.align	2
  34              		.globl	_ZN6ThreadD2Ev
  36              	_ZN6ThreadD2Ev:
  37              	.LFB43:
  38              		.file 2 "src/syscall_cpp.cpp"
   1:src/syscall_cpp.cpp **** #include "../h/syscall_cpp.hpp"
   2:src/syscall_cpp.cpp **** 
   3:src/syscall_cpp.cpp **** 
   4:src/syscall_cpp.cpp **** void *operator new(size_t n)
   5:src/syscall_cpp.cpp **** {
   6:src/syscall_cpp.cpp ****     return __mem_alloc(n);
   7:src/syscall_cpp.cpp **** }
   8:src/syscall_cpp.cpp **** 
   9:src/syscall_cpp.cpp **** void *operator new[](size_t n)
  10:src/syscall_cpp.cpp **** {
  11:src/syscall_cpp.cpp ****     return __mem_alloc(n);
  12:src/syscall_cpp.cpp **** }
  13:src/syscall_cpp.cpp **** 
  14:src/syscall_cpp.cpp **** void operator delete(void *p)
  15:src/syscall_cpp.cpp **** {
  16:src/syscall_cpp.cpp ****     __mem_free(p);
  17:src/syscall_cpp.cpp **** }
  18:src/syscall_cpp.cpp **** 
  19:src/syscall_cpp.cpp **** void operator delete[](void *p)
  20:src/syscall_cpp.cpp **** {
  21:src/syscall_cpp.cpp ****     __mem_free(p);
  22:src/syscall_cpp.cpp **** }
  23:src/syscall_cpp.cpp **** 
  24:src/syscall_cpp.cpp **** 
  25:src/syscall_cpp.cpp **** //Thread::Thread (void (*body)(void*), void* arg) {
  26:src/syscall_cpp.cpp **** //    int a =thread_create(&myHandle, body, arg);
  27:src/syscall_cpp.cpp **** //    a++;
  28:src/syscall_cpp.cpp **** //}
  29:src/syscall_cpp.cpp **** 
GAS LISTING /tmp/ccrN5AO7.s 			page 3


  30:src/syscall_cpp.cpp **** int Thread::start (){
  31:src/syscall_cpp.cpp ****     int a = thread_create(&myHandle, myHandle->getBody(), myHandle->getArg());
  32:src/syscall_cpp.cpp ****     return a;
  33:src/syscall_cpp.cpp **** }
  34:src/syscall_cpp.cpp **** void Thread::dispatch (){
  35:src/syscall_cpp.cpp ****     thread_dispatch();
  36:src/syscall_cpp.cpp **** }
  37:src/syscall_cpp.cpp **** 
  38:src/syscall_cpp.cpp **** Thread::Thread() {
  39:src/syscall_cpp.cpp **** 
  40:src/syscall_cpp.cpp **** }
  41:src/syscall_cpp.cpp **** 
  42:src/syscall_cpp.cpp **** Thread::~Thread() {
  39              		.loc 2 42 1 is_stmt 1
  40              		.cfi_startproc
  41              	.LVL1:
  42 0000 130101FF 		addi	sp,sp,-16
  43              		.cfi_def_cfa_offset 16
  44 0004 23348100 		sd	s0,8(sp)
  45              		.cfi_offset 8, -8
  46 0008 13040101 		addi	s0,sp,16
  47              		.cfi_def_cfa 8, 0
  43:src/syscall_cpp.cpp **** 
  44:src/syscall_cpp.cpp **** }
  48              		.loc 2 44 1 is_stmt 0
  49 000c 03348100 		ld	s0,8(sp)
  50              		.cfi_restore 8
  51              		.cfi_def_cfa 2, 16
  52 0010 13010101 		addi	sp,sp,16
  53              		.cfi_def_cfa_offset 0
  54 0014 67800000 		jr	ra
  55              		.cfi_endproc
  56              	.LFE43:
  58              		.globl	_ZN6ThreadD1Ev
  59              		.set	_ZN6ThreadD1Ev,_ZN6ThreadD2Ev
  60              		.align	2
  61              		.globl	_ZN6Thread3runEv
  63              	_ZN6Thread3runEv:
  64              	.LFB46:
  45:src/syscall_cpp.cpp **** 
  46:src/syscall_cpp.cpp **** void Thread::run() {
  65              		.loc 2 46 20 is_stmt 1
  66              		.cfi_startproc
  67              	.LVL2:
  68 0018 130101FF 		addi	sp,sp,-16
  69              		.cfi_def_cfa_offset 16
  70 001c 23348100 		sd	s0,8(sp)
  71              		.cfi_offset 8, -8
  72 0020 13040101 		addi	s0,sp,16
  73              		.cfi_def_cfa 8, 0
  47:src/syscall_cpp.cpp **** 
  48:src/syscall_cpp.cpp **** }
  74              		.loc 2 48 1 is_stmt 0
  75 0024 03348100 		ld	s0,8(sp)
  76              		.cfi_restore 8
  77              		.cfi_def_cfa 2, 16
  78 0028 13010101 		addi	sp,sp,16
GAS LISTING /tmp/ccrN5AO7.s 			page 4


  79              		.cfi_def_cfa_offset 0
  80 002c 67800000 		jr	ra
  81              		.cfi_endproc
  82              	.LFE46:
  84              		.align	2
  85              		.globl	_ZN9SemaphoreD2Ev
  87              	_ZN9SemaphoreD2Ev:
  88              	.LFB49:
  49:src/syscall_cpp.cpp **** 
  50:src/syscall_cpp.cpp **** int Thread::sleep(time_t) {
  51:src/syscall_cpp.cpp ****     return 0;
  52:src/syscall_cpp.cpp **** }
  53:src/syscall_cpp.cpp **** 
  54:src/syscall_cpp.cpp **** Semaphore::~Semaphore() {
  89              		.loc 2 54 1 is_stmt 1
  90              		.cfi_startproc
  91              	.LVL3:
  92 0030 130101FF 		addi	sp,sp,-16
  93              		.cfi_def_cfa_offset 16
  94 0034 23348100 		sd	s0,8(sp)
  95              		.cfi_offset 8, -8
  96 0038 13040101 		addi	s0,sp,16
  97              		.cfi_def_cfa 8, 0
  55:src/syscall_cpp.cpp **** //    sem_close(myHandle);
  56:src/syscall_cpp.cpp **** }
  98              		.loc 2 56 1 is_stmt 0
  99 003c 03348100 		ld	s0,8(sp)
 100              		.cfi_restore 8
 101              		.cfi_def_cfa 2, 16
 102 0040 13010101 		addi	sp,sp,16
 103              		.cfi_def_cfa_offset 0
 104 0044 67800000 		jr	ra
 105              		.cfi_endproc
 106              	.LFE49:
 108              		.globl	_ZN9SemaphoreD1Ev
 109              		.set	_ZN9SemaphoreD1Ev,_ZN9SemaphoreD2Ev
 110              		.section	.text._ZN14PeriodicThreadD2Ev,"axG",@progbits,_ZN14PeriodicThreadD5Ev,comdat
 111              		.align	2
 112              		.weak	_ZN14PeriodicThreadD2Ev
 114              	_ZN14PeriodicThreadD2Ev:
 115              	.LFB63:
  47:src/../h/syscall_cpp.hpp **** protected:
 116              		.loc 1 47 7 is_stmt 1
 117              		.cfi_startproc
 118              	.LVL4:
 119 0000 130101FF 		addi	sp,sp,-16
 120              		.cfi_def_cfa_offset 16
 121 0004 23348100 		sd	s0,8(sp)
 122              		.cfi_offset 8, -8
 123 0008 13040101 		addi	s0,sp,16
 124              		.cfi_def_cfa 8, 0
 125              	.LBB9:
  47:src/../h/syscall_cpp.hpp **** protected:
 126              		.loc 1 47 7 is_stmt 0
 127 000c 97070000 		lla	a5,_ZTV14PeriodicThread+16
 127      93870700 
 128 0014 2330F500 		sd	a5,0(a0)
GAS LISTING /tmp/ccrN5AO7.s 			page 5


 129              	.LBE9:
 130 0018 03348100 		ld	s0,8(sp)
 131              		.cfi_restore 8
 132              		.cfi_def_cfa 2, 16
 133 001c 13010101 		addi	sp,sp,16
 134              		.cfi_def_cfa_offset 0
 135 0020 67800000 		jr	ra
 136              		.cfi_endproc
 137              	.LFE63:
 139              		.weak	_ZN14PeriodicThreadD1Ev
 140              		.set	_ZN14PeriodicThreadD1Ev,_ZN14PeriodicThreadD2Ev
 141              		.text
 142              		.align	2
 143              		.globl	_Znwm
 145              	_Znwm:
 146              	.LFB33:
   5:src/syscall_cpp.cpp ****     return __mem_alloc(n);
 147              		.loc 2 5 1 is_stmt 1
 148              		.cfi_startproc
 149              	.LVL5:
 150 0048 130101FF 		addi	sp,sp,-16
 151              		.cfi_def_cfa_offset 16
 152 004c 23341100 		sd	ra,8(sp)
 153 0050 23308100 		sd	s0,0(sp)
 154              		.cfi_offset 1, -8
 155              		.cfi_offset 8, -16
 156 0054 13040101 		addi	s0,sp,16
 157              		.cfi_def_cfa 8, 0
   6:src/syscall_cpp.cpp **** }
 158              		.loc 2 6 5
   6:src/syscall_cpp.cpp **** }
 159              		.loc 2 6 23 is_stmt 0
 160 0058 97000000 		call	__mem_alloc@plt
 160      E7800000 
 161              	.LVL6:
   7:src/syscall_cpp.cpp **** 
 162              		.loc 2 7 1
 163 0060 83308100 		ld	ra,8(sp)
 164              		.cfi_restore 1
 165 0064 03340100 		ld	s0,0(sp)
 166              		.cfi_restore 8
 167              		.cfi_def_cfa 2, 16
 168 0068 13010101 		addi	sp,sp,16
 169              		.cfi_def_cfa_offset 0
 170 006c 67800000 		jr	ra
 171              		.cfi_endproc
 172              	.LFE33:
 174              		.align	2
 175              		.globl	_Znam
 177              	_Znam:
 178              	.LFB34:
  10:src/syscall_cpp.cpp ****     return __mem_alloc(n);
 179              		.loc 2 10 1 is_stmt 1
 180              		.cfi_startproc
 181              	.LVL7:
 182 0070 130101FF 		addi	sp,sp,-16
 183              		.cfi_def_cfa_offset 16
GAS LISTING /tmp/ccrN5AO7.s 			page 6


 184 0074 23341100 		sd	ra,8(sp)
 185 0078 23308100 		sd	s0,0(sp)
 186              		.cfi_offset 1, -8
 187              		.cfi_offset 8, -16
 188 007c 13040101 		addi	s0,sp,16
 189              		.cfi_def_cfa 8, 0
  11:src/syscall_cpp.cpp **** }
 190              		.loc 2 11 5
  11:src/syscall_cpp.cpp **** }
 191              		.loc 2 11 23 is_stmt 0
 192 0080 97000000 		call	__mem_alloc@plt
 192      E7800000 
 193              	.LVL8:
  12:src/syscall_cpp.cpp **** 
 194              		.loc 2 12 1
 195 0088 83308100 		ld	ra,8(sp)
 196              		.cfi_restore 1
 197 008c 03340100 		ld	s0,0(sp)
 198              		.cfi_restore 8
 199              		.cfi_def_cfa 2, 16
 200 0090 13010101 		addi	sp,sp,16
 201              		.cfi_def_cfa_offset 0
 202 0094 67800000 		jr	ra
 203              		.cfi_endproc
 204              	.LFE34:
 206              		.align	2
 207              		.globl	_ZdlPv
 209              	_ZdlPv:
 210              	.LFB35:
  15:src/syscall_cpp.cpp ****     __mem_free(p);
 211              		.loc 2 15 1 is_stmt 1
 212              		.cfi_startproc
 213              	.LVL9:
 214 0098 130101FF 		addi	sp,sp,-16
 215              		.cfi_def_cfa_offset 16
 216 009c 23341100 		sd	ra,8(sp)
 217 00a0 23308100 		sd	s0,0(sp)
 218              		.cfi_offset 1, -8
 219              		.cfi_offset 8, -16
 220 00a4 13040101 		addi	s0,sp,16
 221              		.cfi_def_cfa 8, 0
  16:src/syscall_cpp.cpp **** }
 222              		.loc 2 16 5
  16:src/syscall_cpp.cpp **** }
 223              		.loc 2 16 15 is_stmt 0
 224 00a8 97000000 		call	__mem_free@plt
 224      E7800000 
 225              	.LVL10:
  17:src/syscall_cpp.cpp **** 
 226              		.loc 2 17 1
 227 00b0 83308100 		ld	ra,8(sp)
 228              		.cfi_restore 1
 229 00b4 03340100 		ld	s0,0(sp)
 230              		.cfi_restore 8
 231              		.cfi_def_cfa 2, 16
 232 00b8 13010101 		addi	sp,sp,16
 233              		.cfi_def_cfa_offset 0
GAS LISTING /tmp/ccrN5AO7.s 			page 7


 234 00bc 67800000 		jr	ra
 235              		.cfi_endproc
 236              	.LFE35:
 238              		.align	2
 239              		.globl	_ZN6ThreadD0Ev
 241              	_ZN6ThreadD0Ev:
 242              	.LFB45:
  42:src/syscall_cpp.cpp **** 
 243              		.loc 2 42 1 is_stmt 1
 244              		.cfi_startproc
 245              	.LVL11:
 246 00c0 130101FF 		addi	sp,sp,-16
 247              		.cfi_def_cfa_offset 16
 248 00c4 23341100 		sd	ra,8(sp)
 249 00c8 23308100 		sd	s0,0(sp)
 250              		.cfi_offset 1, -8
 251              		.cfi_offset 8, -16
 252 00cc 13040101 		addi	s0,sp,16
 253              		.cfi_def_cfa 8, 0
  44:src/syscall_cpp.cpp **** 
 254              		.loc 2 44 1 is_stmt 0
 255 00d0 97000000 		call	_ZdlPv
 255      E7800000 
 256              	.LVL12:
 257 00d8 83308100 		ld	ra,8(sp)
 258              		.cfi_restore 1
 259 00dc 03340100 		ld	s0,0(sp)
 260              		.cfi_restore 8
 261              		.cfi_def_cfa 2, 16
 262 00e0 13010101 		addi	sp,sp,16
 263              		.cfi_def_cfa_offset 0
 264 00e4 67800000 		jr	ra
 265              		.cfi_endproc
 266              	.LFE45:
 268              		.align	2
 269              		.globl	_ZN9SemaphoreD0Ev
 271              	_ZN9SemaphoreD0Ev:
 272              	.LFB51:
  54:src/syscall_cpp.cpp **** //    sem_close(myHandle);
 273              		.loc 2 54 1 is_stmt 1
 274              		.cfi_startproc
 275              	.LVL13:
 276 00e8 130101FF 		addi	sp,sp,-16
 277              		.cfi_def_cfa_offset 16
 278 00ec 23341100 		sd	ra,8(sp)
 279 00f0 23308100 		sd	s0,0(sp)
 280              		.cfi_offset 1, -8
 281              		.cfi_offset 8, -16
 282 00f4 13040101 		addi	s0,sp,16
 283              		.cfi_def_cfa 8, 0
 284              		.loc 2 56 1 is_stmt 0
 285 00f8 97000000 		call	_ZdlPv
 285      E7800000 
 286              	.LVL14:
 287 0100 83308100 		ld	ra,8(sp)
 288              		.cfi_restore 1
 289 0104 03340100 		ld	s0,0(sp)
GAS LISTING /tmp/ccrN5AO7.s 			page 8


 290              		.cfi_restore 8
 291              		.cfi_def_cfa 2, 16
 292 0108 13010101 		addi	sp,sp,16
 293              		.cfi_def_cfa_offset 0
 294 010c 67800000 		jr	ra
 295              		.cfi_endproc
 296              	.LFE51:
 298              		.section	.text._ZN14PeriodicThreadD0Ev,"axG",@progbits,_ZN14PeriodicThreadD5Ev,comdat
 299              		.align	2
 300              		.weak	_ZN14PeriodicThreadD0Ev
 302              	_ZN14PeriodicThreadD0Ev:
 303              	.LFB65:
  47:src/../h/syscall_cpp.hpp **** protected:
 304              		.loc 1 47 7 is_stmt 1
 305              		.cfi_startproc
 306              	.LVL15:
 307 0000 130101FF 		addi	sp,sp,-16
 308              		.cfi_def_cfa_offset 16
 309 0004 23341100 		sd	ra,8(sp)
 310 0008 23308100 		sd	s0,0(sp)
 311              		.cfi_offset 1, -8
 312              		.cfi_offset 8, -16
 313 000c 13040101 		addi	s0,sp,16
 314              		.cfi_def_cfa 8, 0
 315              	.LVL16:
 316              	.LBB10:
 317              	.LBB11:
  47:src/../h/syscall_cpp.hpp **** protected:
 318              		.loc 1 47 7 is_stmt 0
 319 0010 97070000 		lla	a5,_ZTV14PeriodicThread+16
 319      93870700 
 320 0018 2330F500 		sd	a5,0(a0)
 321              	.LVL17:
 322              	.LBE11:
 323              	.LBE10:
 324 001c 97000000 		call	_ZdlPv
 324      E7800000 
 325              	.LVL18:
 326 0024 83308100 		ld	ra,8(sp)
 327              		.cfi_restore 1
 328 0028 03340100 		ld	s0,0(sp)
 329              		.cfi_restore 8
 330              		.cfi_def_cfa 2, 16
 331 002c 13010101 		addi	sp,sp,16
 332              		.cfi_def_cfa_offset 0
 333 0030 67800000 		jr	ra
 334              		.cfi_endproc
 335              	.LFE65:
 337              		.text
 338              		.align	2
 339              		.globl	_ZdaPv
 341              	_ZdaPv:
 342              	.LFB36:
  20:src/syscall_cpp.cpp ****     __mem_free(p);
 343              		.loc 2 20 1 is_stmt 1
 344              		.cfi_startproc
 345              	.LVL19:
GAS LISTING /tmp/ccrN5AO7.s 			page 9


 346 0110 130101FF 		addi	sp,sp,-16
 347              		.cfi_def_cfa_offset 16
 348 0114 23341100 		sd	ra,8(sp)
 349 0118 23308100 		sd	s0,0(sp)
 350              		.cfi_offset 1, -8
 351              		.cfi_offset 8, -16
 352 011c 13040101 		addi	s0,sp,16
 353              		.cfi_def_cfa 8, 0
  21:src/syscall_cpp.cpp **** }
 354              		.loc 2 21 5
  21:src/syscall_cpp.cpp **** }
 355              		.loc 2 21 15 is_stmt 0
 356 0120 97000000 		call	__mem_free@plt
 356      E7800000 
 357              	.LVL20:
  22:src/syscall_cpp.cpp **** 
 358              		.loc 2 22 1
 359 0128 83308100 		ld	ra,8(sp)
 360              		.cfi_restore 1
 361 012c 03340100 		ld	s0,0(sp)
 362              		.cfi_restore 8
 363              		.cfi_def_cfa 2, 16
 364 0130 13010101 		addi	sp,sp,16
 365              		.cfi_def_cfa_offset 0
 366 0134 67800000 		jr	ra
 367              		.cfi_endproc
 368              	.LFE36:
 370              		.align	2
 371              		.globl	_ZN6Thread5startEv
 373              	_ZN6Thread5startEv:
 374              	.LFB37:
  30:src/syscall_cpp.cpp ****     int a = thread_create(&myHandle, myHandle->getBody(), myHandle->getArg());
 375              		.loc 2 30 21 is_stmt 1
 376              		.cfi_startproc
 377              	.LVL21:
 378 0138 130101FF 		addi	sp,sp,-16
 379              		.cfi_def_cfa_offset 16
 380 013c 23341100 		sd	ra,8(sp)
 381 0140 23308100 		sd	s0,0(sp)
 382              		.cfi_offset 1, -8
 383              		.cfi_offset 8, -16
 384 0144 13040101 		addi	s0,sp,16
 385              		.cfi_def_cfa 8, 0
  31:src/syscall_cpp.cpp ****     return a;
 386              		.loc 2 31 5
  31:src/syscall_cpp.cpp ****     return a;
 387              		.loc 2 31 38 is_stmt 0
 388 0148 83378500 		ld	a5,8(a0)
 389              	.LVL22:
 390              	.LBB12:
 391              	.LBB13:
 392              		.file 3 "src/../h/TCB.hpp"
   1:src/../h/TCB.hpp **** #ifndef PROJECT_BASE_TCB_HPP
   2:src/../h/TCB.hpp **** #define PROJECT_BASE_TCB_HPP
   3:src/../h/TCB.hpp **** 
   4:src/../h/TCB.hpp **** #include "../lib/hw.h"
   5:src/../h/TCB.hpp **** #include "scheduler.hpp"
GAS LISTING /tmp/ccrN5AO7.s 			page 10


   6:src/../h/TCB.hpp **** 
   7:src/../h/TCB.hpp **** typedef TCB* thread_t;
   8:src/../h/TCB.hpp **** 
   9:src/../h/TCB.hpp **** 
  10:src/../h/TCB.hpp **** class TCB
  11:src/../h/TCB.hpp **** {
  12:src/../h/TCB.hpp **** 
  13:src/../h/TCB.hpp **** public:
  14:src/../h/TCB.hpp ****     using Body = void (*)(void*);
  15:src/../h/TCB.hpp ****      TCB();
  16:src/../h/TCB.hpp **** 
  17:src/../h/TCB.hpp ****     ~TCB() { delete[] stack; }
  18:src/../h/TCB.hpp **** 
  19:src/../h/TCB.hpp ****     bool isFinished() const { return finished; }
  20:src/../h/TCB.hpp **** 
  21:src/../h/TCB.hpp **** 
  22:src/../h/TCB.hpp ****     void setFinished(bool value) { finished = value; }
  23:src/../h/TCB.hpp **** 
  24:src/../h/TCB.hpp ****     uint64 getTimeSlice() const { return timeSlice; }
  25:src/../h/TCB.hpp **** 
  26:src/../h/TCB.hpp ****     Body getBody() { return this->body;}
 393              		.loc 3 26 22 is_stmt 1
 394              	.LBE13:
 395              	.LBE12:
 396              	.LBB14:
 397              	.LBB15:
  27:src/../h/TCB.hpp ****     void* getArg() {return this->arg;}
 398              		.loc 3 27 21
 399              	.LBE15:
 400              	.LBE14:
  31:src/syscall_cpp.cpp ****     return a;
 401              		.loc 2 31 26 is_stmt 0
 402 014c 03B68700 		ld	a2,8(a5)
 403 0150 83B50700 		ld	a1,0(a5)
 404 0154 13058500 		addi	a0,a0,8
 405              	.LVL23:
 406 0158 97000000 		call	_Z13thread_createPP3TCBPFvPvES2_@plt
 406      E7800000 
 407              	.LVL24:
  32:src/syscall_cpp.cpp **** }
 408              		.loc 2 32 5 is_stmt 1
  33:src/syscall_cpp.cpp **** void Thread::dispatch (){
 409              		.loc 2 33 1 is_stmt 0
 410 0160 83308100 		ld	ra,8(sp)
 411              		.cfi_restore 1
 412 0164 03340100 		ld	s0,0(sp)
 413              		.cfi_restore 8
 414              		.cfi_def_cfa 2, 16
 415 0168 13010101 		addi	sp,sp,16
 416              		.cfi_def_cfa_offset 0
 417 016c 67800000 		jr	ra
 418              		.cfi_endproc
 419              	.LFE37:
 421              		.align	2
 422              		.globl	_ZN6Thread8dispatchEv
 424              	_ZN6Thread8dispatchEv:
 425              	.LFB38:
GAS LISTING /tmp/ccrN5AO7.s 			page 11


  34:src/syscall_cpp.cpp ****     thread_dispatch();
 426              		.loc 2 34 25 is_stmt 1
 427              		.cfi_startproc
 428 0170 130101FF 		addi	sp,sp,-16
 429              		.cfi_def_cfa_offset 16
 430 0174 23341100 		sd	ra,8(sp)
 431 0178 23308100 		sd	s0,0(sp)
 432              		.cfi_offset 1, -8
 433              		.cfi_offset 8, -16
 434 017c 13040101 		addi	s0,sp,16
 435              		.cfi_def_cfa 8, 0
  35:src/syscall_cpp.cpp **** }
 436              		.loc 2 35 5
  35:src/syscall_cpp.cpp **** }
 437              		.loc 2 35 20 is_stmt 0
 438 0180 97000000 		call	_Z15thread_dispatchv@plt
 438      E7800000 
 439              	.LVL25:
  36:src/syscall_cpp.cpp **** 
 440              		.loc 2 36 1
 441 0188 83308100 		ld	ra,8(sp)
 442              		.cfi_restore 1
 443 018c 03340100 		ld	s0,0(sp)
 444              		.cfi_restore 8
 445              		.cfi_def_cfa 2, 16
 446 0190 13010101 		addi	sp,sp,16
 447              		.cfi_def_cfa_offset 0
 448 0194 67800000 		jr	ra
 449              		.cfi_endproc
 450              	.LFE38:
 452              		.align	2
 453              		.globl	_ZN6ThreadC2Ev
 455              	_ZN6ThreadC2Ev:
 456              	.LFB40:
  38:src/syscall_cpp.cpp **** 
 457              		.loc 2 38 1 is_stmt 1
 458              		.cfi_startproc
 459              	.LVL26:
 460 0198 130101FF 		addi	sp,sp,-16
 461              		.cfi_def_cfa_offset 16
 462 019c 23348100 		sd	s0,8(sp)
 463              		.cfi_offset 8, -8
 464 01a0 13040101 		addi	s0,sp,16
 465              		.cfi_def_cfa 8, 0
 466              	.LBB16:
  38:src/syscall_cpp.cpp **** 
 467              		.loc 2 38 16 is_stmt 0
 468 01a4 97070000 		lla	a5,_ZTV6Thread+16
 468      93870700 
 469 01ac 2330F500 		sd	a5,0(a0)
 470              	.LBE16:
  40:src/syscall_cpp.cpp **** 
 471              		.loc 2 40 1
 472 01b0 03348100 		ld	s0,8(sp)
 473              		.cfi_restore 8
 474              		.cfi_def_cfa 2, 16
 475 01b4 13010101 		addi	sp,sp,16
GAS LISTING /tmp/ccrN5AO7.s 			page 12


 476              		.cfi_def_cfa_offset 0
 477 01b8 67800000 		jr	ra
 478              		.cfi_endproc
 479              	.LFE40:
 481              		.globl	_ZN6ThreadC1Ev
 482              		.set	_ZN6ThreadC1Ev,_ZN6ThreadC2Ev
 483              		.align	2
 484              		.globl	_ZN6Thread5sleepEm
 486              	_ZN6Thread5sleepEm:
 487              	.LFB47:
  50:src/syscall_cpp.cpp ****     return 0;
 488              		.loc 2 50 27 is_stmt 1
 489              		.cfi_startproc
 490 01bc 130101FF 		addi	sp,sp,-16
 491              		.cfi_def_cfa_offset 16
 492 01c0 23348100 		sd	s0,8(sp)
 493              		.cfi_offset 8, -8
 494 01c4 13040101 		addi	s0,sp,16
 495              		.cfi_def_cfa 8, 0
  51:src/syscall_cpp.cpp **** }
 496              		.loc 2 51 5
  52:src/syscall_cpp.cpp **** 
 497              		.loc 2 52 1 is_stmt 0
 498 01c8 13050000 		li	a0,0
 499 01cc 03348100 		ld	s0,8(sp)
 500              		.cfi_restore 8
 501              		.cfi_def_cfa 2, 16
 502 01d0 13010101 		addi	sp,sp,16
 503              		.cfi_def_cfa_offset 0
 504 01d4 67800000 		jr	ra
 505              		.cfi_endproc
 506              	.LFE47:
 508              		.align	2
 509              		.globl	_ZN9Semaphore4waitEv
 511              	_ZN9Semaphore4waitEv:
 512              	.LFB52:
  57:src/syscall_cpp.cpp **** 
  58:src/syscall_cpp.cpp **** int Semaphore::wait() {
 513              		.loc 2 58 23 is_stmt 1
 514              		.cfi_startproc
 515              	.LVL27:
 516 01d8 130101FF 		addi	sp,sp,-16
 517              		.cfi_def_cfa_offset 16
 518 01dc 23341100 		sd	ra,8(sp)
 519 01e0 23308100 		sd	s0,0(sp)
 520              		.cfi_offset 1, -8
 521              		.cfi_offset 8, -16
 522 01e4 13040101 		addi	s0,sp,16
 523              		.cfi_def_cfa 8, 0
  59:src/syscall_cpp.cpp ****     return sem_wait(myHandle);
 524              		.loc 2 59 5
 525              		.loc 2 59 20 is_stmt 0
 526 01e8 03358500 		ld	a0,8(a0)
 527              	.LVL28:
 528 01ec 97000000 		call	_Z8sem_waitP10Ksemaphore@plt
 528      E7800000 
 529              	.LVL29:
GAS LISTING /tmp/ccrN5AO7.s 			page 13


  60:src/syscall_cpp.cpp **** }
 530              		.loc 2 60 1
 531 01f4 83308100 		ld	ra,8(sp)
 532              		.cfi_restore 1
 533 01f8 03340100 		ld	s0,0(sp)
 534              		.cfi_restore 8
 535              		.cfi_def_cfa 2, 16
 536 01fc 13010101 		addi	sp,sp,16
 537              		.cfi_def_cfa_offset 0
 538 0200 67800000 		jr	ra
 539              		.cfi_endproc
 540              	.LFE52:
 542              		.align	2
 543              		.globl	_ZN9Semaphore6signalEv
 545              	_ZN9Semaphore6signalEv:
 546              	.LFB53:
  61:src/syscall_cpp.cpp **** 
  62:src/syscall_cpp.cpp **** int Semaphore::signal() {
 547              		.loc 2 62 25 is_stmt 1
 548              		.cfi_startproc
 549              	.LVL30:
 550 0204 130101FF 		addi	sp,sp,-16
 551              		.cfi_def_cfa_offset 16
 552 0208 23341100 		sd	ra,8(sp)
 553 020c 23308100 		sd	s0,0(sp)
 554              		.cfi_offset 1, -8
 555              		.cfi_offset 8, -16
 556 0210 13040101 		addi	s0,sp,16
 557              		.cfi_def_cfa 8, 0
  63:src/syscall_cpp.cpp ****     return sem_signal(myHandle);
 558              		.loc 2 63 5
 559              		.loc 2 63 22 is_stmt 0
 560 0214 03358500 		ld	a0,8(a0)
 561              	.LVL31:
 562 0218 97000000 		call	_Z10sem_signalP10Ksemaphore@plt
 562      E7800000 
 563              	.LVL32:
  64:src/syscall_cpp.cpp **** }
 564              		.loc 2 64 1
 565 0220 83308100 		ld	ra,8(sp)
 566              		.cfi_restore 1
 567 0224 03340100 		ld	s0,0(sp)
 568              		.cfi_restore 8
 569              		.cfi_def_cfa 2, 16
 570 0228 13010101 		addi	sp,sp,16
 571              		.cfi_def_cfa_offset 0
 572 022c 67800000 		jr	ra
 573              		.cfi_endproc
 574              	.LFE53:
 576              		.align	2
 577              		.globl	_ZN14PeriodicThreadC2Em
 579              	_ZN14PeriodicThreadC2Em:
 580              	.LFB55:
  65:src/syscall_cpp.cpp **** 
  66:src/syscall_cpp.cpp **** PeriodicThread::PeriodicThread(time_t period) {
 581              		.loc 2 66 1 is_stmt 1
 582              		.cfi_startproc
GAS LISTING /tmp/ccrN5AO7.s 			page 14


 583              	.LVL33:
 584 0230 130101FE 		addi	sp,sp,-32
 585              		.cfi_def_cfa_offset 32
 586 0234 233C1100 		sd	ra,24(sp)
 587 0238 23388100 		sd	s0,16(sp)
 588 023c 23349100 		sd	s1,8(sp)
 589              		.cfi_offset 1, -8
 590              		.cfi_offset 8, -16
 591              		.cfi_offset 9, -24
 592 0240 13040102 		addi	s0,sp,32
 593              		.cfi_def_cfa 8, 0
 594 0244 93040500 		mv	s1,a0
 595              	.LBB17:
 596              		.loc 2 66 45 is_stmt 0
 597 0248 97000000 		call	_ZN6ThreadC2Ev
 597      E7800000 
 598              	.LVL34:
 599 0250 97070000 		lla	a5,_ZTV14PeriodicThread+16
 599      93870700 
 600 0258 23B0F400 		sd	a5,0(s1)
 601              	.LBE17:
  67:src/syscall_cpp.cpp **** 
  68:src/syscall_cpp.cpp **** }
 602              		.loc 2 68 1
 603 025c 83308101 		ld	ra,24(sp)
 604              		.cfi_restore 1
 605 0260 03340101 		ld	s0,16(sp)
 606              		.cfi_restore 8
 607              		.cfi_def_cfa 2, 32
 608 0264 83348100 		ld	s1,8(sp)
 609              		.cfi_restore 9
 610              	.LVL35:
 611 0268 13010102 		addi	sp,sp,32
 612              		.cfi_def_cfa_offset 0
 613 026c 67800000 		jr	ra
 614              		.cfi_endproc
 615              	.LFE55:
 617              		.globl	_ZN14PeriodicThreadC1Em
 618              		.set	_ZN14PeriodicThreadC1Em,_ZN14PeriodicThreadC2Em
 619              		.align	2
 620              		.globl	_ZN7Console4getcEv
 622              	_ZN7Console4getcEv:
 623              	.LFB57:
  69:src/syscall_cpp.cpp **** 
  70:src/syscall_cpp.cpp **** char Console::getc() {
 624              		.loc 2 70 22 is_stmt 1
 625              		.cfi_startproc
 626 0270 130101FF 		addi	sp,sp,-16
 627              		.cfi_def_cfa_offset 16
 628 0274 23341100 		sd	ra,8(sp)
 629 0278 23308100 		sd	s0,0(sp)
 630              		.cfi_offset 1, -8
 631              		.cfi_offset 8, -16
 632 027c 13040101 		addi	s0,sp,16
 633              		.cfi_def_cfa 8, 0
  71:src/syscall_cpp.cpp ****     return __getc();
 634              		.loc 2 71 5
GAS LISTING /tmp/ccrN5AO7.s 			page 15


 635              		.loc 2 71 18 is_stmt 0
 636 0280 97000000 		call	__getc@plt
 636      E7800000 
 637              	.LVL36:
  72:src/syscall_cpp.cpp **** }
 638              		.loc 2 72 1
 639 0288 83308100 		ld	ra,8(sp)
 640              		.cfi_restore 1
 641 028c 03340100 		ld	s0,0(sp)
 642              		.cfi_restore 8
 643              		.cfi_def_cfa 2, 16
 644 0290 13010101 		addi	sp,sp,16
 645              		.cfi_def_cfa_offset 0
 646 0294 67800000 		jr	ra
 647              		.cfi_endproc
 648              	.LFE57:
 650              		.align	2
 651              		.globl	_ZN7Console4putcEc
 653              	_ZN7Console4putcEc:
 654              	.LFB58:
  73:src/syscall_cpp.cpp **** 
  74:src/syscall_cpp.cpp **** void Console::putc(char c) {
 655              		.loc 2 74 28 is_stmt 1
 656              		.cfi_startproc
 657              	.LVL37:
 658 0298 130101FF 		addi	sp,sp,-16
 659              		.cfi_def_cfa_offset 16
 660 029c 23341100 		sd	ra,8(sp)
 661 02a0 23308100 		sd	s0,0(sp)
 662              		.cfi_offset 1, -8
 663              		.cfi_offset 8, -16
 664 02a4 13040101 		addi	s0,sp,16
 665              		.cfi_def_cfa 8, 0
  75:src/syscall_cpp.cpp ****     __putc(c);
 666              		.loc 2 75 5
 667              		.loc 2 75 11 is_stmt 0
 668 02a8 97000000 		call	__putc@plt
 668      E7800000 
 669              	.LVL38:
  76:src/syscall_cpp.cpp **** }
 670              		.loc 2 76 1
 671 02b0 83308100 		ld	ra,8(sp)
 672              		.cfi_restore 1
 673 02b4 03340100 		ld	s0,0(sp)
 674              		.cfi_restore 8
 675              		.cfi_def_cfa 2, 16
 676 02b8 13010101 		addi	sp,sp,16
 677              		.cfi_def_cfa_offset 0
 678 02bc 67800000 		jr	ra
 679              		.cfi_endproc
 680              	.LFE58:
 682              		.weak	_ZTV14PeriodicThread
 683              		.section	.data.rel.ro.local._ZTV14PeriodicThread,"awG",@progbits,_ZTV14PeriodicThread,comdat
 684              		.align	3
 687              	_ZTV14PeriodicThread:
 688 0000 00000000 		.dword	0
 688      00000000 
GAS LISTING /tmp/ccrN5AO7.s 			page 16


 689 0008 00000000 		.dword	0
 689      00000000 
 690 0010 00000000 		.dword	_ZN14PeriodicThreadD1Ev
 690      00000000 
 691 0018 00000000 		.dword	_ZN14PeriodicThreadD0Ev
 691      00000000 
 692 0020 00000000 		.dword	_ZN6Thread3runEv
 692      00000000 
 693 0028 00000000 		.dword	_ZN14PeriodicThread18periodicActivationEv
 693      00000000 
 694              		.weak	_ZTV6Thread
 695              		.section	.data.rel.ro.local._ZTV6Thread,"awG",@progbits,_ZTV6Thread,comdat
 696              		.align	3
 699              	_ZTV6Thread:
 700 0000 00000000 		.dword	0
 700      00000000 
 701 0008 00000000 		.dword	0
 701      00000000 
 702 0010 00000000 		.dword	_ZN6ThreadD1Ev
 702      00000000 
 703 0018 00000000 		.dword	_ZN6ThreadD0Ev
 703      00000000 
 704 0020 00000000 		.dword	_ZN6Thread3runEv
 704      00000000 
 705              		.weak	_ZTV9Semaphore
 706              		.section	.data.rel.ro.local._ZTV9Semaphore,"awG",@progbits,_ZTV9Semaphore,comdat
 707              		.align	3
 710              	_ZTV9Semaphore:
 711 0000 00000000 		.dword	0
 711      00000000 
 712 0008 00000000 		.dword	0
 712      00000000 
 713 0010 00000000 		.dword	_ZN9SemaphoreD1Ev
 713      00000000 
 714 0018 00000000 		.dword	_ZN9SemaphoreD0Ev
 714      00000000 
 715              		.text
 716              	.Letext0:
 717              		.file 4 "src/../h/../lib/hw.h"
 718              		.file 5 "src/../h/list.hpp"
 719              		.file 6 "src/../h/Ksemaphore.hpp"
 720              		.file 7 "src/../h/../lib/console.h"
 721              		.file 8 "src/../h/syscall_c.h"
 722              		.file 9 "src/../h/../lib/mem.h"
GAS LISTING /tmp/ccrN5AO7.s 			page 17

