GAS LISTING /tmp/ccobaT5l.s 			page 1


   1              		.file	"syscall_c.cpp"
   2              		.option pic
   3              		.option norelax
   4              		.text
   5              	.Ltext0:
   6              		.align	2
   7              		.globl	_Z9mem_allocm
   9              	_Z9mem_allocm:
  10              	.LFB26:
  11              		.file 1 "src/syscall_c.cpp"
   1:src/syscall_c.cpp **** #include "../h/syscall_c.h"
   2:src/syscall_c.cpp **** 
   3:src/syscall_c.cpp **** 
   4:src/syscall_c.cpp **** void* mem_alloc(size_t size){
  12              		.loc 1 4 29
  13              		.cfi_startproc
  14              	.LVL0:
  15 0000 130101FF 		addi	sp,sp,-16
  16              		.cfi_def_cfa_offset 16
  17 0004 23348100 		sd	s0,8(sp)
  18              		.cfi_offset 8, -8
  19 0008 13040101 		addi	s0,sp,16
  20              		.cfi_def_cfa 8, 0
   5:src/syscall_c.cpp ****     __asm__ volatile("mv a1, %0"::"r"(size));
  21              		.loc 1 5 5
  22              		.loc 1 5 45 is_stmt 0
  23              	#APP
  24              	# 5 "src/syscall_c.cpp" 1
   6              	    __asm__ volatile("li a0, 0x01");
  25              		mv a1, a0
  26              	# 0 "" 2
  27              		.loc 1 6 5 is_stmt 1
  28              		.loc 1 6 36 is_stmt 0
  29              	# 6 "src/syscall_c.cpp" 1
   7              	    __asm__ volatile("ecall");
  30              		li a0, 0x01
  31              	# 0 "" 2
  32              		.loc 1 7 5 is_stmt 1
  33              		.loc 1 7 30 is_stmt 0
  34              	# 7 "src/syscall_c.cpp" 1
   8              	    void* a0;
  35              		ecall
  36              	# 0 "" 2
  37              		.loc 1 8 5 is_stmt 1
   9:src/syscall_c.cpp ****     __asm__ volatile ("mv %[a0], a0" : [a0] "=r"(a0));
  38              		.loc 1 9 5
  39              		.loc 1 9 54 is_stmt 0
  40              	# 9 "src/syscall_c.cpp" 1
  10              	    return a0;
  41              		mv a0, a0
  42              	# 0 "" 2
  43              	.LVL1:
  44              		.loc 1 10 5 is_stmt 1
  11:src/syscall_c.cpp **** }
  45              		.loc 1 11 1 is_stmt 0
  46              	#NO_APP
  47 001c 03348100 		ld	s0,8(sp)
GAS LISTING /tmp/ccobaT5l.s 			page 2


  48              		.cfi_restore 8
  49              		.cfi_def_cfa 2, 16
  50 0020 13010101 		addi	sp,sp,16
  51              		.cfi_def_cfa_offset 0
  52 0024 67800000 		jr	ra
  53              		.cfi_endproc
  54              	.LFE26:
  56              		.align	2
  57              		.globl	_Z8mem_freePv
  59              	_Z8mem_freePv:
  60              	.LFB27:
  12:src/syscall_c.cpp **** 
  13:src/syscall_c.cpp **** int mem_free (void* r){
  61              		.loc 1 13 23 is_stmt 1
  62              		.cfi_startproc
  63              	.LVL2:
  64 0028 130101FF 		addi	sp,sp,-16
  65              		.cfi_def_cfa_offset 16
  66 002c 23348100 		sd	s0,8(sp)
  67              		.cfi_offset 8, -8
  68 0030 13040101 		addi	s0,sp,16
  69              		.cfi_def_cfa 8, 0
  14:src/syscall_c.cpp ****     __asm__ volatile("mv a2, %0"::"r"(r));
  70              		.loc 1 14 5
  71              		.loc 1 14 42 is_stmt 0
  72              	#APP
  73              	# 14 "src/syscall_c.cpp" 1
  15              	    __asm__ volatile("li a0, 0x02");
  74              		mv a2, a0
  75              	# 0 "" 2
  76              		.loc 1 15 5 is_stmt 1
  77              		.loc 1 15 36 is_stmt 0
  78              	# 15 "src/syscall_c.cpp" 1
  16              	    __asm__ volatile("ecall");
  79              		li a0, 0x02
  80              	# 0 "" 2
  81              		.loc 1 16 5 is_stmt 1
  82              		.loc 1 16 30 is_stmt 0
  83              	# 16 "src/syscall_c.cpp" 1
  17              	
  18:src/syscall_c.cpp ****     uint64 a0;
  84              		ecall
  85              	# 0 "" 2
  86              		.loc 1 18 5 is_stmt 1
  19:src/syscall_c.cpp ****     __asm__ volatile ("mv %[a0], a0" : [a0] "=r"(a0));
  87              		.loc 1 19 5
  88              		.loc 1 19 54 is_stmt 0
  89              	# 19 "src/syscall_c.cpp" 1
  20              	    return a0;
  90              		mv a0, a0
  91              	# 0 "" 2
  92              	.LVL3:
  93              		.loc 1 20 5 is_stmt 1
  21:src/syscall_c.cpp **** }
  94              		.loc 1 21 1 is_stmt 0
  95              	#NO_APP
  96 0044 1B050500 		sext.w	a0,a0
GAS LISTING /tmp/ccobaT5l.s 			page 3


  97              	.LVL4:
  98 0048 03348100 		ld	s0,8(sp)
  99              		.cfi_restore 8
 100              		.cfi_def_cfa 2, 16
 101 004c 13010101 		addi	sp,sp,16
 102              		.cfi_def_cfa_offset 0
 103 0050 67800000 		jr	ra
 104              		.cfi_endproc
 105              	.LFE27:
 107              		.align	2
 108              		.globl	_Z13thread_createPP3TCBPFvPvES2_
 110              	_Z13thread_createPP3TCBPFvPvES2_:
 111              	.LFB28:
  22:src/syscall_c.cpp **** 
  23:src/syscall_c.cpp **** int thread_create (thread_t* handle, void(*start_routine)(void*), void* arg){
 112              		.loc 1 23 77 is_stmt 1
 113              		.cfi_startproc
 114              	.LVL5:
 115 0054 130101FF 		addi	sp,sp,-16
 116              		.cfi_def_cfa_offset 16
 117 0058 23348100 		sd	s0,8(sp)
 118              		.cfi_offset 8, -8
 119 005c 13040101 		addi	s0,sp,16
 120              		.cfi_def_cfa 8, 0
  24:src/syscall_c.cpp ****     __asm__ volatile("mv a3, %0"::"r"(arg));
 121              		.loc 1 24 5
 122              		.loc 1 24 44 is_stmt 0
 123              	#APP
 124              	# 24 "src/syscall_c.cpp" 1
  25              	    __asm__ volatile("mv a2, %0"::"r"(start_routine));
 125              		mv a3, a2
 126              	# 0 "" 2
 127              		.loc 1 25 5 is_stmt 1
 128              		.loc 1 25 54 is_stmt 0
 129              	# 25 "src/syscall_c.cpp" 1
  26              	    __asm__ volatile("mv a1, %0"::"r"(handle));
 130              		mv a2, a1
 131              	# 0 "" 2
 132              		.loc 1 26 5 is_stmt 1
 133              		.loc 1 26 47 is_stmt 0
 134              	# 26 "src/syscall_c.cpp" 1
  27              	    __asm__ volatile("li a0, 0x11");
 135              		mv a1, a0
 136              	# 0 "" 2
 137              		.loc 1 27 5 is_stmt 1
 138              		.loc 1 27 36 is_stmt 0
 139              	# 27 "src/syscall_c.cpp" 1
  28              	    __asm__ volatile("ecall");
 140              		li a0, 0x11
 141              	# 0 "" 2
 142              		.loc 1 28 5 is_stmt 1
 143              		.loc 1 28 30 is_stmt 0
 144              	# 28 "src/syscall_c.cpp" 1
  29              	    uint64 a0;
 145              		ecall
 146              	# 0 "" 2
 147              		.loc 1 29 5 is_stmt 1
GAS LISTING /tmp/ccobaT5l.s 			page 4


  30:src/syscall_c.cpp ****     __asm__ volatile ("mv %[a0], a0" : [a0] "=r"(a0));
 148              		.loc 1 30 5
 149              		.loc 1 30 54 is_stmt 0
 150              	# 30 "src/syscall_c.cpp" 1
  31              	
 151              		mv a0, a0
 152              	# 0 "" 2
 153              	.LVL6:
  32:src/syscall_c.cpp ****     return a0;
 154              		.loc 1 32 5 is_stmt 1
  33:src/syscall_c.cpp **** }
 155              		.loc 1 33 1 is_stmt 0
 156              	#NO_APP
 157 0078 1B050500 		sext.w	a0,a0
 158              	.LVL7:
 159 007c 03348100 		ld	s0,8(sp)
 160              		.cfi_restore 8
 161              		.cfi_def_cfa 2, 16
 162 0080 13010101 		addi	sp,sp,16
 163              		.cfi_def_cfa_offset 0
 164 0084 67800000 		jr	ra
 165              		.cfi_endproc
 166              	.LFE28:
 168              		.align	2
 169              		.globl	_Z11thread_exitv
 171              	_Z11thread_exitv:
 172              	.LFB29:
  34:src/syscall_c.cpp **** 
  35:src/syscall_c.cpp **** int thread_exit(){
 173              		.loc 1 35 18 is_stmt 1
 174              		.cfi_startproc
 175 0088 130101FF 		addi	sp,sp,-16
 176              		.cfi_def_cfa_offset 16
 177 008c 23348100 		sd	s0,8(sp)
 178              		.cfi_offset 8, -8
 179 0090 13040101 		addi	s0,sp,16
 180              		.cfi_def_cfa 8, 0
  36:src/syscall_c.cpp ****     __asm__ volatile("li a0, 0x12");
 181              		.loc 1 36 5
 182              		.loc 1 36 36 is_stmt 0
 183              	#APP
 184              	# 36 "src/syscall_c.cpp" 1
  37              	    __asm__ volatile("ecall");
 185              		li a0, 0x12
 186              	# 0 "" 2
 187              		.loc 1 37 5 is_stmt 1
 188              		.loc 1 37 30 is_stmt 0
 189              	# 37 "src/syscall_c.cpp" 1
  38              	
  39:src/syscall_c.cpp ****     uint64 a0;
 190              		ecall
 191              	# 0 "" 2
 192              		.loc 1 39 5 is_stmt 1
  40:src/syscall_c.cpp ****     __asm__ volatile ("mv %[a0], a0" : [a0] "=r"(a0));
 193              		.loc 1 40 5
 194              		.loc 1 40 54 is_stmt 0
 195              	# 40 "src/syscall_c.cpp" 1
GAS LISTING /tmp/ccobaT5l.s 			page 5


  41              	    return a0;
 196              		mv a0, a0
 197              	# 0 "" 2
 198              	.LVL8:
 199              		.loc 1 41 5 is_stmt 1
  42:src/syscall_c.cpp **** }
 200              		.loc 1 42 1 is_stmt 0
 201              	#NO_APP
 202 00a0 1B050500 		sext.w	a0,a0
 203              	.LVL9:
 204 00a4 03348100 		ld	s0,8(sp)
 205              		.cfi_restore 8
 206              		.cfi_def_cfa 2, 16
 207 00a8 13010101 		addi	sp,sp,16
 208              		.cfi_def_cfa_offset 0
 209 00ac 67800000 		jr	ra
 210              		.cfi_endproc
 211              	.LFE29:
 213              		.align	2
 214              		.globl	_Z15thread_dispatchv
 216              	_Z15thread_dispatchv:
 217              	.LFB30:
  43:src/syscall_c.cpp **** 
  44:src/syscall_c.cpp **** void thread_dispatch(){
 218              		.loc 1 44 23 is_stmt 1
 219              		.cfi_startproc
 220 00b0 130101FF 		addi	sp,sp,-16
 221              		.cfi_def_cfa_offset 16
 222 00b4 23348100 		sd	s0,8(sp)
 223              		.cfi_offset 8, -8
 224 00b8 13040101 		addi	s0,sp,16
 225              		.cfi_def_cfa 8, 0
  45:src/syscall_c.cpp ****     __asm__ volatile("li a0, 0x13");
 226              		.loc 1 45 5
 227              		.loc 1 45 36 is_stmt 0
 228              	#APP
 229              	# 45 "src/syscall_c.cpp" 1
  46              	    __asm__ volatile("ecall");
 230              		li a0, 0x13
 231              	# 0 "" 2
 232              		.loc 1 46 5 is_stmt 1
 233              		.loc 1 46 30 is_stmt 0
 234              	# 46 "src/syscall_c.cpp" 1
  47              	
  48:src/syscall_c.cpp **** }
 235              		ecall
 236              	# 0 "" 2
 237              		.loc 1 48 1
 238              	#NO_APP
 239 00c4 03348100 		ld	s0,8(sp)
 240              		.cfi_restore 8
 241              		.cfi_def_cfa 2, 16
 242 00c8 13010101 		addi	sp,sp,16
 243              		.cfi_def_cfa_offset 0
 244 00cc 67800000 		jr	ra
 245              		.cfi_endproc
 246              	.LFE30:
GAS LISTING /tmp/ccobaT5l.s 			page 6


 248              		.align	2
 249              		.globl	_Z8sem_openPP10Ksemaphorej
 251              	_Z8sem_openPP10Ksemaphorej:
 252              	.LFB31:
  49:src/syscall_c.cpp **** 
  50:src/syscall_c.cpp **** int sem_open (
  51:src/syscall_c.cpp ****         sem_t* handle,
  52:src/syscall_c.cpp ****         unsigned init
  53:src/syscall_c.cpp **** ){
 253              		.loc 1 53 2 is_stmt 1
 254              		.cfi_startproc
 255              	.LVL10:
 256 00d0 130101FF 		addi	sp,sp,-16
 257              		.cfi_def_cfa_offset 16
 258 00d4 23348100 		sd	s0,8(sp)
 259              		.cfi_offset 8, -8
 260 00d8 13040101 		addi	s0,sp,16
 261              		.cfi_def_cfa 8, 0
  54:src/syscall_c.cpp ****     __asm__ volatile("mv a2, %0"::"r"(handle));
 262              		.loc 1 54 5
 263              		.loc 1 54 47 is_stmt 0
 264              	#APP
 265              	# 54 "src/syscall_c.cpp" 1
  55              	    __asm__ volatile("mv a1, %0"::"r"(init));
 266              		mv a2, a0
 267              	# 0 "" 2
 268              		.loc 1 55 5 is_stmt 1
 269              		.loc 1 55 45 is_stmt 0
 270              	# 55 "src/syscall_c.cpp" 1
  56              	    __asm__ volatile("li a0, 0x21");
 271              		mv a1, a1
 272              	# 0 "" 2
 273              		.loc 1 56 5 is_stmt 1
 274              		.loc 1 56 36 is_stmt 0
 275              	# 56 "src/syscall_c.cpp" 1
  57              	    __asm__ volatile("ecall");
 276              		li a0, 0x21
 277              	# 0 "" 2
 278              		.loc 1 57 5 is_stmt 1
 279              		.loc 1 57 30 is_stmt 0
 280              	# 57 "src/syscall_c.cpp" 1
  58              	    uint64 a0;
 281              		ecall
 282              	# 0 "" 2
 283              		.loc 1 58 5 is_stmt 1
  59:src/syscall_c.cpp ****     __asm__ volatile ("mv %[a0], a0" : [a0] "=r"(a0));
 284              		.loc 1 59 5
 285              		.loc 1 59 54 is_stmt 0
 286              	# 59 "src/syscall_c.cpp" 1
  60              	
 287              		mv a0, a0
 288              	# 0 "" 2
 289              	.LVL11:
  61:src/syscall_c.cpp ****     return a0;
 290              		.loc 1 61 5 is_stmt 1
  62:src/syscall_c.cpp **** 
  63:src/syscall_c.cpp **** }
GAS LISTING /tmp/ccobaT5l.s 			page 7


 291              		.loc 1 63 1 is_stmt 0
 292              	#NO_APP
 293 00f0 1B050500 		sext.w	a0,a0
 294              	.LVL12:
 295 00f4 03348100 		ld	s0,8(sp)
 296              		.cfi_restore 8
 297              		.cfi_def_cfa 2, 16
 298 00f8 13010101 		addi	sp,sp,16
 299              		.cfi_def_cfa_offset 0
 300 00fc 67800000 		jr	ra
 301              		.cfi_endproc
 302              	.LFE31:
 304              		.align	2
 305              		.globl	_Z9sem_closeP10Ksemaphore
 307              	_Z9sem_closeP10Ksemaphore:
 308              	.LFB32:
  64:src/syscall_c.cpp **** 
  65:src/syscall_c.cpp **** int sem_close (sem_t handle){
 309              		.loc 1 65 29 is_stmt 1
 310              		.cfi_startproc
 311              	.LVL13:
 312 0100 130101FF 		addi	sp,sp,-16
 313              		.cfi_def_cfa_offset 16
 314 0104 23348100 		sd	s0,8(sp)
 315              		.cfi_offset 8, -8
 316 0108 13040101 		addi	s0,sp,16
 317              		.cfi_def_cfa 8, 0
  66:src/syscall_c.cpp ****     __asm__ volatile("mv a1, %0"::"r"(handle));
 318              		.loc 1 66 5
 319              		.loc 1 66 47 is_stmt 0
 320              	#APP
 321              	# 66 "src/syscall_c.cpp" 1
  67              	    __asm__ volatile("li a0, 0x22");
 322              		mv a1, a0
 323              	# 0 "" 2
 324              		.loc 1 67 5 is_stmt 1
 325              		.loc 1 67 36 is_stmt 0
 326              	# 67 "src/syscall_c.cpp" 1
  68              	    __asm__ volatile("ecall");
 327              		li a0, 0x22
 328              	# 0 "" 2
 329              		.loc 1 68 5 is_stmt 1
 330              		.loc 1 68 30 is_stmt 0
 331              	# 68 "src/syscall_c.cpp" 1
  69              	    uint64 a0;
 332              		ecall
 333              	# 0 "" 2
 334              		.loc 1 69 5 is_stmt 1
  70:src/syscall_c.cpp ****     __asm__ volatile ("mv %[a0], a0" : [a0] "=r"(a0));
 335              		.loc 1 70 5
 336              		.loc 1 70 54 is_stmt 0
 337              	# 70 "src/syscall_c.cpp" 1
  71              	
 338              		mv a0, a0
 339              	# 0 "" 2
 340              	.LVL14:
  72:src/syscall_c.cpp ****     return a0;
GAS LISTING /tmp/ccobaT5l.s 			page 8


 341              		.loc 1 72 5 is_stmt 1
  73:src/syscall_c.cpp **** }
 342              		.loc 1 73 1 is_stmt 0
 343              	#NO_APP
 344 011c 1B050500 		sext.w	a0,a0
 345              	.LVL15:
 346 0120 03348100 		ld	s0,8(sp)
 347              		.cfi_restore 8
 348              		.cfi_def_cfa 2, 16
 349 0124 13010101 		addi	sp,sp,16
 350              		.cfi_def_cfa_offset 0
 351 0128 67800000 		jr	ra
 352              		.cfi_endproc
 353              	.LFE32:
 355              		.align	2
 356              		.globl	_Z8sem_waitP10Ksemaphore
 358              	_Z8sem_waitP10Ksemaphore:
 359              	.LFB33:
  74:src/syscall_c.cpp **** 
  75:src/syscall_c.cpp **** int sem_wait (sem_t id){
 360              		.loc 1 75 24 is_stmt 1
 361              		.cfi_startproc
 362              	.LVL16:
 363 012c 130101FF 		addi	sp,sp,-16
 364              		.cfi_def_cfa_offset 16
 365 0130 23348100 		sd	s0,8(sp)
 366              		.cfi_offset 8, -8
 367 0134 13040101 		addi	s0,sp,16
 368              		.cfi_def_cfa 8, 0
  76:src/syscall_c.cpp ****     __asm__ volatile("mv a1, %0"::"r"(id));
 369              		.loc 1 76 5
 370              		.loc 1 76 43 is_stmt 0
 371              	#APP
 372              	# 76 "src/syscall_c.cpp" 1
  77              	    __asm__ volatile("li a0, 0x23");
 373              		mv a1, a0
 374              	# 0 "" 2
 375              		.loc 1 77 5 is_stmt 1
 376              		.loc 1 77 36 is_stmt 0
 377              	# 77 "src/syscall_c.cpp" 1
  78              	    __asm__ volatile("ecall");
 378              		li a0, 0x23
 379              	# 0 "" 2
 380              		.loc 1 78 5 is_stmt 1
 381              		.loc 1 78 30 is_stmt 0
 382              	# 78 "src/syscall_c.cpp" 1
  79              	    uint64 a0;
 383              		ecall
 384              	# 0 "" 2
 385              		.loc 1 79 5 is_stmt 1
  80:src/syscall_c.cpp ****     __asm__ volatile ("mv %[a0], a0" : [a0] "=r"(a0));
 386              		.loc 1 80 5
 387              		.loc 1 80 54 is_stmt 0
 388              	# 80 "src/syscall_c.cpp" 1
  81              	
 389              		mv a0, a0
 390              	# 0 "" 2
GAS LISTING /tmp/ccobaT5l.s 			page 9


 391              	.LVL17:
  82:src/syscall_c.cpp ****     return a0;
 392              		.loc 1 82 5 is_stmt 1
  83:src/syscall_c.cpp **** 
  84:src/syscall_c.cpp **** }
 393              		.loc 1 84 1 is_stmt 0
 394              	#NO_APP
 395 0148 1B050500 		sext.w	a0,a0
 396              	.LVL18:
 397 014c 03348100 		ld	s0,8(sp)
 398              		.cfi_restore 8
 399              		.cfi_def_cfa 2, 16
 400 0150 13010101 		addi	sp,sp,16
 401              		.cfi_def_cfa_offset 0
 402 0154 67800000 		jr	ra
 403              		.cfi_endproc
 404              	.LFE33:
 406              		.align	2
 407              		.globl	_Z10sem_signalP10Ksemaphore
 409              	_Z10sem_signalP10Ksemaphore:
 410              	.LFB34:
  85:src/syscall_c.cpp **** 
  86:src/syscall_c.cpp **** int sem_signal(sem_t id){
 411              		.loc 1 86 25 is_stmt 1
 412              		.cfi_startproc
 413              	.LVL19:
 414 0158 130101FF 		addi	sp,sp,-16
 415              		.cfi_def_cfa_offset 16
 416 015c 23348100 		sd	s0,8(sp)
 417              		.cfi_offset 8, -8
 418 0160 13040101 		addi	s0,sp,16
 419              		.cfi_def_cfa 8, 0
  87:src/syscall_c.cpp ****     __asm__ volatile("mv a1, %0"::"r"(id));
 420              		.loc 1 87 5
 421              		.loc 1 87 43 is_stmt 0
 422              	#APP
 423              	# 87 "src/syscall_c.cpp" 1
  88              	    __asm__ volatile("li a0, 0x24");
 424              		mv a1, a0
 425              	# 0 "" 2
 426              		.loc 1 88 5 is_stmt 1
 427              		.loc 1 88 36 is_stmt 0
 428              	# 88 "src/syscall_c.cpp" 1
  89              	    __asm__ volatile("ecall");
 429              		li a0, 0x24
 430              	# 0 "" 2
 431              		.loc 1 89 5 is_stmt 1
 432              		.loc 1 89 30 is_stmt 0
 433              	# 89 "src/syscall_c.cpp" 1
  90              	    uint64 a0;
 434              		ecall
 435              	# 0 "" 2
 436              		.loc 1 90 5 is_stmt 1
  91:src/syscall_c.cpp ****     __asm__ volatile ("mv %[a0], a0" : [a0] "=r"(a0));
 437              		.loc 1 91 5
 438              		.loc 1 91 54 is_stmt 0
 439              	# 91 "src/syscall_c.cpp" 1
GAS LISTING /tmp/ccobaT5l.s 			page 10


  92              	
 440              		mv a0, a0
 441              	# 0 "" 2
 442              	.LVL20:
  93:src/syscall_c.cpp ****     return a0;
 443              		.loc 1 93 5 is_stmt 1
  94:src/syscall_c.cpp **** }
 444              		.loc 1 94 1 is_stmt 0
 445              	#NO_APP
 446 0174 1B050500 		sext.w	a0,a0
 447              	.LVL21:
 448 0178 03348100 		ld	s0,8(sp)
 449              		.cfi_restore 8
 450              		.cfi_def_cfa 2, 16
 451 017c 13010101 		addi	sp,sp,16
 452              		.cfi_def_cfa_offset 0
 453 0180 67800000 		jr	ra
 454              		.cfi_endproc
 455              	.LFE34:
 457              		.align	2
 458              		.globl	_Z4getcv
 460              	_Z4getcv:
 461              	.LFB35:
  95:src/syscall_c.cpp **** 
  96:src/syscall_c.cpp **** char getc(){
 462              		.loc 1 96 12 is_stmt 1
 463              		.cfi_startproc
 464 0184 130101FF 		addi	sp,sp,-16
 465              		.cfi_def_cfa_offset 16
 466 0188 23341100 		sd	ra,8(sp)
 467 018c 23308100 		sd	s0,0(sp)
 468              		.cfi_offset 1, -8
 469              		.cfi_offset 8, -16
 470 0190 13040101 		addi	s0,sp,16
 471              		.cfi_def_cfa 8, 0
  97:src/syscall_c.cpp ****     return __getc();
 472              		.loc 1 97 5
 473              		.loc 1 97 18 is_stmt 0
 474 0194 97000000 		call	__getc@plt
 474      E7800000 
 475              	.LVL22:
  98:src/syscall_c.cpp **** }
 476              		.loc 1 98 1
 477 019c 83308100 		ld	ra,8(sp)
 478              		.cfi_restore 1
 479 01a0 03340100 		ld	s0,0(sp)
 480              		.cfi_restore 8
 481              		.cfi_def_cfa 2, 16
 482 01a4 13010101 		addi	sp,sp,16
 483              		.cfi_def_cfa_offset 0
 484 01a8 67800000 		jr	ra
 485              		.cfi_endproc
 486              	.LFE35:
 488              		.align	2
 489              		.globl	_Z4putcc
 491              	_Z4putcc:
 492              	.LFB36:
GAS LISTING /tmp/ccobaT5l.s 			page 11


  99:src/syscall_c.cpp **** void putc(char c){
 493              		.loc 1 99 18 is_stmt 1
 494              		.cfi_startproc
 495              	.LVL23:
 496 01ac 130101FF 		addi	sp,sp,-16
 497              		.cfi_def_cfa_offset 16
 498 01b0 23341100 		sd	ra,8(sp)
 499 01b4 23308100 		sd	s0,0(sp)
 500              		.cfi_offset 1, -8
 501              		.cfi_offset 8, -16
 502 01b8 13040101 		addi	s0,sp,16
 503              		.cfi_def_cfa 8, 0
 100:src/syscall_c.cpp ****     __putc(c);
 504              		.loc 1 100 5
 505              		.loc 1 100 11 is_stmt 0
 506 01bc 97000000 		call	__putc@plt
 506      E7800000 
 507              	.LVL24:
 101:src/syscall_c.cpp **** }...
 508              		.loc 1 101 1
 509 01c4 83308100 		ld	ra,8(sp)
 510              		.cfi_restore 1
 511 01c8 03340100 		ld	s0,0(sp)
 512              		.cfi_restore 8
 513              		.cfi_def_cfa 2, 16
 514 01cc 13010101 		addi	sp,sp,16
 515              		.cfi_def_cfa_offset 0
 516 01d0 67800000 		jr	ra
 517              		.cfi_endproc
 518              	.LFE36:
 520              	.Letext0:
 521              		.file 2 "src/../h/../lib/hw.h"
 522              		.file 3 "src/../h/list.hpp"
 523              		.file 4 "src/../h/TCB.hpp"
 524              		.file 5 "src/../h/Ksemaphore.hpp"
 525              		.file 6 "src/../h/../lib/console.h"
GAS LISTING /tmp/ccobaT5l.s 			page 12


DEFINED SYMBOLS
                            *ABS*:0000000000000000 syscall_c.cpp
     /tmp/ccobaT5l.s:9      .text:0000000000000000 _Z9mem_allocm
     /tmp/ccobaT5l.s:13     .text:0000000000000000 .L0 
     /tmp/ccobaT5l.s:15     .text:0000000000000000 .L0 
     /tmp/ccobaT5l.s:16     .text:0000000000000004 .L0 
     /tmp/ccobaT5l.s:18     .text:0000000000000008 .L0 
     /tmp/ccobaT5l.s:20     .text:000000000000000c .L0 
     /tmp/ccobaT5l.s:22     .text:000000000000000c .L0 
   src/syscall_c.cpp:5      .text:000000000000000c .L0 
     /tmp/ccobaT5l.s:28     .text:0000000000000010 .L0 
   src/syscall_c.cpp:6      .text:0000000000000010 .L0 
     /tmp/ccobaT5l.s:33     .text:0000000000000014 .L0 
   src/syscall_c.cpp:7      .text:0000000000000014 .L0 
     /tmp/ccobaT5l.s:38     .text:0000000000000018 .L0 
     /tmp/ccobaT5l.s:39     .text:0000000000000018 .L0 
   src/syscall_c.cpp:9      .text:0000000000000018 .L0 
     /tmp/ccobaT5l.s:45     .text:000000000000001c .L0 
     /tmp/ccobaT5l.s:47     .text:000000000000001c .L0 
     /tmp/ccobaT5l.s:48     .text:0000000000000020 .L0 
     /tmp/ccobaT5l.s:49     .text:0000000000000020 .L0 
     /tmp/ccobaT5l.s:51     .text:0000000000000024 .L0 
     /tmp/ccobaT5l.s:53     .text:0000000000000028 .L0 
     /tmp/ccobaT5l.s:59     .text:0000000000000028 _Z8mem_freePv
     /tmp/ccobaT5l.s:62     .text:0000000000000028 .L0 
     /tmp/ccobaT5l.s:64     .text:0000000000000028 .L0 
     /tmp/ccobaT5l.s:65     .text:000000000000002c .L0 
     /tmp/ccobaT5l.s:67     .text:0000000000000030 .L0 
     /tmp/ccobaT5l.s:69     .text:0000000000000034 .L0 
     /tmp/ccobaT5l.s:71     .text:0000000000000034 .L0 
   src/syscall_c.cpp:14     .text:0000000000000034 .L0 
     /tmp/ccobaT5l.s:77     .text:0000000000000038 .L0 
   src/syscall_c.cpp:15     .text:0000000000000038 .L0 
     /tmp/ccobaT5l.s:82     .text:000000000000003c .L0 
   src/syscall_c.cpp:16     .text:000000000000003c .L0 
     /tmp/ccobaT5l.s:87     .text:0000000000000040 .L0 
     /tmp/ccobaT5l.s:88     .text:0000000000000040 .L0 
   src/syscall_c.cpp:19     .text:0000000000000040 .L0 
     /tmp/ccobaT5l.s:94     .text:0000000000000044 .L0 
     /tmp/ccobaT5l.s:96     .text:0000000000000044 .L0 
     /tmp/ccobaT5l.s:99     .text:000000000000004c .L0 
     /tmp/ccobaT5l.s:100    .text:000000000000004c .L0 
     /tmp/ccobaT5l.s:102    .text:0000000000000050 .L0 
     /tmp/ccobaT5l.s:104    .text:0000000000000054 .L0 
     /tmp/ccobaT5l.s:110    .text:0000000000000054 _Z13thread_createPP3TCBPFvPvES2_
     /tmp/ccobaT5l.s:113    .text:0000000000000054 .L0 
     /tmp/ccobaT5l.s:115    .text:0000000000000054 .L0 
     /tmp/ccobaT5l.s:116    .text:0000000000000058 .L0 
     /tmp/ccobaT5l.s:118    .text:000000000000005c .L0 
     /tmp/ccobaT5l.s:120    .text:0000000000000060 .L0 
     /tmp/ccobaT5l.s:122    .text:0000000000000060 .L0 
   src/syscall_c.cpp:24     .text:0000000000000060 .L0 
     /tmp/ccobaT5l.s:128    .text:0000000000000064 .L0 
   src/syscall_c.cpp:25     .text:0000000000000064 .L0 
     /tmp/ccobaT5l.s:133    .text:0000000000000068 .L0 
   src/syscall_c.cpp:26     .text:0000000000000068 .L0 
     /tmp/ccobaT5l.s:138    .text:000000000000006c .L0 
GAS LISTING /tmp/ccobaT5l.s 			page 13


   src/syscall_c.cpp:27     .text:000000000000006c .L0 
     /tmp/ccobaT5l.s:143    .text:0000000000000070 .L0 
   src/syscall_c.cpp:28     .text:0000000000000070 .L0 
     /tmp/ccobaT5l.s:148    .text:0000000000000074 .L0 
     /tmp/ccobaT5l.s:149    .text:0000000000000074 .L0 
   src/syscall_c.cpp:30     .text:0000000000000074 .L0 
     /tmp/ccobaT5l.s:155    .text:0000000000000078 .L0 
     /tmp/ccobaT5l.s:157    .text:0000000000000078 .L0 
     /tmp/ccobaT5l.s:160    .text:0000000000000080 .L0 
     /tmp/ccobaT5l.s:161    .text:0000000000000080 .L0 
     /tmp/ccobaT5l.s:163    .text:0000000000000084 .L0 
     /tmp/ccobaT5l.s:165    .text:0000000000000088 .L0 
     /tmp/ccobaT5l.s:171    .text:0000000000000088 _Z11thread_exitv
     /tmp/ccobaT5l.s:174    .text:0000000000000088 .L0 
     /tmp/ccobaT5l.s:175    .text:0000000000000088 .L0 
     /tmp/ccobaT5l.s:176    .text:000000000000008c .L0 
     /tmp/ccobaT5l.s:178    .text:0000000000000090 .L0 
     /tmp/ccobaT5l.s:180    .text:0000000000000094 .L0 
     /tmp/ccobaT5l.s:182    .text:0000000000000094 .L0 
   src/syscall_c.cpp:36     .text:0000000000000094 .L0 
     /tmp/ccobaT5l.s:188    .text:0000000000000098 .L0 
   src/syscall_c.cpp:37     .text:0000000000000098 .L0 
     /tmp/ccobaT5l.s:193    .text:000000000000009c .L0 
     /tmp/ccobaT5l.s:194    .text:000000000000009c .L0 
   src/syscall_c.cpp:40     .text:000000000000009c .L0 
     /tmp/ccobaT5l.s:200    .text:00000000000000a0 .L0 
     /tmp/ccobaT5l.s:202    .text:00000000000000a0 .L0 
     /tmp/ccobaT5l.s:205    .text:00000000000000a8 .L0 
     /tmp/ccobaT5l.s:206    .text:00000000000000a8 .L0 
     /tmp/ccobaT5l.s:208    .text:00000000000000ac .L0 
     /tmp/ccobaT5l.s:210    .text:00000000000000b0 .L0 
     /tmp/ccobaT5l.s:216    .text:00000000000000b0 _Z15thread_dispatchv
     /tmp/ccobaT5l.s:219    .text:00000000000000b0 .L0 
     /tmp/ccobaT5l.s:220    .text:00000000000000b0 .L0 
     /tmp/ccobaT5l.s:221    .text:00000000000000b4 .L0 
     /tmp/ccobaT5l.s:223    .text:00000000000000b8 .L0 
     /tmp/ccobaT5l.s:225    .text:00000000000000bc .L0 
     /tmp/ccobaT5l.s:227    .text:00000000000000bc .L0 
   src/syscall_c.cpp:45     .text:00000000000000bc .L0 
     /tmp/ccobaT5l.s:233    .text:00000000000000c0 .L0 
   src/syscall_c.cpp:46     .text:00000000000000c0 .L0 
     /tmp/ccobaT5l.s:239    .text:00000000000000c4 .L0 
     /tmp/ccobaT5l.s:240    .text:00000000000000c8 .L0 
     /tmp/ccobaT5l.s:241    .text:00000000000000c8 .L0 
     /tmp/ccobaT5l.s:243    .text:00000000000000cc .L0 
     /tmp/ccobaT5l.s:245    .text:00000000000000d0 .L0 
     /tmp/ccobaT5l.s:251    .text:00000000000000d0 _Z8sem_openPP10Ksemaphorej
     /tmp/ccobaT5l.s:254    .text:00000000000000d0 .L0 
     /tmp/ccobaT5l.s:256    .text:00000000000000d0 .L0 
     /tmp/ccobaT5l.s:257    .text:00000000000000d4 .L0 
     /tmp/ccobaT5l.s:259    .text:00000000000000d8 .L0 
     /tmp/ccobaT5l.s:261    .text:00000000000000dc .L0 
     /tmp/ccobaT5l.s:263    .text:00000000000000dc .L0 
   src/syscall_c.cpp:54     .text:00000000000000dc .L0 
     /tmp/ccobaT5l.s:269    .text:00000000000000e0 .L0 
   src/syscall_c.cpp:55     .text:00000000000000e0 .L0 
     /tmp/ccobaT5l.s:274    .text:00000000000000e4 .L0 
GAS LISTING /tmp/ccobaT5l.s 			page 14


   src/syscall_c.cpp:56     .text:00000000000000e4 .L0 
     /tmp/ccobaT5l.s:279    .text:00000000000000e8 .L0 
   src/syscall_c.cpp:57     .text:00000000000000e8 .L0 
     /tmp/ccobaT5l.s:284    .text:00000000000000ec .L0 
     /tmp/ccobaT5l.s:285    .text:00000000000000ec .L0 
   src/syscall_c.cpp:59     .text:00000000000000ec .L0 
     /tmp/ccobaT5l.s:291    .text:00000000000000f0 .L0 
     /tmp/ccobaT5l.s:293    .text:00000000000000f0 .L0 
     /tmp/ccobaT5l.s:296    .text:00000000000000f8 .L0 
     /tmp/ccobaT5l.s:297    .text:00000000000000f8 .L0 
     /tmp/ccobaT5l.s:299    .text:00000000000000fc .L0 
     /tmp/ccobaT5l.s:301    .text:0000000000000100 .L0 
     /tmp/ccobaT5l.s:307    .text:0000000000000100 _Z9sem_closeP10Ksemaphore
     /tmp/ccobaT5l.s:310    .text:0000000000000100 .L0 
     /tmp/ccobaT5l.s:312    .text:0000000000000100 .L0 
     /tmp/ccobaT5l.s:313    .text:0000000000000104 .L0 
     /tmp/ccobaT5l.s:315    .text:0000000000000108 .L0 
     /tmp/ccobaT5l.s:317    .text:000000000000010c .L0 
     /tmp/ccobaT5l.s:319    .text:000000000000010c .L0 
   src/syscall_c.cpp:66     .text:000000000000010c .L0 
     /tmp/ccobaT5l.s:325    .text:0000000000000110 .L0 
   src/syscall_c.cpp:67     .text:0000000000000110 .L0 
     /tmp/ccobaT5l.s:330    .text:0000000000000114 .L0 
   src/syscall_c.cpp:68     .text:0000000000000114 .L0 
     /tmp/ccobaT5l.s:335    .text:0000000000000118 .L0 
     /tmp/ccobaT5l.s:336    .text:0000000000000118 .L0 
   src/syscall_c.cpp:70     .text:0000000000000118 .L0 
     /tmp/ccobaT5l.s:342    .text:000000000000011c .L0 
     /tmp/ccobaT5l.s:344    .text:000000000000011c .L0 
     /tmp/ccobaT5l.s:347    .text:0000000000000124 .L0 
     /tmp/ccobaT5l.s:348    .text:0000000000000124 .L0 
     /tmp/ccobaT5l.s:350    .text:0000000000000128 .L0 
     /tmp/ccobaT5l.s:352    .text:000000000000012c .L0 
     /tmp/ccobaT5l.s:358    .text:000000000000012c _Z8sem_waitP10Ksemaphore
     /tmp/ccobaT5l.s:361    .text:000000000000012c .L0 
     /tmp/ccobaT5l.s:363    .text:000000000000012c .L0 
     /tmp/ccobaT5l.s:364    .text:0000000000000130 .L0 
     /tmp/ccobaT5l.s:366    .text:0000000000000134 .L0 
     /tmp/ccobaT5l.s:368    .text:0000000000000138 .L0 
     /tmp/ccobaT5l.s:370    .text:0000000000000138 .L0 
   src/syscall_c.cpp:76     .text:0000000000000138 .L0 
     /tmp/ccobaT5l.s:376    .text:000000000000013c .L0 
   src/syscall_c.cpp:77     .text:000000000000013c .L0 
     /tmp/ccobaT5l.s:381    .text:0000000000000140 .L0 
   src/syscall_c.cpp:78     .text:0000000000000140 .L0 
     /tmp/ccobaT5l.s:386    .text:0000000000000144 .L0 
     /tmp/ccobaT5l.s:387    .text:0000000000000144 .L0 
   src/syscall_c.cpp:80     .text:0000000000000144 .L0 
     /tmp/ccobaT5l.s:393    .text:0000000000000148 .L0 
     /tmp/ccobaT5l.s:395    .text:0000000000000148 .L0 
     /tmp/ccobaT5l.s:398    .text:0000000000000150 .L0 
     /tmp/ccobaT5l.s:399    .text:0000000000000150 .L0 
     /tmp/ccobaT5l.s:401    .text:0000000000000154 .L0 
     /tmp/ccobaT5l.s:403    .text:0000000000000158 .L0 
     /tmp/ccobaT5l.s:409    .text:0000000000000158 _Z10sem_signalP10Ksemaphore
     /tmp/ccobaT5l.s:412    .text:0000000000000158 .L0 
     /tmp/ccobaT5l.s:414    .text:0000000000000158 .L0 
GAS LISTING /tmp/ccobaT5l.s 			page 15


     /tmp/ccobaT5l.s:415    .text:000000000000015c .L0 
     /tmp/ccobaT5l.s:417    .text:0000000000000160 .L0 
     /tmp/ccobaT5l.s:419    .text:0000000000000164 .L0 
     /tmp/ccobaT5l.s:421    .text:0000000000000164 .L0 
   src/syscall_c.cpp:87     .text:0000000000000164 .L0 
     /tmp/ccobaT5l.s:427    .text:0000000000000168 .L0 
   src/syscall_c.cpp:88     .text:0000000000000168 .L0 
     /tmp/ccobaT5l.s:432    .text:000000000000016c .L0 
   src/syscall_c.cpp:89     .text:000000000000016c .L0 
     /tmp/ccobaT5l.s:437    .text:0000000000000170 .L0 
     /tmp/ccobaT5l.s:438    .text:0000000000000170 .L0 
   src/syscall_c.cpp:91     .text:0000000000000170 .L0 
     /tmp/ccobaT5l.s:444    .text:0000000000000174 .L0 
     /tmp/ccobaT5l.s:446    .text:0000000000000174 .L0 
     /tmp/ccobaT5l.s:449    .text:000000000000017c .L0 
     /tmp/ccobaT5l.s:450    .text:000000000000017c .L0 
     /tmp/ccobaT5l.s:452    .text:0000000000000180 .L0 
     /tmp/ccobaT5l.s:454    .text:0000000000000184 .L0 
     /tmp/ccobaT5l.s:460    .text:0000000000000184 _Z4getcv
     /tmp/ccobaT5l.s:463    .text:0000000000000184 .L0 
     /tmp/ccobaT5l.s:464    .text:0000000000000184 .L0 
     /tmp/ccobaT5l.s:465    .text:0000000000000188 .L0 
     /tmp/ccobaT5l.s:468    .text:0000000000000190 .L0 
     /tmp/ccobaT5l.s:469    .text:0000000000000190 .L0 
     /tmp/ccobaT5l.s:471    .text:0000000000000194 .L0 
     /tmp/ccobaT5l.s:473    .text:0000000000000194 .L0 
     /tmp/ccobaT5l.s:474    .text:0000000000000194 .L0 
     /tmp/ccobaT5l.s:477    .text:000000000000019c .L0 
     /tmp/ccobaT5l.s:478    .text:00000000000001a0 .L0 
     /tmp/ccobaT5l.s:480    .text:00000000000001a4 .L0 
     /tmp/ccobaT5l.s:481    .text:00000000000001a4 .L0 
     /tmp/ccobaT5l.s:483    .text:00000000000001a8 .L0 
     /tmp/ccobaT5l.s:485    .text:00000000000001ac .L0 
     /tmp/ccobaT5l.s:491    .text:00000000000001ac _Z4putcc
     /tmp/ccobaT5l.s:494    .text:00000000000001ac .L0 
     /tmp/ccobaT5l.s:496    .text:00000000000001ac .L0 
     /tmp/ccobaT5l.s:497    .text:00000000000001b0 .L0 
     /tmp/ccobaT5l.s:500    .text:00000000000001b8 .L0 
     /tmp/ccobaT5l.s:501    .text:00000000000001b8 .L0 
     /tmp/ccobaT5l.s:503    .text:00000000000001bc .L0 
     /tmp/ccobaT5l.s:505    .text:00000000000001bc .L0 
     /tmp/ccobaT5l.s:506    .text:00000000000001bc .L0 
     /tmp/ccobaT5l.s:509    .text:00000000000001c4 .L0 
     /tmp/ccobaT5l.s:510    .text:00000000000001c8 .L0 
     /tmp/ccobaT5l.s:512    .text:00000000000001cc .L0 
     /tmp/ccobaT5l.s:513    .text:00000000000001cc .L0 
     /tmp/ccobaT5l.s:515    .text:00000000000001d0 .L0 
     /tmp/ccobaT5l.s:517    .text:00000000000001d4 .L0 
     /tmp/ccobaT5l.s:526    .text:00000000000001d4 .L0 
     /tmp/ccobaT5l.s:1519   .debug_abbrev:0000000000000000 .Ldebug_abbrev0
     /tmp/ccobaT5l.s:2695   .debug_str:0000000000000622 .LASF109
     /tmp/ccobaT5l.s:2581   .debug_str:00000000000002eb .LASF110
     /tmp/ccobaT5l.s:2553   .debug_str:00000000000001f6 .LASF111
     /tmp/ccobaT5l.s:5      .text:0000000000000000 .Ltext0
     /tmp/ccobaT5l.s:520    .text:00000000000001d4 .Letext0
     /tmp/ccobaT5l.s:2477   .debug_line:0000000000000000 .Ldebug_line0
     /tmp/ccobaT5l.s:2629   .debug_str:0000000000000441 .LASF0
GAS LISTING /tmp/ccobaT5l.s 			page 16


     /tmp/ccobaT5l.s:2639   .debug_str:000000000000048c .LASF1
     /tmp/ccobaT5l.s:2609   .debug_str:00000000000003a5 .LASF2
     /tmp/ccobaT5l.s:2577   .debug_str:00000000000002d9 .LASF4
     /tmp/ccobaT5l.s:2679   .debug_str:00000000000005bd .LASF3
     /tmp/ccobaT5l.s:2501   .debug_str:000000000000009a .LASF5
     /tmp/ccobaT5l.s:2645   .debug_str:00000000000004b7 .LASF6
     /tmp/ccobaT5l.s:2627   .debug_str:000000000000042e .LASF7
     /tmp/ccobaT5l.s:2705   .debug_str:0000000000000727 .LASF8
     /tmp/ccobaT5l.s:2561   .debug_str:0000000000000235 .LASF9
     /tmp/ccobaT5l.s:2655   .debug_str:0000000000000516 .LASF10
     /tmp/ccobaT5l.s:2699   .debug_str:00000000000006f2 .LASF11
     /tmp/ccobaT5l.s:2505   .debug_str:00000000000000a9 .LASF12
     /tmp/ccobaT5l.s:2485   .debug_str:000000000000002f .LASF13
     /tmp/ccobaT5l.s:2513   .debug_str:00000000000000e1 .LASF14
     /tmp/ccobaT5l.s:2673   .debug_str:0000000000000598 .LASF15
     /tmp/ccobaT5l.s:2525   .debug_str:000000000000013d .LASF16
     /tmp/ccobaT5l.s:2601   .debug_str:0000000000000384 .LASF34
     /tmp/ccobaT5l.s:2603   .debug_str:000000000000038e .LASF112
     /tmp/ccobaT5l.s:2531   .debug_str:0000000000000167 .LASF17
     /tmp/ccobaT5l.s:2607   .debug_str:00000000000003a0 .LASF18
     /tmp/ccobaT5l.s:2575   .debug_str:00000000000002d4 .LASF19
     /tmp/ccobaT5l.s:2689   .debug_str:00000000000005fd .LASF21
     /tmp/ccobaT5l.s:2669   .debug_str:000000000000057a .LASF26
     /tmp/ccobaT5l.s:2619   .debug_str:0000000000000402 .LASF83
     /tmp/ccobaT5l.s:2565   .debug_str:0000000000000251 .LASF85
     /tmp/ccobaT5l.s:2693   .debug_str:0000000000000619 .LASF20
     /tmp/ccobaT5l.s:2537   .debug_str:000000000000019f .LASF22
     /tmp/ccobaT5l.s:2559   .debug_str:000000000000022d .LASF23
     /tmp/ccobaT5l.s:2535   .debug_str:0000000000000183 .LASF24
     /tmp/ccobaT5l.s:2697   .debug_str:00000000000006e6 .LASF25
     /tmp/ccobaT5l.s:2483   .debug_str:0000000000000011 .LASF27
     /tmp/ccobaT5l.s:2511   .debug_str:00000000000000d7 .LASF28
     /tmp/ccobaT5l.s:2591   .debug_str:0000000000000329 .LASF29
     /tmp/ccobaT5l.s:2633   .debug_str:0000000000000457 .LASF30
     /tmp/ccobaT5l.s:2497   .debug_str:0000000000000064 .LASF31
     /tmp/ccobaT5l.s:2595   .debug_str:0000000000000355 .LASF32
     /tmp/ccobaT5l.s:2711   .debug_str:000000000000074c .LASF33
     /tmp/ccobaT5l.s:2489   .debug_str:0000000000000044 .LASF113
     /tmp/ccobaT5l.s:2597   .debug_str:000000000000035e .LASF49
     /tmp/ccobaT5l.s:2539   .debug_str:00000000000001bc .LASF35
     /tmp/ccobaT5l.s:2663   .debug_str:0000000000000553 .LASF36
     /tmp/ccobaT5l.s:2647   .debug_str:00000000000004ca .LASF37
     /tmp/ccobaT5l.s:2519   .debug_str:00000000000000fc .LASF38
     /tmp/ccobaT5l.s:2611   .debug_str:00000000000003b3 .LASF39
     /tmp/ccobaT5l.s:2571   .debug_str:0000000000000295 .LASF40
     /tmp/ccobaT5l.s:2605   .debug_str:0000000000000393 .LASF41
     /tmp/ccobaT5l.s:2499   .debug_str:0000000000000081 .LASF42
     /tmp/ccobaT5l.s:2665   .debug_str:000000000000055f .LASF114
     /tmp/ccobaT5l.s:2621   .debug_str:000000000000040c .LASF43
     /tmp/ccobaT5l.s:2585   .debug_str:0000000000000302 .LASF44
     /tmp/ccobaT5l.s:2493   .debug_str:0000000000000058 .LASF45
     /tmp/ccobaT5l.s:2593   .debug_str:0000000000000344 .LASF46
     /tmp/ccobaT5l.s:2589   .debug_str:000000000000031c .LASF47
     /tmp/ccobaT5l.s:2637   .debug_str:000000000000046c .LASF48
     /tmp/ccobaT5l.s:2675   .debug_str:00000000000005ae .LASF60
     /tmp/ccobaT5l.s:2615   .debug_str:00000000000003d9 .LASF62
     /tmp/ccobaT5l.s:2545   .debug_str:00000000000001cd .LASF115
GAS LISTING /tmp/ccobaT5l.s 			page 17


     /tmp/ccobaT5l.s:2625   .debug_str:0000000000000419 .LASF50
     /tmp/ccobaT5l.s:2583   .debug_str:00000000000002fd .LASF51
     /tmp/ccobaT5l.s:2515   .debug_str:00000000000000ed .LASF52
     /tmp/ccobaT5l.s:2587   .debug_str:0000000000000314 .LASF53
     /tmp/ccobaT5l.s:2635   .debug_str:0000000000000462 .LASF54
     /tmp/ccobaT5l.s:2685   .debug_str:00000000000005ea .LASF55
     /tmp/ccobaT5l.s:2563   .debug_str:0000000000000243 .LASF56
     /tmp/ccobaT5l.s:2567   .debug_str:0000000000000268 .LASF58
     /tmp/ccobaT5l.s:2707   .debug_str:0000000000000737 .LASF116
     /tmp/ccobaT5l.s:2573   .debug_str:00000000000002ac .LASF117
     /tmp/ccobaT5l.s:2631   .debug_str:000000000000044e .LASF57
     /tmp/ccobaT5l.s:2549   .debug_str:00000000000001de .LASF59
     /tmp/ccobaT5l.s:2657   .debug_str:0000000000000525 .LASF61
     /tmp/ccobaT5l.s:2667   .debug_str:0000000000000564 .LASF63
     /tmp/ccobaT5l.s:2681   .debug_str:00000000000005cf .LASF118
     /tmp/ccobaT5l.s:2479   .debug_str:0000000000000000 .LASF64
     /tmp/ccobaT5l.s:2551   .debug_str:00000000000001f1 .LASF65
     /tmp/ccobaT5l.s:2543   .debug_str:00000000000001c7 .LASF66
     /tmp/ccobaT5l.s:2579   .debug_str:00000000000002e0 .LASF67
     /tmp/ccobaT5l.s:2569   .debug_str:0000000000000281 .LASF68
     /tmp/ccobaT5l.s:2717   .debug_str:000000000000078c .LASF69
     /tmp/ccobaT5l.s:2533   .debug_str:000000000000016c .LASF70
     /tmp/ccobaT5l.s:2651   .debug_str:00000000000004ee .LASF71
     /tmp/ccobaT5l.s:2617   .debug_str:00000000000003e9 .LASF72
     /tmp/ccobaT5l.s:2527   .debug_str:0000000000000153 .LASF73
     /tmp/ccobaT5l.s:2649   .debug_str:00000000000004d5 .LASF74
     /tmp/ccobaT5l.s:2541   .debug_str:00000000000001c1 .LASF75
     /tmp/ccobaT5l.s:2715   .debug_str:0000000000000774 .LASF76
     /tmp/ccobaT5l.s:2503   .debug_str:00000000000000a1 .LASF77
     /tmp/ccobaT5l.s:2613   .debug_str:00000000000003bf .LASF78
     /tmp/ccobaT5l.s:2481   .debug_str:0000000000000009 .LASF79
     /tmp/ccobaT5l.s:2509   .debug_str:00000000000000d2 .LASF80
     /tmp/ccobaT5l.s:2555   .debug_str:0000000000000214 .LASF81
     /tmp/ccobaT5l.s:492    .text:00000000000001ac .LFB36
     /tmp/ccobaT5l.s:518    .text:00000000000001d4 .LFE36
     /tmp/ccobaT5l.s:2303   .debug_loc:0000000000000000 .LLST14
     /tmp/ccobaT5l.s:507    .text:00000000000001c4 .LVL24
     /tmp/ccobaT5l.s:2495   .debug_str:000000000000005f .LASF82
     /tmp/ccobaT5l.s:2487   .debug_str:000000000000003f .LASF84
     /tmp/ccobaT5l.s:2677   .debug_str:00000000000005b4 .LASF86
     /tmp/ccobaT5l.s:461    .text:0000000000000184 .LFB35
     /tmp/ccobaT5l.s:486    .text:00000000000001ac .LFE35
     /tmp/ccobaT5l.s:475    .text:000000000000019c .LVL22
     /tmp/ccobaT5l.s:2703   .debug_str:000000000000071c .LASF87
     /tmp/ccobaT5l.s:2523   .debug_str:0000000000000121 .LASF88
     /tmp/ccobaT5l.s:410    .text:0000000000000158 .LFB34
     /tmp/ccobaT5l.s:455    .text:0000000000000184 .LFE34
     /tmp/ccobaT5l.s:2317   .debug_loc:0000000000000039 .LLST12
     /tmp/ccobaT5l.s:2331   .debug_loc:0000000000000072 .LLST13
     /tmp/ccobaT5l.s:2517   .debug_str:00000000000000f3 .LASF89
     /tmp/ccobaT5l.s:2507   .debug_str:00000000000000b9 .LASF90
     /tmp/ccobaT5l.s:359    .text:000000000000012c .LFB33
     /tmp/ccobaT5l.s:404    .text:0000000000000158 .LFE33
     /tmp/ccobaT5l.s:2338   .debug_loc:0000000000000095 .LLST10
     /tmp/ccobaT5l.s:2352   .debug_loc:00000000000000ce .LLST11
     /tmp/ccobaT5l.s:2687   .debug_str:00000000000005f3 .LASF91
     /tmp/ccobaT5l.s:2599   .debug_str:000000000000036a .LASF92
GAS LISTING /tmp/ccobaT5l.s 			page 18


     /tmp/ccobaT5l.s:308    .text:0000000000000100 .LFB32
     /tmp/ccobaT5l.s:353    .text:000000000000012c .LFE32
     /tmp/ccobaT5l.s:2641   .debug_str:000000000000049f .LASF93
     /tmp/ccobaT5l.s:2359   .debug_loc:00000000000000f1 .LLST8
     /tmp/ccobaT5l.s:2373   .debug_loc:000000000000012a .LLST9
     /tmp/ccobaT5l.s:2547   .debug_str:00000000000001d5 .LASF94
     /tmp/ccobaT5l.s:2701   .debug_str:0000000000000701 .LASF95
     /tmp/ccobaT5l.s:252    .text:00000000000000d0 .LFB31
     /tmp/ccobaT5l.s:302    .text:0000000000000100 .LFE31
     /tmp/ccobaT5l.s:2380   .debug_loc:000000000000014d .LLST6
     /tmp/ccobaT5l.s:2719   .debug_str:0000000000000791 .LASF96
     /tmp/ccobaT5l.s:2394   .debug_loc:0000000000000186 .LLST7
     /tmp/ccobaT5l.s:2557   .debug_str:000000000000021d .LASF119
     /tmp/ccobaT5l.s:2659   .debug_str:0000000000000530 .LASF120
     /tmp/ccobaT5l.s:217    .text:00000000000000b0 .LFB30
     /tmp/ccobaT5l.s:246    .text:00000000000000d0 .LFE30
     /tmp/ccobaT5l.s:2491   .debug_str:000000000000004c .LASF97
     /tmp/ccobaT5l.s:2643   .debug_str:00000000000004a6 .LASF98
     /tmp/ccobaT5l.s:172    .text:0000000000000088 .LFB29
     /tmp/ccobaT5l.s:211    .text:00000000000000b0 .LFE29
     /tmp/ccobaT5l.s:2401   .debug_loc:00000000000001a9 .LLST5
     /tmp/ccobaT5l.s:2529   .debug_str:0000000000000159 .LASF99
     /tmp/ccobaT5l.s:2653   .debug_str:00000000000004f5 .LASF100
     /tmp/ccobaT5l.s:111    .text:0000000000000054 .LFB28
     /tmp/ccobaT5l.s:166    .text:0000000000000088 .LFE28
     /tmp/ccobaT5l.s:2408   .debug_loc:00000000000001cc .LLST3
     /tmp/ccobaT5l.s:2661   .debug_str:0000000000000545 .LASF101
     /tmp/ccobaT5l.s:2422   .debug_loc:0000000000000205 .LLST4
     /tmp/ccobaT5l.s:2691   .debug_str:0000000000000610 .LASF102
     /tmp/ccobaT5l.s:2713   .debug_str:0000000000000766 .LASF103
     /tmp/ccobaT5l.s:60     .text:0000000000000028 .LFB27
     /tmp/ccobaT5l.s:105    .text:0000000000000054 .LFE27
     /tmp/ccobaT5l.s:2429   .debug_loc:0000000000000228 .LLST1
     /tmp/ccobaT5l.s:2443   .debug_loc:0000000000000261 .LLST2
     /tmp/ccobaT5l.s:2683   .debug_str:00000000000005e0 .LASF104
     /tmp/ccobaT5l.s:2521   .debug_str:0000000000000113 .LASF105
     /tmp/ccobaT5l.s:10     .text:0000000000000000 .LFB26
     /tmp/ccobaT5l.s:54     .text:0000000000000028 .LFE26
     /tmp/ccobaT5l.s:2623   .debug_str:0000000000000414 .LASF106
     /tmp/ccobaT5l.s:2450   .debug_loc:0000000000000284 .LLST0
     /tmp/ccobaT5l.s:2671   .debug_str:0000000000000591 .LASF107
     /tmp/ccobaT5l.s:2709   .debug_str:0000000000000745 .LASF108
     /tmp/ccobaT5l.s:495    .text:00000000000001ac .LVL23
     /tmp/ccobaT5l.s:413    .text:0000000000000158 .LVL19
     /tmp/ccobaT5l.s:442    .text:0000000000000174 .LVL20
     /tmp/ccobaT5l.s:447    .text:0000000000000178 .LVL21
     /tmp/ccobaT5l.s:362    .text:000000000000012c .LVL16
     /tmp/ccobaT5l.s:391    .text:0000000000000148 .LVL17
     /tmp/ccobaT5l.s:396    .text:000000000000014c .LVL18
     /tmp/ccobaT5l.s:311    .text:0000000000000100 .LVL13
     /tmp/ccobaT5l.s:340    .text:000000000000011c .LVL14
     /tmp/ccobaT5l.s:345    .text:0000000000000120 .LVL15
     /tmp/ccobaT5l.s:255    .text:00000000000000d0 .LVL10
     /tmp/ccobaT5l.s:289    .text:00000000000000f0 .LVL11
     /tmp/ccobaT5l.s:294    .text:00000000000000f4 .LVL12
     /tmp/ccobaT5l.s:198    .text:00000000000000a0 .LVL8
     /tmp/ccobaT5l.s:203    .text:00000000000000a4 .LVL9
GAS LISTING /tmp/ccobaT5l.s 			page 19


     /tmp/ccobaT5l.s:114    .text:0000000000000054 .LVL5
     /tmp/ccobaT5l.s:153    .text:0000000000000078 .LVL6
     /tmp/ccobaT5l.s:158    .text:000000000000007c .LVL7
     /tmp/ccobaT5l.s:63     .text:0000000000000028 .LVL2
     /tmp/ccobaT5l.s:92     .text:0000000000000044 .LVL3
     /tmp/ccobaT5l.s:97     .text:0000000000000048 .LVL4
     /tmp/ccobaT5l.s:14     .text:0000000000000000 .LVL0
     /tmp/ccobaT5l.s:43     .text:000000000000001c .LVL1
     /tmp/ccobaT5l.s:527    .debug_info:0000000000000000 .Ldebug_info0

UNDEFINED SYMBOLS
__getc
__putc
