GAS LISTING /tmp/ccIqp9pP.s 			page 1


   1              		.file	"syscall_c.cpp"
   2              		.option pic
   3              		.option norelax
   4              		.text
   5              	.Ltext0:
   6              		.align	2
   7              		.globl	_Z9mem_allocm
   9              	_Z9mem_allocm:
  10              	.LFB30:
  11              		.file 1 "src/syscall_c.cpp"
   1:src/syscall_c.cpp **** #include "../h/syscall_c.h"
   2:src/syscall_c.cpp **** 
   3:src/syscall_c.cpp **** 
   4:src/syscall_c.cpp **** void* mem_alloc(size_t size){
  12              		.loc 1 4 29
  13              		.cfi_startproc
  14              	.LVL0:
  15 0000 130101FF 		addi	sp,sp,-16
  16              		.cfi_def_cfa_offset 16
  17 0004 23348100 		sd	s0,8(sp)
  18              		.cfi_offset 8, -8
  19 0008 13040101 		addi	s0,sp,16
  20              		.cfi_def_cfa 8, 0
   5:src/syscall_c.cpp ****     __asm__ volatile("mv a1, %0"::"r"(size));
  21              		.loc 1 5 5
  22              		.loc 1 5 45 is_stmt 0
  23              	#APP
  24              	# 5 "src/syscall_c.cpp" 1
   6              	    __asm__ volatile("li a0, 0x01");
  25              		mv a1, a0
  26              	# 0 "" 2
  27              		.loc 1 6 5 is_stmt 1
  28              		.loc 1 6 36 is_stmt 0
  29              	# 6 "src/syscall_c.cpp" 1
   7              	    __asm__ volatile("ecall");
  30              		li a0, 0x01
  31              	# 0 "" 2
  32              		.loc 1 7 5 is_stmt 1
  33              		.loc 1 7 30 is_stmt 0
  34              	# 7 "src/syscall_c.cpp" 1
   8              	    void* a0;
  35              		ecall
  36              	# 0 "" 2
  37              		.loc 1 8 5 is_stmt 1
   9:src/syscall_c.cpp ****     __asm__ volatile ("mv %[a0], a0" : [a0] "=r"(a0));
  38              		.loc 1 9 5
  39              		.loc 1 9 54 is_stmt 0
  40              	# 9 "src/syscall_c.cpp" 1
  10              	    return a0;
  41              		mv a0, a0
  42              	# 0 "" 2
  43              	.LVL1:
  44              		.loc 1 10 5 is_stmt 1
  11:src/syscall_c.cpp **** }
  45              		.loc 1 11 1 is_stmt 0
  46              	#NO_APP
  47 001c 03348100 		ld	s0,8(sp)
GAS LISTING /tmp/ccIqp9pP.s 			page 2


  48              		.cfi_restore 8
  49              		.cfi_def_cfa 2, 16
  50 0020 13010101 		addi	sp,sp,16
  51              		.cfi_def_cfa_offset 0
  52 0024 67800000 		jr	ra
  53              		.cfi_endproc
  54              	.LFE30:
  56              		.align	2
  57              		.globl	_Z8mem_freePv
  59              	_Z8mem_freePv:
  60              	.LFB31:
  12:src/syscall_c.cpp **** 
  13:src/syscall_c.cpp **** int mem_free (void* r){
  61              		.loc 1 13 23 is_stmt 1
  62              		.cfi_startproc
  63              	.LVL2:
  64 0028 130101FF 		addi	sp,sp,-16
  65              		.cfi_def_cfa_offset 16
  66 002c 23348100 		sd	s0,8(sp)
  67              		.cfi_offset 8, -8
  68 0030 13040101 		addi	s0,sp,16
  69              		.cfi_def_cfa 8, 0
  14:src/syscall_c.cpp ****     __asm__ volatile("mv a2, %0"::"r"(r));
  70              		.loc 1 14 5
  71              		.loc 1 14 42 is_stmt 0
  72              	#APP
  73              	# 14 "src/syscall_c.cpp" 1
  15              	    __asm__ volatile("li a0, 0x02");
  74              		mv a2, a0
  75              	# 0 "" 2
  76              		.loc 1 15 5 is_stmt 1
  77              		.loc 1 15 36 is_stmt 0
  78              	# 15 "src/syscall_c.cpp" 1
  16              	    __asm__ volatile("ecall");
  79              		li a0, 0x02
  80              	# 0 "" 2
  81              		.loc 1 16 5 is_stmt 1
  82              		.loc 1 16 30 is_stmt 0
  83              	# 16 "src/syscall_c.cpp" 1
  17              	
  18:src/syscall_c.cpp ****     uint64 a0;
  84              		ecall
  85              	# 0 "" 2
  86              		.loc 1 18 5 is_stmt 1
  19:src/syscall_c.cpp ****     __asm__ volatile ("mv %[a0], a0" : [a0] "=r"(a0));
  87              		.loc 1 19 5
  88              		.loc 1 19 54 is_stmt 0
  89              	# 19 "src/syscall_c.cpp" 1
  20              	    return a0;
  90              		mv a0, a0
  91              	# 0 "" 2
  92              	.LVL3:
  93              		.loc 1 20 5 is_stmt 1
  21:src/syscall_c.cpp **** }
  94              		.loc 1 21 1 is_stmt 0
  95              	#NO_APP
  96 0044 1B050500 		sext.w	a0,a0
GAS LISTING /tmp/ccIqp9pP.s 			page 3


  97              	.LVL4:
  98 0048 03348100 		ld	s0,8(sp)
  99              		.cfi_restore 8
 100              		.cfi_def_cfa 2, 16
 101 004c 13010101 		addi	sp,sp,16
 102              		.cfi_def_cfa_offset 0
 103 0050 67800000 		jr	ra
 104              		.cfi_endproc
 105              	.LFE31:
 107              		.align	2
 108              		.globl	_Z13thread_createPP3TCBPFvPvES2_
 110              	_Z13thread_createPP3TCBPFvPvES2_:
 111              	.LFB32:
  22:src/syscall_c.cpp **** 
  23:src/syscall_c.cpp **** int thread_create (thread_t* handle, void(*start_routine)(void*), void* arg){
 112              		.loc 1 23 77 is_stmt 1
 113              		.cfi_startproc
 114              	.LVL5:
 115 0054 130101FF 		addi	sp,sp,-16
 116              		.cfi_def_cfa_offset 16
 117 0058 23348100 		sd	s0,8(sp)
 118              		.cfi_offset 8, -8
 119 005c 13040101 		addi	s0,sp,16
 120              		.cfi_def_cfa 8, 0
  24:src/syscall_c.cpp ****     __asm__ volatile("mv a7, %0"::"r"(arg));
 121              		.loc 1 24 5
 122              		.loc 1 24 44 is_stmt 0
 123              	#APP
 124              	# 24 "src/syscall_c.cpp" 1
  25              	    __asm__ volatile("mv a2, %0"::"r"(start_routine));
 125              		mv a7, a2
 126              	# 0 "" 2
 127              		.loc 1 25 5 is_stmt 1
 128              		.loc 1 25 54 is_stmt 0
 129              	# 25 "src/syscall_c.cpp" 1
  26              	    __asm__ volatile("mv a1, %0"::"r"(handle));
 130              		mv a2, a1
 131              	# 0 "" 2
 132              		.loc 1 26 5 is_stmt 1
 133              		.loc 1 26 47 is_stmt 0
 134              	# 26 "src/syscall_c.cpp" 1
  27              	    __asm__ volatile("li a0, 0x11");
 135              		mv a1, a0
 136              	# 0 "" 2
 137              		.loc 1 27 5 is_stmt 1
 138              		.loc 1 27 36 is_stmt 0
 139              	# 27 "src/syscall_c.cpp" 1
  28              	    __asm__ volatile("ecall");
 140              		li a0, 0x11
 141              	# 0 "" 2
 142              		.loc 1 28 5 is_stmt 1
 143              		.loc 1 28 30 is_stmt 0
 144              	# 28 "src/syscall_c.cpp" 1
  29              	    uint64 a0;
 145              		ecall
 146              	# 0 "" 2
 147              		.loc 1 29 5 is_stmt 1
GAS LISTING /tmp/ccIqp9pP.s 			page 4


  30:src/syscall_c.cpp ****     __asm__ volatile ("mv %[a0], a0" : [a0] "=r"(a0));
 148              		.loc 1 30 5
 149              		.loc 1 30 54 is_stmt 0
 150              	# 30 "src/syscall_c.cpp" 1
  31              	    return a0;
 151              		mv a0, a0
 152              	# 0 "" 2
 153              	.LVL6:
 154              		.loc 1 31 5 is_stmt 1
  32:src/syscall_c.cpp **** }
 155              		.loc 1 32 1 is_stmt 0
 156              	#NO_APP
 157 0078 1B050500 		sext.w	a0,a0
 158              	.LVL7:
 159 007c 03348100 		ld	s0,8(sp)
 160              		.cfi_restore 8
 161              		.cfi_def_cfa 2, 16
 162 0080 13010101 		addi	sp,sp,16
 163              		.cfi_def_cfa_offset 0
 164 0084 67800000 		jr	ra
 165              		.cfi_endproc
 166              	.LFE32:
 168              		.align	2
 169              		.globl	_Z11thread_exitv
 171              	_Z11thread_exitv:
 172              	.LFB33:
  33:src/syscall_c.cpp **** 
  34:src/syscall_c.cpp **** int thread_exit(){
 173              		.loc 1 34 18 is_stmt 1
 174              		.cfi_startproc
 175 0088 130101FF 		addi	sp,sp,-16
 176              		.cfi_def_cfa_offset 16
 177 008c 23348100 		sd	s0,8(sp)
 178              		.cfi_offset 8, -8
 179 0090 13040101 		addi	s0,sp,16
 180              		.cfi_def_cfa 8, 0
  35:src/syscall_c.cpp ****     __asm__ volatile("li a0, 0x12");
 181              		.loc 1 35 5
 182              		.loc 1 35 36 is_stmt 0
 183              	#APP
 184              	# 35 "src/syscall_c.cpp" 1
  36              	    __asm__ volatile("ecall");
 185              		li a0, 0x12
 186              	# 0 "" 2
 187              		.loc 1 36 5 is_stmt 1
 188              		.loc 1 36 30 is_stmt 0
 189              	# 36 "src/syscall_c.cpp" 1
  37              	
  38:src/syscall_c.cpp ****     uint64 a0;
 190              		ecall
 191              	# 0 "" 2
 192              		.loc 1 38 5 is_stmt 1
  39:src/syscall_c.cpp ****     __asm__ volatile ("mv %[a0], a0" : [a0] "=r"(a0));
 193              		.loc 1 39 5
 194              		.loc 1 39 54 is_stmt 0
 195              	# 39 "src/syscall_c.cpp" 1
  40              	    return a0;
GAS LISTING /tmp/ccIqp9pP.s 			page 5


 196              		mv a0, a0
 197              	# 0 "" 2
 198              	.LVL8:
 199              		.loc 1 40 5 is_stmt 1
  41:src/syscall_c.cpp **** }
 200              		.loc 1 41 1 is_stmt 0
 201              	#NO_APP
 202 00a0 1B050500 		sext.w	a0,a0
 203              	.LVL9:
 204 00a4 03348100 		ld	s0,8(sp)
 205              		.cfi_restore 8
 206              		.cfi_def_cfa 2, 16
 207 00a8 13010101 		addi	sp,sp,16
 208              		.cfi_def_cfa_offset 0
 209 00ac 67800000 		jr	ra
 210              		.cfi_endproc
 211              	.LFE33:
 213              		.align	2
 214              		.globl	_Z15thread_dispatchv
 216              	_Z15thread_dispatchv:
 217              	.LFB34:
  42:src/syscall_c.cpp **** 
  43:src/syscall_c.cpp **** void thread_dispatch(){
 218              		.loc 1 43 23 is_stmt 1
 219              		.cfi_startproc
 220 00b0 130101FF 		addi	sp,sp,-16
 221              		.cfi_def_cfa_offset 16
 222 00b4 23348100 		sd	s0,8(sp)
 223              		.cfi_offset 8, -8
 224 00b8 13040101 		addi	s0,sp,16
 225              		.cfi_def_cfa 8, 0
  44:src/syscall_c.cpp ****     __asm__ volatile("li a0, 0x13");
 226              		.loc 1 44 5
 227              		.loc 1 44 36 is_stmt 0
 228              	#APP
 229              	# 44 "src/syscall_c.cpp" 1
  45              	     __asm__ volatile("ecall");
 230              		li a0, 0x13
 231              	# 0 "" 2
 232              		.loc 1 45 6 is_stmt 1
 233              		.loc 1 45 31 is_stmt 0
 234              	# 45 "src/syscall_c.cpp" 1
  46              	
  47:src/syscall_c.cpp **** }
 235              		ecall
 236              	# 0 "" 2
 237              		.loc 1 47 1
 238              	#NO_APP
 239 00c4 03348100 		ld	s0,8(sp)
 240              		.cfi_restore 8
 241              		.cfi_def_cfa 2, 16
 242 00c8 13010101 		addi	sp,sp,16
 243              		.cfi_def_cfa_offset 0
 244 00cc 67800000 		jr	ra
 245              		.cfi_endproc
 246              	.LFE34:
 248              		.align	2
GAS LISTING /tmp/ccIqp9pP.s 			page 6


 249              		.globl	_Z12thread_startPP3TCB
 251              	_Z12thread_startPP3TCB:
 252              	.LFB35:
  48:src/syscall_c.cpp **** 
  49:src/syscall_c.cpp **** int thread_start(thread_t* handle){
 253              		.loc 1 49 35 is_stmt 1
 254              		.cfi_startproc
 255              	.LVL10:
 256 00d0 130101FF 		addi	sp,sp,-16
 257              		.cfi_def_cfa_offset 16
 258 00d4 23348100 		sd	s0,8(sp)
 259              		.cfi_offset 8, -8
 260 00d8 13040101 		addi	s0,sp,16
 261              		.cfi_def_cfa 8, 0
  50:src/syscall_c.cpp ****     __asm__ volatile("mv a1, %0"::"r"(handle));
 262              		.loc 1 50 5
 263              		.loc 1 50 47 is_stmt 0
 264              	#APP
 265              	# 50 "src/syscall_c.cpp" 1
  51              	    __asm__ volatile("li a0, 0x14");
 266              		mv a1, a0
 267              	# 0 "" 2
 268              		.loc 1 51 5 is_stmt 1
 269              		.loc 1 51 36 is_stmt 0
 270              	# 51 "src/syscall_c.cpp" 1
  52              	    __asm__ volatile("ecall");
 271              		li a0, 0x14
 272              	# 0 "" 2
 273              		.loc 1 52 5 is_stmt 1
 274              		.loc 1 52 30 is_stmt 0
 275              	# 52 "src/syscall_c.cpp" 1
  53              	    return 0;
 276              		ecall
 277              	# 0 "" 2
 278              		.loc 1 53 5 is_stmt 1
  54:src/syscall_c.cpp **** }
 279              		.loc 1 54 1 is_stmt 0
 280              	#NO_APP
 281 00e8 13050000 		li	a0,0
 282              	.LVL11:
 283 00ec 03348100 		ld	s0,8(sp)
 284              		.cfi_restore 8
 285              		.cfi_def_cfa 2, 16
 286 00f0 13010101 		addi	sp,sp,16
 287              		.cfi_def_cfa_offset 0
 288 00f4 67800000 		jr	ra
 289              		.cfi_endproc
 290              	.LFE35:
 292              		.align	2
 293              		.globl	_Z14thread_create2PP3TCBPFvPvES2_
 295              	_Z14thread_create2PP3TCBPFvPvES2_:
 296              	.LFB36:
  55:src/syscall_c.cpp **** 
  56:src/syscall_c.cpp **** int thread_create2 (thread_t* handle, void(*start_routine)(void*), void* arg){
 297              		.loc 1 56 78 is_stmt 1
 298              		.cfi_startproc
 299              	.LVL12:
GAS LISTING /tmp/ccIqp9pP.s 			page 7


 300 00f8 130101FF 		addi	sp,sp,-16
 301              		.cfi_def_cfa_offset 16
 302 00fc 23348100 		sd	s0,8(sp)
 303              		.cfi_offset 8, -8
 304 0100 13040101 		addi	s0,sp,16
 305              		.cfi_def_cfa 8, 0
  57:src/syscall_c.cpp ****     __asm__ volatile("mv a7, %0"::"r"(arg));
 306              		.loc 1 57 5
 307              		.loc 1 57 44 is_stmt 0
 308              	#APP
 309              	# 57 "src/syscall_c.cpp" 1
  58              	    __asm__ volatile("mv a2, %0"::"r"(start_routine));
 310              		mv a7, a2
 311              	# 0 "" 2
 312              		.loc 1 58 5 is_stmt 1
 313              		.loc 1 58 54 is_stmt 0
 314              	# 58 "src/syscall_c.cpp" 1
  59              	    __asm__ volatile("mv a1, %0"::"r"(handle));
 315              		mv a2, a1
 316              	# 0 "" 2
 317              		.loc 1 59 5 is_stmt 1
 318              		.loc 1 59 47 is_stmt 0
 319              	# 59 "src/syscall_c.cpp" 1
  60              	    __asm__ volatile("li a0, 0x15");
 320              		mv a1, a0
 321              	# 0 "" 2
 322              		.loc 1 60 5 is_stmt 1
 323              		.loc 1 60 36 is_stmt 0
 324              	# 60 "src/syscall_c.cpp" 1
  61              	    __asm__ volatile("ecall");
 325              		li a0, 0x15
 326              	# 0 "" 2
 327              		.loc 1 61 5 is_stmt 1
 328              		.loc 1 61 30 is_stmt 0
 329              	# 61 "src/syscall_c.cpp" 1
  62              	    uint64 a0;
 330              		ecall
 331              	# 0 "" 2
 332              		.loc 1 62 5 is_stmt 1
  63:src/syscall_c.cpp ****     __asm__ volatile ("mv %[a0], a0" : [a0] "=r"(a0));
 333              		.loc 1 63 5
 334              		.loc 1 63 54 is_stmt 0
 335              	# 63 "src/syscall_c.cpp" 1
  64              	    return a0;
 336              		mv a0, a0
 337              	# 0 "" 2
 338              	.LVL13:
 339              		.loc 1 64 5 is_stmt 1
  65:src/syscall_c.cpp **** }
 340              		.loc 1 65 1 is_stmt 0
 341              	#NO_APP
 342 011c 1B050500 		sext.w	a0,a0
 343              	.LVL14:
 344 0120 03348100 		ld	s0,8(sp)
 345              		.cfi_restore 8
 346              		.cfi_def_cfa 2, 16
 347 0124 13010101 		addi	sp,sp,16
GAS LISTING /tmp/ccIqp9pP.s 			page 8


 348              		.cfi_def_cfa_offset 0
 349 0128 67800000 		jr	ra
 350              		.cfi_endproc
 351              	.LFE36:
 353              		.align	2
 354              		.globl	_Z8sem_openPP10Ksemaphorej
 356              	_Z8sem_openPP10Ksemaphorej:
 357              	.LFB37:
  66:src/syscall_c.cpp **** 
  67:src/syscall_c.cpp **** 
  68:src/syscall_c.cpp **** int sem_open (sem_t* handle,unsigned init){
 358              		.loc 1 68 43 is_stmt 1
 359              		.cfi_startproc
 360              	.LVL15:
 361 012c 130101FF 		addi	sp,sp,-16
 362              		.cfi_def_cfa_offset 16
 363 0130 23348100 		sd	s0,8(sp)
 364              		.cfi_offset 8, -8
 365 0134 13040101 		addi	s0,sp,16
 366              		.cfi_def_cfa 8, 0
  69:src/syscall_c.cpp ****     __asm__ volatile("mv a2, %0"::"r"(init));
 367              		.loc 1 69 5
 368              		.loc 1 69 45 is_stmt 0
 369              	#APP
 370              	# 69 "src/syscall_c.cpp" 1
  70              	    __asm__ volatile("mv a1, %0"::"r"(handle));
 371              		mv a2, a1
 372              	# 0 "" 2
 373              		.loc 1 70 5 is_stmt 1
 374              		.loc 1 70 47 is_stmt 0
 375              	# 70 "src/syscall_c.cpp" 1
  71              	    __asm__ volatile("li a0, 0x21");
 376              		mv a1, a0
 377              	# 0 "" 2
 378              		.loc 1 71 5 is_stmt 1
 379              		.loc 1 71 36 is_stmt 0
 380              	# 71 "src/syscall_c.cpp" 1
  72              	    __asm__ volatile("ecall");
 381              		li a0, 0x21
 382              	# 0 "" 2
 383              		.loc 1 72 5 is_stmt 1
 384              		.loc 1 72 30 is_stmt 0
 385              	# 72 "src/syscall_c.cpp" 1
  73              	    uint64 a0;
 386              		ecall
 387              	# 0 "" 2
 388              		.loc 1 73 5 is_stmt 1
  74:src/syscall_c.cpp ****     __asm__ volatile ("mv %[a0], a0" : [a0] "=r"(a0));
 389              		.loc 1 74 5
 390              		.loc 1 74 54 is_stmt 0
 391              	# 74 "src/syscall_c.cpp" 1
  75              	    return a0;
 392              		mv a0, a0
 393              	# 0 "" 2
 394              	.LVL16:
 395              		.loc 1 75 5 is_stmt 1
  76:src/syscall_c.cpp **** 
GAS LISTING /tmp/ccIqp9pP.s 			page 9


  77:src/syscall_c.cpp **** }
 396              		.loc 1 77 1 is_stmt 0
 397              	#NO_APP
 398 014c 1B050500 		sext.w	a0,a0
 399              	.LVL17:
 400 0150 03348100 		ld	s0,8(sp)
 401              		.cfi_restore 8
 402              		.cfi_def_cfa 2, 16
 403 0154 13010101 		addi	sp,sp,16
 404              		.cfi_def_cfa_offset 0
 405 0158 67800000 		jr	ra
 406              		.cfi_endproc
 407              	.LFE37:
 409              		.align	2
 410              		.globl	_Z9sem_closeP10Ksemaphore
 412              	_Z9sem_closeP10Ksemaphore:
 413              	.LFB38:
  78:src/syscall_c.cpp **** 
  79:src/syscall_c.cpp **** int sem_close (sem_t handle){
 414              		.loc 1 79 29 is_stmt 1
 415              		.cfi_startproc
 416              	.LVL18:
 417 015c 130101FE 		addi	sp,sp,-32
 418              		.cfi_def_cfa_offset 32
 419 0160 233C1100 		sd	ra,24(sp)
 420 0164 23388100 		sd	s0,16(sp)
 421 0168 23349100 		sd	s1,8(sp)
 422              		.cfi_offset 1, -8
 423              		.cfi_offset 8, -16
 424              		.cfi_offset 9, -24
 425 016c 13040102 		addi	s0,sp,32
 426              		.cfi_def_cfa 8, 0
 427 0170 93040500 		mv	s1,a0
  80:src/syscall_c.cpp ****     __putc('c');
 428              		.loc 1 80 5
 429              		.loc 1 80 11 is_stmt 0
 430 0174 13053006 		li	a0,99
 431              	.LVL19:
 432 0178 97000000 		call	__putc@plt
 432      E7800000 
 433              	.LVL20:
  81:src/syscall_c.cpp ****     __asm__ volatile("mv a1, %0"::"r"(handle));
 434              		.loc 1 81 5 is_stmt 1
 435              		.loc 1 81 47 is_stmt 0
 436              	#APP
 437              	# 81 "src/syscall_c.cpp" 1
  82              	    __asm__ volatile("li a0, 0x22");
 438              		mv a1, s1
 439              	# 0 "" 2
 440              		.loc 1 82 5 is_stmt 1
 441              		.loc 1 82 36 is_stmt 0
 442              	# 82 "src/syscall_c.cpp" 1
  83              	    __asm__ volatile("ecall");
 443              		li a0, 0x22
 444              	# 0 "" 2
 445              		.loc 1 83 5 is_stmt 1
 446              		.loc 1 83 30 is_stmt 0
GAS LISTING /tmp/ccIqp9pP.s 			page 10


 447              	# 83 "src/syscall_c.cpp" 1
  84              	    uint64 a0;
 448              		ecall
 449              	# 0 "" 2
 450              		.loc 1 84 5 is_stmt 1
  85:src/syscall_c.cpp ****     __asm__ volatile ("mv %[a0], a0" : [a0] "=r"(a0));
 451              		.loc 1 85 5
 452              		.loc 1 85 54 is_stmt 0
 453              	# 85 "src/syscall_c.cpp" 1
  86              	
 454              		mv a0, a0
 455              	# 0 "" 2
 456              	.LVL21:
  87:src/syscall_c.cpp ****     return a0;
 457              		.loc 1 87 5 is_stmt 1
  88:src/syscall_c.cpp **** }
 458              		.loc 1 88 1 is_stmt 0
 459              	#NO_APP
 460 0190 1B050500 		sext.w	a0,a0
 461              	.LVL22:
 462 0194 83308101 		ld	ra,24(sp)
 463              		.cfi_restore 1
 464 0198 03340101 		ld	s0,16(sp)
 465              		.cfi_restore 8
 466              		.cfi_def_cfa 2, 32
 467 019c 83348100 		ld	s1,8(sp)
 468              		.cfi_restore 9
 469              	.LVL23:
 470 01a0 13010102 		addi	sp,sp,32
 471              		.cfi_def_cfa_offset 0
 472 01a4 67800000 		jr	ra
 473              		.cfi_endproc
 474              	.LFE38:
 476              		.align	2
 477              		.globl	_Z8sem_waitP10Ksemaphore
 479              	_Z8sem_waitP10Ksemaphore:
 480              	.LFB39:
  89:src/syscall_c.cpp **** 
  90:src/syscall_c.cpp **** int sem_wait (sem_t id){
 481              		.loc 1 90 24 is_stmt 1
 482              		.cfi_startproc
 483              	.LVL24:
 484 01a8 130101FF 		addi	sp,sp,-16
 485              		.cfi_def_cfa_offset 16
 486 01ac 23348100 		sd	s0,8(sp)
 487              		.cfi_offset 8, -8
 488 01b0 13040101 		addi	s0,sp,16
 489              		.cfi_def_cfa 8, 0
  91:src/syscall_c.cpp ****     __asm__ volatile("mv a1, %0"::"r"(id));
 490              		.loc 1 91 5
 491              		.loc 1 91 43 is_stmt 0
 492              	#APP
 493              	# 91 "src/syscall_c.cpp" 1
  92              	    __asm__ volatile("li a0, 0x23");
 494              		mv a1, a0
 495              	# 0 "" 2
 496              		.loc 1 92 5 is_stmt 1
GAS LISTING /tmp/ccIqp9pP.s 			page 11


 497              		.loc 1 92 36 is_stmt 0
 498              	# 92 "src/syscall_c.cpp" 1
  93              	    __asm__ volatile("ecall");
 499              		li a0, 0x23
 500              	# 0 "" 2
 501              		.loc 1 93 5 is_stmt 1
 502              		.loc 1 93 30 is_stmt 0
 503              	# 93 "src/syscall_c.cpp" 1
  94              	    uint64 a0;
 504              		ecall
 505              	# 0 "" 2
 506              		.loc 1 94 5 is_stmt 1
  95:src/syscall_c.cpp ****     __asm__ volatile ("mv %[a0], a0" : [a0] "=r"(a0));
 507              		.loc 1 95 5
 508              		.loc 1 95 54 is_stmt 0
 509              	# 95 "src/syscall_c.cpp" 1
  96              	
 510              		mv a0, a0
 511              	# 0 "" 2
 512              	.LVL25:
  97:src/syscall_c.cpp ****     return a0;
 513              		.loc 1 97 5 is_stmt 1
  98:src/syscall_c.cpp **** 
  99:src/syscall_c.cpp **** }
 514              		.loc 1 99 1 is_stmt 0
 515              	#NO_APP
 516 01c4 1B050500 		sext.w	a0,a0
 517              	.LVL26:
 518 01c8 03348100 		ld	s0,8(sp)
 519              		.cfi_restore 8
 520              		.cfi_def_cfa 2, 16
 521 01cc 13010101 		addi	sp,sp,16
 522              		.cfi_def_cfa_offset 0
 523 01d0 67800000 		jr	ra
 524              		.cfi_endproc
 525              	.LFE39:
 527              		.align	2
 528              		.globl	_Z10sem_signalP10Ksemaphore
 530              	_Z10sem_signalP10Ksemaphore:
 531              	.LFB40:
 100:src/syscall_c.cpp **** 
 101:src/syscall_c.cpp **** int sem_signal(sem_t id){
 532              		.loc 1 101 25 is_stmt 1
 533              		.cfi_startproc
 534              	.LVL27:
 535 01d4 130101FF 		addi	sp,sp,-16
 536              		.cfi_def_cfa_offset 16
 537 01d8 23348100 		sd	s0,8(sp)
 538              		.cfi_offset 8, -8
 539 01dc 13040101 		addi	s0,sp,16
 540              		.cfi_def_cfa 8, 0
 102:src/syscall_c.cpp ****     __asm__ volatile("mv a1, %0"::"r"(id));
 541              		.loc 1 102 5
 542              		.loc 1 102 43 is_stmt 0
 543              	#APP
 544              	# 102 "src/syscall_c.cpp" 1
 103              	    __asm__ volatile("li a0, 0x24");
GAS LISTING /tmp/ccIqp9pP.s 			page 12


 545              		mv a1, a0
 546              	# 0 "" 2
 547              		.loc 1 103 5 is_stmt 1
 548              		.loc 1 103 36 is_stmt 0
 549              	# 103 "src/syscall_c.cpp" 1
 104              	    __asm__ volatile("ecall");
 550              		li a0, 0x24
 551              	# 0 "" 2
 552              		.loc 1 104 5 is_stmt 1
 553              		.loc 1 104 30 is_stmt 0
 554              	# 104 "src/syscall_c.cpp" 1
 105              	    uint64 a0;
 555              		ecall
 556              	# 0 "" 2
 557              		.loc 1 105 5 is_stmt 1
 106:src/syscall_c.cpp ****     __asm__ volatile ("mv %[a0], a0" : [a0] "=r"(a0));
 558              		.loc 1 106 5
 559              		.loc 1 106 54 is_stmt 0
 560              	# 106 "src/syscall_c.cpp" 1
 107              	
 561              		mv a0, a0
 562              	# 0 "" 2
 563              	.LVL28:
 108:src/syscall_c.cpp ****     return a0;
 564              		.loc 1 108 5 is_stmt 1
 109:src/syscall_c.cpp **** }
 565              		.loc 1 109 1 is_stmt 0
 566              	#NO_APP
 567 01f0 1B050500 		sext.w	a0,a0
 568              	.LVL29:
 569 01f4 03348100 		ld	s0,8(sp)
 570              		.cfi_restore 8
 571              		.cfi_def_cfa 2, 16
 572 01f8 13010101 		addi	sp,sp,16
 573              		.cfi_def_cfa_offset 0
 574 01fc 67800000 		jr	ra
 575              		.cfi_endproc
 576              	.LFE40:
 578              		.align	2
 579              		.globl	_Z4getcv
 581              	_Z4getcv:
 582              	.LFB41:
 110:src/syscall_c.cpp **** 
 111:src/syscall_c.cpp **** char getc(){
 583              		.loc 1 111 12 is_stmt 1
 584              		.cfi_startproc
 585 0200 130101FF 		addi	sp,sp,-16
 586              		.cfi_def_cfa_offset 16
 587 0204 23341100 		sd	ra,8(sp)
 588 0208 23308100 		sd	s0,0(sp)
 589              		.cfi_offset 1, -8
 590              		.cfi_offset 8, -16
 591 020c 13040101 		addi	s0,sp,16
 592              		.cfi_def_cfa 8, 0
 112:src/syscall_c.cpp ****     return __getc();
 593              		.loc 1 112 5
 594              		.loc 1 112 18 is_stmt 0
GAS LISTING /tmp/ccIqp9pP.s 			page 13


 595 0210 97000000 		call	__getc@plt
 595      E7800000 
 596              	.LVL30:
 113:src/syscall_c.cpp **** }
 597              		.loc 1 113 1
 598 0218 83308100 		ld	ra,8(sp)
 599              		.cfi_restore 1
 600 021c 03340100 		ld	s0,0(sp)
 601              		.cfi_restore 8
 602              		.cfi_def_cfa 2, 16
 603 0220 13010101 		addi	sp,sp,16
 604              		.cfi_def_cfa_offset 0
 605 0224 67800000 		jr	ra
 606              		.cfi_endproc
 607              	.LFE41:
 609              		.align	2
 610              		.globl	_Z4putcc
 612              	_Z4putcc:
 613              	.LFB42:
 114:src/syscall_c.cpp **** void putc(char c){
 614              		.loc 1 114 18 is_stmt 1
 615              		.cfi_startproc
 616              	.LVL31:
 617 0228 130101FF 		addi	sp,sp,-16
 618              		.cfi_def_cfa_offset 16
 619 022c 23341100 		sd	ra,8(sp)
 620 0230 23308100 		sd	s0,0(sp)
 621              		.cfi_offset 1, -8
 622              		.cfi_offset 8, -16
 623 0234 13040101 		addi	s0,sp,16
 624              		.cfi_def_cfa 8, 0
 115:src/syscall_c.cpp ****     __putc(c);
 625              		.loc 1 115 5
 626              		.loc 1 115 11 is_stmt 0
 627 0238 97000000 		call	__putc@plt
 627      E7800000 
 628              	.LVL32:
 116:src/syscall_c.cpp **** }
 629              		.loc 1 116 1
 630 0240 83308100 		ld	ra,8(sp)
 631              		.cfi_restore 1
 632 0244 03340100 		ld	s0,0(sp)
 633              		.cfi_restore 8
 634              		.cfi_def_cfa 2, 16
 635 0248 13010101 		addi	sp,sp,16
 636              		.cfi_def_cfa_offset 0
 637 024c 67800000 		jr	ra
 638              		.cfi_endproc
 639              	.LFE42:
 641              	.Letext0:
 642              		.file 2 "src/../h/../lib/hw.h"
 643              		.file 3 "src/../h/list.hpp"
 644              		.file 4 "src/../h/TCB.hpp"
 645              		.file 5 "src/../h/Ksemaphore.hpp"
 646              		.file 6 "src/../h/../lib/console.h"
GAS LISTING /tmp/ccIqp9pP.s 			page 14

