GAS LISTING /tmp/cc4YJ2eV.s 			page 1


   1              		.file	"syscall_cpp.cpp"
   2              		.option pic
   3              		.option norelax
   4              		.text
   5              	.Ltext0:
   6              		.section	.text._ZN6Thread3runEv,"axG",@progbits,_ZN6Thread3runEv,comdat
   7              		.align	2
   8              		.weak	_ZN6Thread3runEv
  10              	_ZN6Thread3runEv:
  11              	.LFB30:
  12              		.file 1 "src/../h/syscall_cpp.hpp"
   1:src/../h/syscall_cpp.hpp **** #ifndef _syscall_cpp
   2:src/../h/syscall_cpp.hpp **** #define _syscall_cpp
   3:src/../h/syscall_cpp.hpp **** #include "../lib/console.h"
   4:src/../h/syscall_cpp.hpp **** #include "syscall_c.h"
   5:src/../h/syscall_cpp.hpp **** 
   6:src/../h/syscall_cpp.hpp **** 
   7:src/../h/syscall_cpp.hpp **** void* operator new (size_t n);
   8:src/../h/syscall_cpp.hpp **** void operator delete (void* p);
   9:src/../h/syscall_cpp.hpp **** 
  10:src/../h/syscall_cpp.hpp **** class Thread {
  11:src/../h/syscall_cpp.hpp ****     using Body = void (*)(void*);
  12:src/../h/syscall_cpp.hpp **** public:
  13:src/../h/syscall_cpp.hpp ****     Thread(void (*body)(void*), void* arg);
  14:src/../h/syscall_cpp.hpp **** 
  15:src/../h/syscall_cpp.hpp ****     virtual ~Thread ();
  16:src/../h/syscall_cpp.hpp ****     int start ();
  17:src/../h/syscall_cpp.hpp ****     static void dispatch ();
  18:src/../h/syscall_cpp.hpp ****     static int sleep (time_t);
  19:src/../h/syscall_cpp.hpp **** 
  20:src/../h/syscall_cpp.hpp **** protected:
  21:src/../h/syscall_cpp.hpp ****     Thread ();
  22:src/../h/syscall_cpp.hpp ****     virtual void run (){}
  13              		.loc 1 22 18
  14              		.cfi_startproc
  15              	.LVL0:
  16 0000 130101FF 		addi	sp,sp,-16
  17              		.cfi_def_cfa_offset 16
  18 0004 23348100 		sd	s0,8(sp)
  19              		.cfi_offset 8, -8
  20 0008 13040101 		addi	s0,sp,16
  21              		.cfi_def_cfa 8, 0
  22              		.loc 1 22 25 is_stmt 0
  23 000c 03348100 		ld	s0,8(sp)
  24              		.cfi_restore 8
  25              		.cfi_def_cfa 2, 16
  26 0010 13010101 		addi	sp,sp,16
  27              		.cfi_def_cfa_offset 0
  28 0014 67800000 		jr	ra
  29              		.cfi_endproc
  30              	.LFE30:
  32              		.section	.text._ZN6Thread9myWrapperEPv,"axG",@progbits,_ZN6Thread9myWrapperEPv,comdat
  33              		.align	2
  34              		.weak	_ZN6Thread9myWrapperEPv
  36              	_ZN6Thread9myWrapperEPv:
  37              	.LFB31:
  23:src/../h/syscall_cpp.hpp **** private:
GAS LISTING /tmp/cc4YJ2eV.s 			page 2


  24:src/../h/syscall_cpp.hpp ****     thread_t myHandle;
  25:src/../h/syscall_cpp.hpp ****     static void myWrapper(void* ptr)
  38              		.loc 1 25 17 is_stmt 1
  39              		.cfi_startproc
  40              	.LVL1:
  41 0000 130101FF 		addi	sp,sp,-16
  42              		.cfi_def_cfa_offset 16
  43 0004 23341100 		sd	ra,8(sp)
  44 0008 23308100 		sd	s0,0(sp)
  45              		.cfi_offset 1, -8
  46              		.cfi_offset 8, -16
  47 000c 13040101 		addi	s0,sp,16
  48              		.cfi_def_cfa 8, 0
  26:src/../h/syscall_cpp.hpp ****     {
  27:src/../h/syscall_cpp.hpp ****         Thread* thread = (Thread*)ptr;
  49              		.loc 1 27 9
  50              	.LVL2:
  28:src/../h/syscall_cpp.hpp ****         thread->run();
  51              		.loc 1 28 9
  52              		.loc 1 28 21 is_stmt 0
  53 0010 83370500 		ld	a5,0(a0)
  54 0014 83B70701 		ld	a5,16(a5)
  55              		.loc 1 28 20
  56 0018 E7800700 		jalr	a5
  57              	.LVL3:
  29:src/../h/syscall_cpp.hpp ****     }
  58              		.loc 1 29 5
  59 001c 83308100 		ld	ra,8(sp)
  60              		.cfi_restore 1
  61 0020 03340100 		ld	s0,0(sp)
  62              		.cfi_restore 8
  63              		.cfi_def_cfa 2, 16
  64 0024 13010101 		addi	sp,sp,16
  65              		.cfi_def_cfa_offset 0
  66 0028 67800000 		jr	ra
  67              		.cfi_endproc
  68              	.LFE31:
  70              		.section	.text._ZN14PeriodicThread18periodicActivationEv,"axG",@progbits,_ZN14PeriodicThread18peri
  71              		.align	2
  72              		.weak	_ZN14PeriodicThread18periodicActivationEv
  74              	_ZN14PeriodicThread18periodicActivationEv:
  75              	.LFB32:
  30:src/../h/syscall_cpp.hpp **** 
  31:src/../h/syscall_cpp.hpp **** };
  32:src/../h/syscall_cpp.hpp **** 
  33:src/../h/syscall_cpp.hpp **** 
  34:src/../h/syscall_cpp.hpp **** class Semaphore {
  35:src/../h/syscall_cpp.hpp **** public:
  36:src/../h/syscall_cpp.hpp ****     Semaphore (unsigned init = 1);
  37:src/../h/syscall_cpp.hpp ****     virtual ~Semaphore();
  38:src/../h/syscall_cpp.hpp ****     int wait ();
  39:src/../h/syscall_cpp.hpp ****     int signal ();
  40:src/../h/syscall_cpp.hpp **** private:
  41:src/../h/syscall_cpp.hpp ****     sem_t myHandle;
  42:src/../h/syscall_cpp.hpp **** };
  43:src/../h/syscall_cpp.hpp **** 
  44:src/../h/syscall_cpp.hpp **** 
GAS LISTING /tmp/cc4YJ2eV.s 			page 3


  45:src/../h/syscall_cpp.hpp **** class PeriodicThread : public Thread {
  46:src/../h/syscall_cpp.hpp **** protected:
  47:src/../h/syscall_cpp.hpp ****     PeriodicThread (time_t period);
  48:src/../h/syscall_cpp.hpp ****     virtual void periodicActivation () {}
  76              		.loc 1 48 18 is_stmt 1
  77              		.cfi_startproc
  78              	.LVL4:
  79 0000 130101FF 		addi	sp,sp,-16
  80              		.cfi_def_cfa_offset 16
  81 0004 23348100 		sd	s0,8(sp)
  82              		.cfi_offset 8, -8
  83 0008 13040101 		addi	s0,sp,16
  84              		.cfi_def_cfa 8, 0
  85              		.loc 1 48 41 is_stmt 0
  86 000c 03348100 		ld	s0,8(sp)
  87              		.cfi_restore 8
  88              		.cfi_def_cfa 2, 16
  89 0010 13010101 		addi	sp,sp,16
  90              		.cfi_def_cfa_offset 0
  91 0014 67800000 		jr	ra
  92              		.cfi_endproc
  93              	.LFE32:
  95              		.text
  96              		.align	2
  97              		.globl	_ZN6ThreadD2Ev
  99              	_ZN6ThreadD2Ev:
 100              	.LFB46:
  10:src/../h/syscall_cpp.hpp ****     using Body = void (*)(void*);
 101              		.loc 1 10 7 is_stmt 1
 102              		.cfi_startproc
 103              	.LVL5:
 104 0000 130101FF 		addi	sp,sp,-16
 105              		.cfi_def_cfa_offset 16
 106 0004 23348100 		sd	s0,8(sp)
 107              		.cfi_offset 8, -8
 108 0008 13040101 		addi	s0,sp,16
 109              		.cfi_def_cfa 8, 0
  10:src/../h/syscall_cpp.hpp ****     using Body = void (*)(void*);
 110              		.loc 1 10 7 is_stmt 0
 111 000c 03348100 		ld	s0,8(sp)
 112              		.cfi_restore 8
 113              		.cfi_def_cfa 2, 16
 114 0010 13010101 		addi	sp,sp,16
 115              		.cfi_def_cfa_offset 0
 116 0014 67800000 		jr	ra
 117              		.cfi_endproc
 118              	.LFE46:
 120              		.globl	_ZN6ThreadD1Ev
 121              		.set	_ZN6ThreadD1Ev,_ZN6ThreadD2Ev
 122              		.section	.text._ZN14PeriodicThreadD2Ev,"axG",@progbits,_ZN14PeriodicThreadD5Ev,comdat
 123              		.align	2
 124              		.weak	_ZN14PeriodicThreadD2Ev
 126              	_ZN14PeriodicThreadD2Ev:
 127              	.LFB68:
  45:src/../h/syscall_cpp.hpp **** protected:
 128              		.loc 1 45 7 is_stmt 1
 129              		.cfi_startproc
GAS LISTING /tmp/cc4YJ2eV.s 			page 4


 130              	.LVL6:
 131 0000 130101FF 		addi	sp,sp,-16
 132              		.cfi_def_cfa_offset 16
 133 0004 23348100 		sd	s0,8(sp)
 134              		.cfi_offset 8, -8
 135 0008 13040101 		addi	s0,sp,16
 136              		.cfi_def_cfa 8, 0
 137              	.LBB5:
  45:src/../h/syscall_cpp.hpp **** protected:
 138              		.loc 1 45 7 is_stmt 0
 139 000c 97070000 		lla	a5,_ZTV14PeriodicThread+16
 139      93870700 
 140 0014 2330F500 		sd	a5,0(a0)
 141              	.LBE5:
 142 0018 03348100 		ld	s0,8(sp)
 143              		.cfi_restore 8
 144              		.cfi_def_cfa 2, 16
 145 001c 13010101 		addi	sp,sp,16
 146              		.cfi_def_cfa_offset 0
 147 0020 67800000 		jr	ra
 148              		.cfi_endproc
 149              	.LFE68:
 151              		.weak	_ZN14PeriodicThreadD1Ev
 152              		.set	_ZN14PeriodicThreadD1Ev,_ZN14PeriodicThreadD2Ev
 153              		.text
 154              		.align	2
 155              		.globl	_ZN9SemaphoreD2Ev
 157              	_ZN9SemaphoreD2Ev:
 158              	.LFB54:
 159              		.file 2 "src/syscall_cpp.cpp"
   1:src/syscall_cpp.cpp **** #include "../h/syscall_cpp.hpp"
   2:src/syscall_cpp.cpp **** 
   3:src/syscall_cpp.cpp **** void *operator new(size_t n)
   4:src/syscall_cpp.cpp **** {
   5:src/syscall_cpp.cpp ****     return MemoryAllocator::malloc(n);
   6:src/syscall_cpp.cpp **** //    return mem_alloc(n);
   7:src/syscall_cpp.cpp **** }
   8:src/syscall_cpp.cpp **** 
   9:src/syscall_cpp.cpp **** void *operator new[](size_t n)
  10:src/syscall_cpp.cpp **** {
  11:src/syscall_cpp.cpp ****     return MemoryAllocator::malloc(n);
  12:src/syscall_cpp.cpp **** //   return mem_alloc(n);
  13:src/syscall_cpp.cpp **** }
  14:src/syscall_cpp.cpp **** 
  15:src/syscall_cpp.cpp **** void operator delete(void *p)
  16:src/syscall_cpp.cpp **** {
  17:src/syscall_cpp.cpp ****     MemoryAllocator::free(p);
  18:src/syscall_cpp.cpp **** //    mem_free(p);
  19:src/syscall_cpp.cpp **** }
  20:src/syscall_cpp.cpp **** 
  21:src/syscall_cpp.cpp **** void operator delete[](void *p)
  22:src/syscall_cpp.cpp **** {
  23:src/syscall_cpp.cpp ****     MemoryAllocator::free(p);
  24:src/syscall_cpp.cpp **** //    mem_free(p);
  25:src/syscall_cpp.cpp **** }
  26:src/syscall_cpp.cpp **** 
  27:src/syscall_cpp.cpp **** int Thread::start (){
GAS LISTING /tmp/cc4YJ2eV.s 			page 5


  28:src/syscall_cpp.cpp ****     thread_start(&myHandle);
  29:src/syscall_cpp.cpp ****     return 0;
  30:src/syscall_cpp.cpp **** }
  31:src/syscall_cpp.cpp **** void Thread::dispatch (){
  32:src/syscall_cpp.cpp ****     thread_dispatch();
  33:src/syscall_cpp.cpp **** }
  34:src/syscall_cpp.cpp **** 
  35:src/syscall_cpp.cpp **** Thread::Thread(void (*body)(void*), void* arg) {
  36:src/syscall_cpp.cpp ****     thread_create2(&myHandle, body, arg);
  37:src/syscall_cpp.cpp **** }
  38:src/syscall_cpp.cpp **** Thread::Thread() {
  39:src/syscall_cpp.cpp ****     thread_create2(&myHandle, myWrapper, this);
  40:src/syscall_cpp.cpp **** }
  41:src/syscall_cpp.cpp **** 
  42:src/syscall_cpp.cpp **** Thread::~Thread()=default;
  43:src/syscall_cpp.cpp **** 
  44:src/syscall_cpp.cpp **** int Thread::sleep(time_t) {
  45:src/syscall_cpp.cpp ****     return 0;
  46:src/syscall_cpp.cpp **** }
  47:src/syscall_cpp.cpp **** 
  48:src/syscall_cpp.cpp **** Semaphore::Semaphore(unsigned int init) {
  49:src/syscall_cpp.cpp ****     sem_open(&myHandle, init);
  50:src/syscall_cpp.cpp **** }
  51:src/syscall_cpp.cpp **** 
  52:src/syscall_cpp.cpp **** Semaphore::~Semaphore() {
 160              		.loc 2 52 1 is_stmt 1
 161              		.cfi_startproc
 162              		.cfi_personality 0x9b,DW.ref.__gxx_personality_v0
 163              		.cfi_lsda 0x1b,.LLSDA54
 164              	.LVL7:
 165 0018 130101FF 		addi	sp,sp,-16
 166              		.cfi_def_cfa_offset 16
 167 001c 23341100 		sd	ra,8(sp)
 168 0020 23308100 		sd	s0,0(sp)
 169              		.cfi_offset 1, -8
 170              		.cfi_offset 8, -16
 171 0024 13040101 		addi	s0,sp,16
 172              		.cfi_def_cfa 8, 0
 173              	.LBB6:
 174              		.loc 2 52 23 is_stmt 0
 175 0028 97070000 		lla	a5,_ZTV9Semaphore+16
 175      93870700 
 176 0030 2330F500 		sd	a5,0(a0)
  53:src/syscall_cpp.cpp ****     sem_close(myHandle);
 177              		.loc 2 53 5 is_stmt 1
 178              		.loc 2 53 14 is_stmt 0
 179 0034 03358500 		ld	a0,8(a0)
 180              	.LVL8:
 181 0038 97000000 		call	_Z9sem_closeP10Ksemaphore@plt
 181      E7800000 
 182              	.LVL9:
 183              	.LBE6:
  54:src/syscall_cpp.cpp **** }
 184              		.loc 2 54 1
 185 0040 83308100 		ld	ra,8(sp)
 186              		.cfi_restore 1
 187 0044 03340100 		ld	s0,0(sp)
GAS LISTING /tmp/cc4YJ2eV.s 			page 6


 188              		.cfi_restore 8
 189              		.cfi_def_cfa 2, 16
 190 0048 13010101 		addi	sp,sp,16
 191              		.cfi_def_cfa_offset 0
 192 004c 67800000 		jr	ra
 193              		.cfi_endproc
 194              	.LFE54:
 195              		.globl	__gxx_personality_v0
 196              		.section	.gcc_except_table,"a",@progbits
 197              	.LLSDA54:
 198 0000 FF       		.byte	0xff
 199 0001 FF       		.byte	0xff
 200 0002 03       		.byte	0x3
 201 0003 00       		.byte	0
 202              		.text
 204              		.globl	_ZN9SemaphoreD1Ev
 205              		.set	_ZN9SemaphoreD1Ev,_ZN9SemaphoreD2Ev
 206              		.align	2
 207              		.globl	_Znwm
 209              	_Znwm:
 210              	.LFB33:
   4:src/syscall_cpp.cpp ****     return MemoryAllocator::malloc(n);
 211              		.loc 2 4 1 is_stmt 1
 212              		.cfi_startproc
 213              	.LVL10:
 214 0050 130101FF 		addi	sp,sp,-16
 215              		.cfi_def_cfa_offset 16
 216 0054 23341100 		sd	ra,8(sp)
 217 0058 23308100 		sd	s0,0(sp)
 218              		.cfi_offset 1, -8
 219              		.cfi_offset 8, -16
 220 005c 13040101 		addi	s0,sp,16
 221              		.cfi_def_cfa 8, 0
   5:src/syscall_cpp.cpp **** //    return mem_alloc(n);
 222              		.loc 2 5 5
   5:src/syscall_cpp.cpp **** //    return mem_alloc(n);
 223              		.loc 2 5 35 is_stmt 0
 224 0060 97000000 		call	_ZN15MemoryAllocator6mallocEm@plt
 224      E7800000 
 225              	.LVL11:
   7:src/syscall_cpp.cpp **** 
 226              		.loc 2 7 1
 227 0068 83308100 		ld	ra,8(sp)
 228              		.cfi_restore 1
 229 006c 03340100 		ld	s0,0(sp)
 230              		.cfi_restore 8
 231              		.cfi_def_cfa 2, 16
 232 0070 13010101 		addi	sp,sp,16
 233              		.cfi_def_cfa_offset 0
 234 0074 67800000 		jr	ra
 235              		.cfi_endproc
 236              	.LFE33:
 238              		.align	2
 239              		.globl	_Znam
 241              	_Znam:
 242              	.LFB34:
  10:src/syscall_cpp.cpp ****     return MemoryAllocator::malloc(n);
GAS LISTING /tmp/cc4YJ2eV.s 			page 7


 243              		.loc 2 10 1 is_stmt 1
 244              		.cfi_startproc
 245              	.LVL12:
 246 0078 130101FF 		addi	sp,sp,-16
 247              		.cfi_def_cfa_offset 16
 248 007c 23341100 		sd	ra,8(sp)
 249 0080 23308100 		sd	s0,0(sp)
 250              		.cfi_offset 1, -8
 251              		.cfi_offset 8, -16
 252 0084 13040101 		addi	s0,sp,16
 253              		.cfi_def_cfa 8, 0
  11:src/syscall_cpp.cpp **** //   return mem_alloc(n);
 254              		.loc 2 11 5
  11:src/syscall_cpp.cpp **** //   return mem_alloc(n);
 255              		.loc 2 11 35 is_stmt 0
 256 0088 97000000 		call	_ZN15MemoryAllocator6mallocEm@plt
 256      E7800000 
 257              	.LVL13:
  13:src/syscall_cpp.cpp **** 
 258              		.loc 2 13 1
 259 0090 83308100 		ld	ra,8(sp)
 260              		.cfi_restore 1
 261 0094 03340100 		ld	s0,0(sp)
 262              		.cfi_restore 8
 263              		.cfi_def_cfa 2, 16
 264 0098 13010101 		addi	sp,sp,16
 265              		.cfi_def_cfa_offset 0
 266 009c 67800000 		jr	ra
 267              		.cfi_endproc
 268              	.LFE34:
 270              		.align	2
 271              		.globl	_ZdlPv
 273              	_ZdlPv:
 274              	.LFB35:
  16:src/syscall_cpp.cpp ****     MemoryAllocator::free(p);
 275              		.loc 2 16 1 is_stmt 1
 276              		.cfi_startproc
 277              	.LVL14:
 278 00a0 130101FF 		addi	sp,sp,-16
 279              		.cfi_def_cfa_offset 16
 280 00a4 23341100 		sd	ra,8(sp)
 281 00a8 23308100 		sd	s0,0(sp)
 282              		.cfi_offset 1, -8
 283              		.cfi_offset 8, -16
 284 00ac 13040101 		addi	s0,sp,16
 285              		.cfi_def_cfa 8, 0
  17:src/syscall_cpp.cpp **** //    mem_free(p);
 286              		.loc 2 17 5
  17:src/syscall_cpp.cpp **** //    mem_free(p);
 287              		.loc 2 17 26 is_stmt 0
 288 00b0 97000000 		call	_ZN15MemoryAllocator4freeEPv@plt
 288      E7800000 
 289              	.LVL15:
  19:src/syscall_cpp.cpp **** 
 290              		.loc 2 19 1
 291 00b8 83308100 		ld	ra,8(sp)
 292              		.cfi_restore 1
GAS LISTING /tmp/cc4YJ2eV.s 			page 8


 293 00bc 03340100 		ld	s0,0(sp)
 294              		.cfi_restore 8
 295              		.cfi_def_cfa 2, 16
 296 00c0 13010101 		addi	sp,sp,16
 297              		.cfi_def_cfa_offset 0
 298 00c4 67800000 		jr	ra
 299              		.cfi_endproc
 300              	.LFE35:
 302              		.align	2
 303              		.globl	_ZN6ThreadD0Ev
 305              	_ZN6ThreadD0Ev:
 306              	.LFB48:
  10:src/../h/syscall_cpp.hpp ****     using Body = void (*)(void*);
 307              		.loc 1 10 7 is_stmt 1
 308              		.cfi_startproc
 309              	.LVL16:
 310 00c8 130101FF 		addi	sp,sp,-16
 311              		.cfi_def_cfa_offset 16
 312 00cc 23341100 		sd	ra,8(sp)
 313 00d0 23308100 		sd	s0,0(sp)
 314              		.cfi_offset 1, -8
 315              		.cfi_offset 8, -16
 316 00d4 13040101 		addi	s0,sp,16
 317              		.cfi_def_cfa 8, 0
  10:src/../h/syscall_cpp.hpp ****     using Body = void (*)(void*);
 318              		.loc 1 10 7 is_stmt 0
 319 00d8 97000000 		call	_ZdlPv
 319      E7800000 
 320              	.LVL17:
 321 00e0 83308100 		ld	ra,8(sp)
 322              		.cfi_restore 1
 323 00e4 03340100 		ld	s0,0(sp)
 324              		.cfi_restore 8
 325              		.cfi_def_cfa 2, 16
 326 00e8 13010101 		addi	sp,sp,16
 327              		.cfi_def_cfa_offset 0
 328 00ec 67800000 		jr	ra
 329              		.cfi_endproc
 330              	.LFE48:
 332              		.align	2
 333              		.globl	_ZN9SemaphoreD0Ev
 335              	_ZN9SemaphoreD0Ev:
 336              	.LFB56:
  52:src/syscall_cpp.cpp ****     sem_close(myHandle);
 337              		.loc 2 52 1 is_stmt 1
 338              		.cfi_startproc
 339              	.LVL18:
 340 00f0 130101FE 		addi	sp,sp,-32
 341              		.cfi_def_cfa_offset 32
 342 00f4 233C1100 		sd	ra,24(sp)
 343 00f8 23388100 		sd	s0,16(sp)
 344 00fc 23349100 		sd	s1,8(sp)
 345              		.cfi_offset 1, -8
 346              		.cfi_offset 8, -16
 347              		.cfi_offset 9, -24
 348 0100 13040102 		addi	s0,sp,32
 349              		.cfi_def_cfa 8, 0
GAS LISTING /tmp/cc4YJ2eV.s 			page 9


 350 0104 93040500 		mv	s1,a0
 351              		.loc 2 54 1 is_stmt 0
 352 0108 97000000 		call	_ZN9SemaphoreD1Ev
 352      E7800000 
 353              	.LVL19:
 354 0110 13850400 		mv	a0,s1
 355 0114 97000000 		call	_ZdlPv
 355      E7800000 
 356              	.LVL20:
 357 011c 83308101 		ld	ra,24(sp)
 358              		.cfi_restore 1
 359 0120 03340101 		ld	s0,16(sp)
 360              		.cfi_restore 8
 361              		.cfi_def_cfa 2, 32
 362 0124 83348100 		ld	s1,8(sp)
 363              		.cfi_restore 9
 364              	.LVL21:
 365 0128 13010102 		addi	sp,sp,32
 366              		.cfi_def_cfa_offset 0
 367 012c 67800000 		jr	ra
 368              		.cfi_endproc
 369              	.LFE56:
 371              		.section	.text._ZN14PeriodicThreadD0Ev,"axG",@progbits,_ZN14PeriodicThreadD5Ev,comdat
 372              		.align	2
 373              		.weak	_ZN14PeriodicThreadD0Ev
 375              	_ZN14PeriodicThreadD0Ev:
 376              	.LFB70:
  45:src/../h/syscall_cpp.hpp **** protected:
 377              		.loc 1 45 7 is_stmt 1
 378              		.cfi_startproc
 379              	.LVL22:
 380 0000 130101FF 		addi	sp,sp,-16
 381              		.cfi_def_cfa_offset 16
 382 0004 23341100 		sd	ra,8(sp)
 383 0008 23308100 		sd	s0,0(sp)
 384              		.cfi_offset 1, -8
 385              		.cfi_offset 8, -16
 386 000c 13040101 		addi	s0,sp,16
 387              		.cfi_def_cfa 8, 0
 388              	.LVL23:
 389              	.LBB7:
 390              	.LBB8:
  45:src/../h/syscall_cpp.hpp **** protected:
 391              		.loc 1 45 7 is_stmt 0
 392 0010 97070000 		lla	a5,_ZTV14PeriodicThread+16
 392      93870700 
 393 0018 2330F500 		sd	a5,0(a0)
 394              	.LVL24:
 395              	.LBE8:
 396              	.LBE7:
 397 001c 97000000 		call	_ZdlPv
 397      E7800000 
 398              	.LVL25:
 399 0024 83308100 		ld	ra,8(sp)
 400              		.cfi_restore 1
 401 0028 03340100 		ld	s0,0(sp)
 402              		.cfi_restore 8
GAS LISTING /tmp/cc4YJ2eV.s 			page 10


 403              		.cfi_def_cfa 2, 16
 404 002c 13010101 		addi	sp,sp,16
 405              		.cfi_def_cfa_offset 0
 406 0030 67800000 		jr	ra
 407              		.cfi_endproc
 408              	.LFE70:
 410              		.text
 411              		.align	2
 412              		.globl	_ZdaPv
 414              	_ZdaPv:
 415              	.LFB36:
  22:src/syscall_cpp.cpp ****     MemoryAllocator::free(p);
 416              		.loc 2 22 1 is_stmt 1
 417              		.cfi_startproc
 418              	.LVL26:
 419 0130 130101FF 		addi	sp,sp,-16
 420              		.cfi_def_cfa_offset 16
 421 0134 23341100 		sd	ra,8(sp)
 422 0138 23308100 		sd	s0,0(sp)
 423              		.cfi_offset 1, -8
 424              		.cfi_offset 8, -16
 425 013c 13040101 		addi	s0,sp,16
 426              		.cfi_def_cfa 8, 0
  23:src/syscall_cpp.cpp **** //    mem_free(p);
 427              		.loc 2 23 5
  23:src/syscall_cpp.cpp **** //    mem_free(p);
 428              		.loc 2 23 26 is_stmt 0
 429 0140 97000000 		call	_ZN15MemoryAllocator4freeEPv@plt
 429      E7800000 
 430              	.LVL27:
  25:src/syscall_cpp.cpp **** 
 431              		.loc 2 25 1
 432 0148 83308100 		ld	ra,8(sp)
 433              		.cfi_restore 1
 434 014c 03340100 		ld	s0,0(sp)
 435              		.cfi_restore 8
 436              		.cfi_def_cfa 2, 16
 437 0150 13010101 		addi	sp,sp,16
 438              		.cfi_def_cfa_offset 0
 439 0154 67800000 		jr	ra
 440              		.cfi_endproc
 441              	.LFE36:
 443              		.align	2
 444              		.globl	_ZN6Thread5startEv
 446              	_ZN6Thread5startEv:
 447              	.LFB37:
  27:src/syscall_cpp.cpp ****     thread_start(&myHandle);
 448              		.loc 2 27 21 is_stmt 1
 449              		.cfi_startproc
 450              	.LVL28:
 451 0158 130101FF 		addi	sp,sp,-16
 452              		.cfi_def_cfa_offset 16
 453 015c 23341100 		sd	ra,8(sp)
 454 0160 23308100 		sd	s0,0(sp)
 455              		.cfi_offset 1, -8
 456              		.cfi_offset 8, -16
 457 0164 13040101 		addi	s0,sp,16
GAS LISTING /tmp/cc4YJ2eV.s 			page 11


 458              		.cfi_def_cfa 8, 0
  28:src/syscall_cpp.cpp ****     return 0;
 459              		.loc 2 28 5
  28:src/syscall_cpp.cpp ****     return 0;
 460              		.loc 2 28 17 is_stmt 0
 461 0168 13058500 		addi	a0,a0,8
 462              	.LVL29:
 463 016c 97000000 		call	_Z12thread_startPP3TCB@plt
 463      E7800000 
 464              	.LVL30:
  29:src/syscall_cpp.cpp **** }
 465              		.loc 2 29 5 is_stmt 1
  30:src/syscall_cpp.cpp **** void Thread::dispatch (){
 466              		.loc 2 30 1 is_stmt 0
 467 0174 13050000 		li	a0,0
 468 0178 83308100 		ld	ra,8(sp)
 469              		.cfi_restore 1
 470 017c 03340100 		ld	s0,0(sp)
 471              		.cfi_restore 8
 472              		.cfi_def_cfa 2, 16
 473 0180 13010101 		addi	sp,sp,16
 474              		.cfi_def_cfa_offset 0
 475 0184 67800000 		jr	ra
 476              		.cfi_endproc
 477              	.LFE37:
 479              		.align	2
 480              		.globl	_ZN6Thread8dispatchEv
 482              	_ZN6Thread8dispatchEv:
 483              	.LFB38:
  31:src/syscall_cpp.cpp ****     thread_dispatch();
 484              		.loc 2 31 25 is_stmt 1
 485              		.cfi_startproc
 486 0188 130101FF 		addi	sp,sp,-16
 487              		.cfi_def_cfa_offset 16
 488 018c 23341100 		sd	ra,8(sp)
 489 0190 23308100 		sd	s0,0(sp)
 490              		.cfi_offset 1, -8
 491              		.cfi_offset 8, -16
 492 0194 13040101 		addi	s0,sp,16
 493              		.cfi_def_cfa 8, 0
  32:src/syscall_cpp.cpp **** }
 494              		.loc 2 32 5
  32:src/syscall_cpp.cpp **** }
 495              		.loc 2 32 20 is_stmt 0
 496 0198 97000000 		call	_Z15thread_dispatchv@plt
 496      E7800000 
 497              	.LVL31:
  33:src/syscall_cpp.cpp **** 
 498              		.loc 2 33 1
 499 01a0 83308100 		ld	ra,8(sp)
 500              		.cfi_restore 1
 501 01a4 03340100 		ld	s0,0(sp)
 502              		.cfi_restore 8
 503              		.cfi_def_cfa 2, 16
 504 01a8 13010101 		addi	sp,sp,16
 505              		.cfi_def_cfa_offset 0
 506 01ac 67800000 		jr	ra
GAS LISTING /tmp/cc4YJ2eV.s 			page 12


 507              		.cfi_endproc
 508              	.LFE38:
 510              		.align	2
 511              		.globl	_ZN6ThreadC2EPFvPvES0_
 513              	_ZN6ThreadC2EPFvPvES0_:
 514              	.LFB40:
  35:src/syscall_cpp.cpp ****     thread_create2(&myHandle, body, arg);
 515              		.loc 2 35 1 is_stmt 1
 516              		.cfi_startproc
 517              	.LVL32:
 518 01b0 130101FF 		addi	sp,sp,-16
 519              		.cfi_def_cfa_offset 16
 520 01b4 23341100 		sd	ra,8(sp)
 521 01b8 23308100 		sd	s0,0(sp)
 522              		.cfi_offset 1, -8
 523              		.cfi_offset 8, -16
 524 01bc 13040101 		addi	s0,sp,16
 525              		.cfi_def_cfa 8, 0
 526              	.LBB9:
  35:src/syscall_cpp.cpp ****     thread_create2(&myHandle, body, arg);
 527              		.loc 2 35 46 is_stmt 0
 528 01c0 97070000 		lla	a5,_ZTV6Thread+16
 528      93870700 
 529 01c8 2330F500 		sd	a5,0(a0)
  36:src/syscall_cpp.cpp **** }
 530              		.loc 2 36 5 is_stmt 1
  36:src/syscall_cpp.cpp **** }
 531              		.loc 2 36 19 is_stmt 0
 532 01cc 13058500 		addi	a0,a0,8
 533              	.LVL33:
 534 01d0 97000000 		call	_Z14thread_create2PP3TCBPFvPvES2_@plt
 534      E7800000 
 535              	.LVL34:
 536              	.LBE9:
  37:src/syscall_cpp.cpp **** Thread::Thread() {
 537              		.loc 2 37 1
 538 01d8 83308100 		ld	ra,8(sp)
 539              		.cfi_restore 1
 540 01dc 03340100 		ld	s0,0(sp)
 541              		.cfi_restore 8
 542              		.cfi_def_cfa 2, 16
 543 01e0 13010101 		addi	sp,sp,16
 544              		.cfi_def_cfa_offset 0
 545 01e4 67800000 		jr	ra
 546              		.cfi_endproc
 547              	.LFE40:
 549              		.globl	_ZN6ThreadC1EPFvPvES0_
 550              		.set	_ZN6ThreadC1EPFvPvES0_,_ZN6ThreadC2EPFvPvES0_
 551              		.align	2
 552              		.globl	_ZN6ThreadC2Ev
 554              	_ZN6ThreadC2Ev:
 555              	.LFB43:
  38:src/syscall_cpp.cpp ****     thread_create2(&myHandle, myWrapper, this);
 556              		.loc 2 38 1 is_stmt 1
 557              		.cfi_startproc
 558              	.LVL35:
 559 01e8 130101FF 		addi	sp,sp,-16
GAS LISTING /tmp/cc4YJ2eV.s 			page 13


 560              		.cfi_def_cfa_offset 16
 561 01ec 23341100 		sd	ra,8(sp)
 562 01f0 23308100 		sd	s0,0(sp)
 563              		.cfi_offset 1, -8
 564              		.cfi_offset 8, -16
 565 01f4 13040101 		addi	s0,sp,16
 566              		.cfi_def_cfa 8, 0
 567              	.LBB10:
  38:src/syscall_cpp.cpp ****     thread_create2(&myHandle, myWrapper, this);
 568              		.loc 2 38 16 is_stmt 0
 569 01f8 97070000 		lla	a5,_ZTV6Thread+16
 569      93870700 
 570 0200 2330F500 		sd	a5,0(a0)
  39:src/syscall_cpp.cpp **** }
 571              		.loc 2 39 5 is_stmt 1
  39:src/syscall_cpp.cpp **** }
 572              		.loc 2 39 19 is_stmt 0
 573 0204 13060500 		mv	a2,a0
 574 0208 97050000 		lla	a1,_ZN6Thread9myWrapperEPv
 574      93850500 
 575 0210 13058500 		addi	a0,a0,8
 576              	.LVL36:
 577 0214 97000000 		call	_Z14thread_create2PP3TCBPFvPvES2_@plt
 577      E7800000 
 578              	.LVL37:
 579              	.LBE10:
  40:src/syscall_cpp.cpp **** 
 580              		.loc 2 40 1
 581 021c 83308100 		ld	ra,8(sp)
 582              		.cfi_restore 1
 583 0220 03340100 		ld	s0,0(sp)
 584              		.cfi_restore 8
 585              		.cfi_def_cfa 2, 16
 586 0224 13010101 		addi	sp,sp,16
 587              		.cfi_def_cfa_offset 0
 588 0228 67800000 		jr	ra
 589              		.cfi_endproc
 590              	.LFE43:
 592              		.globl	_ZN6ThreadC1Ev
 593              		.set	_ZN6ThreadC1Ev,_ZN6ThreadC2Ev
 594              		.align	2
 595              		.globl	_ZN6Thread5sleepEm
 597              	_ZN6Thread5sleepEm:
 598              	.LFB49:
  44:src/syscall_cpp.cpp ****     return 0;
 599              		.loc 2 44 27 is_stmt 1
 600              		.cfi_startproc
 601 022c 130101FF 		addi	sp,sp,-16
 602              		.cfi_def_cfa_offset 16
 603 0230 23348100 		sd	s0,8(sp)
 604              		.cfi_offset 8, -8
 605 0234 13040101 		addi	s0,sp,16
 606              		.cfi_def_cfa 8, 0
  45:src/syscall_cpp.cpp **** }
 607              		.loc 2 45 5
  46:src/syscall_cpp.cpp **** 
 608              		.loc 2 46 1 is_stmt 0
GAS LISTING /tmp/cc4YJ2eV.s 			page 14


 609 0238 13050000 		li	a0,0
 610 023c 03348100 		ld	s0,8(sp)
 611              		.cfi_restore 8
 612              		.cfi_def_cfa 2, 16
 613 0240 13010101 		addi	sp,sp,16
 614              		.cfi_def_cfa_offset 0
 615 0244 67800000 		jr	ra
 616              		.cfi_endproc
 617              	.LFE49:
 619              		.align	2
 620              		.globl	_ZN9SemaphoreC2Ej
 622              	_ZN9SemaphoreC2Ej:
 623              	.LFB51:
  48:src/syscall_cpp.cpp ****     sem_open(&myHandle, init);
 624              		.loc 2 48 1 is_stmt 1
 625              		.cfi_startproc
 626              	.LVL38:
 627 0248 130101FF 		addi	sp,sp,-16
 628              		.cfi_def_cfa_offset 16
 629 024c 23341100 		sd	ra,8(sp)
 630 0250 23308100 		sd	s0,0(sp)
 631              		.cfi_offset 1, -8
 632              		.cfi_offset 8, -16
 633 0254 13040101 		addi	s0,sp,16
 634              		.cfi_def_cfa 8, 0
 635              	.LBB11:
  48:src/syscall_cpp.cpp ****     sem_open(&myHandle, init);
 636              		.loc 2 48 39 is_stmt 0
 637 0258 97070000 		lla	a5,_ZTV9Semaphore+16
 637      93870700 
 638 0260 2330F500 		sd	a5,0(a0)
  49:src/syscall_cpp.cpp **** }
 639              		.loc 2 49 5 is_stmt 1
  49:src/syscall_cpp.cpp **** }
 640              		.loc 2 49 13 is_stmt 0
 641 0264 13058500 		addi	a0,a0,8
 642              	.LVL39:
 643 0268 97000000 		call	_Z8sem_openPP10Ksemaphorej@plt
 643      E7800000 
 644              	.LVL40:
 645              	.LBE11:
  50:src/syscall_cpp.cpp **** 
 646              		.loc 2 50 1
 647 0270 83308100 		ld	ra,8(sp)
 648              		.cfi_restore 1
 649 0274 03340100 		ld	s0,0(sp)
 650              		.cfi_restore 8
 651              		.cfi_def_cfa 2, 16
 652 0278 13010101 		addi	sp,sp,16
 653              		.cfi_def_cfa_offset 0
 654 027c 67800000 		jr	ra
 655              		.cfi_endproc
 656              	.LFE51:
 658              		.globl	_ZN9SemaphoreC1Ej
 659              		.set	_ZN9SemaphoreC1Ej,_ZN9SemaphoreC2Ej
 660              		.align	2
 661              		.globl	_ZN9Semaphore4waitEv
GAS LISTING /tmp/cc4YJ2eV.s 			page 15


 663              	_ZN9Semaphore4waitEv:
 664              	.LFB57:
  55:src/syscall_cpp.cpp **** 
  56:src/syscall_cpp.cpp **** int Semaphore::wait() {
 665              		.loc 2 56 23 is_stmt 1
 666              		.cfi_startproc
 667              	.LVL41:
 668 0280 130101FF 		addi	sp,sp,-16
 669              		.cfi_def_cfa_offset 16
 670 0284 23341100 		sd	ra,8(sp)
 671 0288 23308100 		sd	s0,0(sp)
 672              		.cfi_offset 1, -8
 673              		.cfi_offset 8, -16
 674 028c 13040101 		addi	s0,sp,16
 675              		.cfi_def_cfa 8, 0
  57:src/syscall_cpp.cpp ****     return sem_wait(myHandle);
 676              		.loc 2 57 5
 677              		.loc 2 57 20 is_stmt 0
 678 0290 03358500 		ld	a0,8(a0)
 679              	.LVL42:
 680 0294 97000000 		call	_Z8sem_waitP10Ksemaphore@plt
 680      E7800000 
 681              	.LVL43:
  58:src/syscall_cpp.cpp **** }
 682              		.loc 2 58 1
 683 029c 83308100 		ld	ra,8(sp)
 684              		.cfi_restore 1
 685 02a0 03340100 		ld	s0,0(sp)
 686              		.cfi_restore 8
 687              		.cfi_def_cfa 2, 16
 688 02a4 13010101 		addi	sp,sp,16
 689              		.cfi_def_cfa_offset 0
 690 02a8 67800000 		jr	ra
 691              		.cfi_endproc
 692              	.LFE57:
 694              		.align	2
 695              		.globl	_ZN9Semaphore6signalEv
 697              	_ZN9Semaphore6signalEv:
 698              	.LFB58:
  59:src/syscall_cpp.cpp **** 
  60:src/syscall_cpp.cpp **** int Semaphore::signal() {
 699              		.loc 2 60 25 is_stmt 1
 700              		.cfi_startproc
 701              	.LVL44:
 702 02ac 130101FF 		addi	sp,sp,-16
 703              		.cfi_def_cfa_offset 16
 704 02b0 23341100 		sd	ra,8(sp)
 705 02b4 23308100 		sd	s0,0(sp)
 706              		.cfi_offset 1, -8
 707              		.cfi_offset 8, -16
 708 02b8 13040101 		addi	s0,sp,16
 709              		.cfi_def_cfa 8, 0
  61:src/syscall_cpp.cpp ****     return sem_signal(myHandle);
 710              		.loc 2 61 5
 711              		.loc 2 61 22 is_stmt 0
 712 02bc 03358500 		ld	a0,8(a0)
 713              	.LVL45:
GAS LISTING /tmp/cc4YJ2eV.s 			page 16


 714 02c0 97000000 		call	_Z10sem_signalP10Ksemaphore@plt
 714      E7800000 
 715              	.LVL46:
  62:src/syscall_cpp.cpp **** }
 716              		.loc 2 62 1
 717 02c8 83308100 		ld	ra,8(sp)
 718              		.cfi_restore 1
 719 02cc 03340100 		ld	s0,0(sp)
 720              		.cfi_restore 8
 721              		.cfi_def_cfa 2, 16
 722 02d0 13010101 		addi	sp,sp,16
 723              		.cfi_def_cfa_offset 0
 724 02d4 67800000 		jr	ra
 725              		.cfi_endproc
 726              	.LFE58:
 728              		.align	2
 729              		.globl	_ZN14PeriodicThreadC2Em
 731              	_ZN14PeriodicThreadC2Em:
 732              	.LFB60:
  63:src/syscall_cpp.cpp **** 
  64:src/syscall_cpp.cpp **** 
  65:src/syscall_cpp.cpp **** 
  66:src/syscall_cpp.cpp **** PeriodicThread::PeriodicThread(time_t period) {
 733              		.loc 2 66 1 is_stmt 1
 734              		.cfi_startproc
 735              	.LVL47:
 736 02d8 130101FE 		addi	sp,sp,-32
 737              		.cfi_def_cfa_offset 32
 738 02dc 233C1100 		sd	ra,24(sp)
 739 02e0 23388100 		sd	s0,16(sp)
 740 02e4 23349100 		sd	s1,8(sp)
 741              		.cfi_offset 1, -8
 742              		.cfi_offset 8, -16
 743              		.cfi_offset 9, -24
 744 02e8 13040102 		addi	s0,sp,32
 745              		.cfi_def_cfa 8, 0
 746 02ec 93040500 		mv	s1,a0
 747              	.LBB12:
 748              		.loc 2 66 45 is_stmt 0
 749 02f0 97000000 		call	_ZN6ThreadC2Ev
 749      E7800000 
 750              	.LVL48:
 751 02f8 97070000 		lla	a5,_ZTV14PeriodicThread+16
 751      93870700 
 752 0300 23B0F400 		sd	a5,0(s1)
 753              	.LBE12:
  67:src/syscall_cpp.cpp **** 
  68:src/syscall_cpp.cpp **** }
 754              		.loc 2 68 1
 755 0304 83308101 		ld	ra,24(sp)
 756              		.cfi_restore 1
 757 0308 03340101 		ld	s0,16(sp)
 758              		.cfi_restore 8
 759              		.cfi_def_cfa 2, 32
 760 030c 83348100 		ld	s1,8(sp)
 761              		.cfi_restore 9
 762              	.LVL49:
GAS LISTING /tmp/cc4YJ2eV.s 			page 17


 763 0310 13010102 		addi	sp,sp,32
 764              		.cfi_def_cfa_offset 0
 765 0314 67800000 		jr	ra
 766              		.cfi_endproc
 767              	.LFE60:
 769              		.globl	_ZN14PeriodicThreadC1Em
 770              		.set	_ZN14PeriodicThreadC1Em,_ZN14PeriodicThreadC2Em
 771              		.align	2
 772              		.globl	_ZN7Console4getcEv
 774              	_ZN7Console4getcEv:
 775              	.LFB62:
  69:src/syscall_cpp.cpp **** 
  70:src/syscall_cpp.cpp **** char Console::getc() {
 776              		.loc 2 70 22 is_stmt 1
 777              		.cfi_startproc
 778 0318 130101FF 		addi	sp,sp,-16
 779              		.cfi_def_cfa_offset 16
 780 031c 23341100 		sd	ra,8(sp)
 781 0320 23308100 		sd	s0,0(sp)
 782              		.cfi_offset 1, -8
 783              		.cfi_offset 8, -16
 784 0324 13040101 		addi	s0,sp,16
 785              		.cfi_def_cfa 8, 0
  71:src/syscall_cpp.cpp ****     return __getc();
 786              		.loc 2 71 5
 787              		.loc 2 71 18 is_stmt 0
 788 0328 97000000 		call	__getc@plt
 788      E7800000 
 789              	.LVL50:
  72:src/syscall_cpp.cpp **** }
 790              		.loc 2 72 1
 791 0330 83308100 		ld	ra,8(sp)
 792              		.cfi_restore 1
 793 0334 03340100 		ld	s0,0(sp)
 794              		.cfi_restore 8
 795              		.cfi_def_cfa 2, 16
 796 0338 13010101 		addi	sp,sp,16
 797              		.cfi_def_cfa_offset 0
 798 033c 67800000 		jr	ra
 799              		.cfi_endproc
 800              	.LFE62:
 802              		.align	2
 803              		.globl	_ZN7Console4putcEc
 805              	_ZN7Console4putcEc:
 806              	.LFB63:
  73:src/syscall_cpp.cpp **** 
  74:src/syscall_cpp.cpp **** void Console::putc(char c) {
 807              		.loc 2 74 28 is_stmt 1
 808              		.cfi_startproc
 809              	.LVL51:
 810 0340 130101FF 		addi	sp,sp,-16
 811              		.cfi_def_cfa_offset 16
 812 0344 23341100 		sd	ra,8(sp)
 813 0348 23308100 		sd	s0,0(sp)
 814              		.cfi_offset 1, -8
 815              		.cfi_offset 8, -16
 816 034c 13040101 		addi	s0,sp,16
GAS LISTING /tmp/cc4YJ2eV.s 			page 18


 817              		.cfi_def_cfa 8, 0
  75:src/syscall_cpp.cpp ****     __putc(c);
 818              		.loc 2 75 5
 819              		.loc 2 75 11 is_stmt 0
 820 0350 97000000 		call	__putc@plt
 820      E7800000 
 821              	.LVL52:
  76:src/syscall_cpp.cpp **** }
 822              		.loc 2 76 1
 823 0358 83308100 		ld	ra,8(sp)
 824              		.cfi_restore 1
 825 035c 03340100 		ld	s0,0(sp)
 826              		.cfi_restore 8
 827              		.cfi_def_cfa 2, 16
 828 0360 13010101 		addi	sp,sp,16
 829              		.cfi_def_cfa_offset 0
 830 0364 67800000 		jr	ra
 831              		.cfi_endproc
 832              	.LFE63:
 834              		.weak	_ZTV14PeriodicThread
 835              		.section	.data.rel.ro.local._ZTV14PeriodicThread,"awG",@progbits,_ZTV14PeriodicThread,comdat
 836              		.align	3
 839              	_ZTV14PeriodicThread:
 840 0000 00000000 		.dword	0
 840      00000000 
 841 0008 00000000 		.dword	0
 841      00000000 
 842 0010 00000000 		.dword	_ZN14PeriodicThreadD1Ev
 842      00000000 
 843 0018 00000000 		.dword	_ZN14PeriodicThreadD0Ev
 843      00000000 
 844 0020 00000000 		.dword	_ZN6Thread3runEv
 844      00000000 
 845 0028 00000000 		.dword	_ZN14PeriodicThread18periodicActivationEv
 845      00000000 
 846              		.weak	_ZTV6Thread
 847              		.section	.data.rel.ro.local._ZTV6Thread,"awG",@progbits,_ZTV6Thread,comdat
 848              		.align	3
 851              	_ZTV6Thread:
 852 0000 00000000 		.dword	0
 852      00000000 
 853 0008 00000000 		.dword	0
 853      00000000 
 854 0010 00000000 		.dword	_ZN6ThreadD1Ev
 854      00000000 
 855 0018 00000000 		.dword	_ZN6ThreadD0Ev
 855      00000000 
 856 0020 00000000 		.dword	_ZN6Thread3runEv
 856      00000000 
 857              		.weak	_ZTV9Semaphore
 858              		.section	.data.rel.ro.local._ZTV9Semaphore,"awG",@progbits,_ZTV9Semaphore,comdat
 859              		.align	3
 862              	_ZTV9Semaphore:
 863 0000 00000000 		.dword	0
 863      00000000 
 864 0008 00000000 		.dword	0
 864      00000000 
GAS LISTING /tmp/cc4YJ2eV.s 			page 19


 865 0010 00000000 		.dword	_ZN9SemaphoreD1Ev
 865      00000000 
 866 0018 00000000 		.dword	_ZN9SemaphoreD0Ev
 866      00000000 
 867              		.text
 868              	.Letext0:
 869              		.file 3 "src/../h/../lib/hw.h"
 870              		.file 4 "src/../h/MemoryAllocator.hpp"
 871              		.file 5 "src/../h/list.hpp"
 872              		.file 6 "src/../h/TCB.hpp"
 873              		.file 7 "src/../h/Ksemaphore.hpp"
 874              		.file 8 "src/../h/../lib/console.h"
 875              		.file 9 "src/../h/syscall_c.h"
 5074              		.align	3
 5077              	DW.ref.__gxx_personality_v0:
 5078 0000 00000000 		.dword	__gxx_personality_v0
 5078      00000000 
 5079              		.ident	"GCC: (Ubuntu 9.4.0-1ubuntu1~20.04) 9.4.0"
 5080              		.section	.note.GNU-stack,"",@progbits
GAS LISTING /tmp/cc4YJ2eV.s 			page 20


DEFINED SYMBOLS
                            *ABS*:0000000000000000 syscall_cpp.cpp
     /tmp/cc4YJ2eV.s:10     .text._ZN6Thread3runEv:0000000000000000 _ZN6Thread3runEv
     /tmp/cc4YJ2eV.s:14     .text._ZN6Thread3runEv:0000000000000000 .L0 
     /tmp/cc4YJ2eV.s:16     .text._ZN6Thread3runEv:0000000000000000 .L0 
     /tmp/cc4YJ2eV.s:17     .text._ZN6Thread3runEv:0000000000000004 .L0 
     /tmp/cc4YJ2eV.s:19     .text._ZN6Thread3runEv:0000000000000008 .L0 
     /tmp/cc4YJ2eV.s:21     .text._ZN6Thread3runEv:000000000000000c .L0 
     /tmp/cc4YJ2eV.s:23     .text._ZN6Thread3runEv:000000000000000c .L0 
     /tmp/cc4YJ2eV.s:24     .text._ZN6Thread3runEv:0000000000000010 .L0 
     /tmp/cc4YJ2eV.s:25     .text._ZN6Thread3runEv:0000000000000010 .L0 
     /tmp/cc4YJ2eV.s:27     .text._ZN6Thread3runEv:0000000000000014 .L0 
     /tmp/cc4YJ2eV.s:29     .text._ZN6Thread3runEv:0000000000000018 .L0 
     /tmp/cc4YJ2eV.s:36     .text._ZN6Thread9myWrapperEPv:0000000000000000 _ZN6Thread9myWrapperEPv
     /tmp/cc4YJ2eV.s:39     .text._ZN6Thread9myWrapperEPv:0000000000000000 .L0 
     /tmp/cc4YJ2eV.s:41     .text._ZN6Thread9myWrapperEPv:0000000000000000 .L0 
     /tmp/cc4YJ2eV.s:42     .text._ZN6Thread9myWrapperEPv:0000000000000004 .L0 
     /tmp/cc4YJ2eV.s:45     .text._ZN6Thread9myWrapperEPv:000000000000000c .L0 
     /tmp/cc4YJ2eV.s:46     .text._ZN6Thread9myWrapperEPv:000000000000000c .L0 
     /tmp/cc4YJ2eV.s:48     .text._ZN6Thread9myWrapperEPv:0000000000000010 .L0 
     /tmp/cc4YJ2eV.s:51     .text._ZN6Thread9myWrapperEPv:0000000000000010 .L0 
     /tmp/cc4YJ2eV.s:52     .text._ZN6Thread9myWrapperEPv:0000000000000010 .L0 
     /tmp/cc4YJ2eV.s:53     .text._ZN6Thread9myWrapperEPv:0000000000000010 .L0 
     /tmp/cc4YJ2eV.s:56     .text._ZN6Thread9myWrapperEPv:0000000000000018 .L0 
     /tmp/cc4YJ2eV.s:59     .text._ZN6Thread9myWrapperEPv:000000000000001c .L0 
     /tmp/cc4YJ2eV.s:60     .text._ZN6Thread9myWrapperEPv:0000000000000020 .L0 
     /tmp/cc4YJ2eV.s:62     .text._ZN6Thread9myWrapperEPv:0000000000000024 .L0 
     /tmp/cc4YJ2eV.s:63     .text._ZN6Thread9myWrapperEPv:0000000000000024 .L0 
     /tmp/cc4YJ2eV.s:65     .text._ZN6Thread9myWrapperEPv:0000000000000028 .L0 
     /tmp/cc4YJ2eV.s:67     .text._ZN6Thread9myWrapperEPv:000000000000002c .L0 
     /tmp/cc4YJ2eV.s:74     .text._ZN14PeriodicThread18periodicActivationEv:0000000000000000 _ZN14PeriodicThread18periodicActivationEv
     /tmp/cc4YJ2eV.s:77     .text._ZN14PeriodicThread18periodicActivationEv:0000000000000000 .L0 
     /tmp/cc4YJ2eV.s:79     .text._ZN14PeriodicThread18periodicActivationEv:0000000000000000 .L0 
     /tmp/cc4YJ2eV.s:80     .text._ZN14PeriodicThread18periodicActivationEv:0000000000000004 .L0 
     /tmp/cc4YJ2eV.s:82     .text._ZN14PeriodicThread18periodicActivationEv:0000000000000008 .L0 
     /tmp/cc4YJ2eV.s:84     .text._ZN14PeriodicThread18periodicActivationEv:000000000000000c .L0 
     /tmp/cc4YJ2eV.s:86     .text._ZN14PeriodicThread18periodicActivationEv:000000000000000c .L0 
     /tmp/cc4YJ2eV.s:87     .text._ZN14PeriodicThread18periodicActivationEv:0000000000000010 .L0 
     /tmp/cc4YJ2eV.s:88     .text._ZN14PeriodicThread18periodicActivationEv:0000000000000010 .L0 
     /tmp/cc4YJ2eV.s:90     .text._ZN14PeriodicThread18periodicActivationEv:0000000000000014 .L0 
     /tmp/cc4YJ2eV.s:92     .text._ZN14PeriodicThread18periodicActivationEv:0000000000000018 .L0 
     /tmp/cc4YJ2eV.s:99     .text:0000000000000000 _ZN6ThreadD2Ev
     /tmp/cc4YJ2eV.s:102    .text:0000000000000000 .L0 
     /tmp/cc4YJ2eV.s:104    .text:0000000000000000 .L0 
     /tmp/cc4YJ2eV.s:105    .text:0000000000000004 .L0 
     /tmp/cc4YJ2eV.s:107    .text:0000000000000008 .L0 
     /tmp/cc4YJ2eV.s:109    .text:000000000000000c .L0 
     /tmp/cc4YJ2eV.s:111    .text:000000000000000c .L0 
     /tmp/cc4YJ2eV.s:112    .text:0000000000000010 .L0 
     /tmp/cc4YJ2eV.s:113    .text:0000000000000010 .L0 
     /tmp/cc4YJ2eV.s:115    .text:0000000000000014 .L0 
     /tmp/cc4YJ2eV.s:117    .text:0000000000000018 .L0 
     /tmp/cc4YJ2eV.s:99     .text:0000000000000000 _ZN6ThreadD1Ev
     /tmp/cc4YJ2eV.s:126    .text._ZN14PeriodicThreadD2Ev:0000000000000000 _ZN14PeriodicThreadD2Ev
     /tmp/cc4YJ2eV.s:129    .text._ZN14PeriodicThreadD2Ev:0000000000000000 .L0 
     /tmp/cc4YJ2eV.s:131    .text._ZN14PeriodicThreadD2Ev:0000000000000000 .L0 
     /tmp/cc4YJ2eV.s:132    .text._ZN14PeriodicThreadD2Ev:0000000000000004 .L0 
GAS LISTING /tmp/cc4YJ2eV.s 			page 21


     /tmp/cc4YJ2eV.s:134    .text._ZN14PeriodicThreadD2Ev:0000000000000008 .L0 
     /tmp/cc4YJ2eV.s:136    .text._ZN14PeriodicThreadD2Ev:000000000000000c .L0 
     /tmp/cc4YJ2eV.s:839    .data.rel.ro.local._ZTV14PeriodicThread:0000000000000000 _ZTV14PeriodicThread
     /tmp/cc4YJ2eV.s:139    .text._ZN14PeriodicThreadD2Ev:000000000000000c .L0 
     /tmp/cc4YJ2eV.s:143    .text._ZN14PeriodicThreadD2Ev:000000000000001c .L0 
     /tmp/cc4YJ2eV.s:144    .text._ZN14PeriodicThreadD2Ev:000000000000001c .L0 
     /tmp/cc4YJ2eV.s:146    .text._ZN14PeriodicThreadD2Ev:0000000000000020 .L0 
     /tmp/cc4YJ2eV.s:148    .text._ZN14PeriodicThreadD2Ev:0000000000000024 .L0 
     /tmp/cc4YJ2eV.s:126    .text._ZN14PeriodicThreadD2Ev:0000000000000000 _ZN14PeriodicThreadD1Ev
     /tmp/cc4YJ2eV.s:157    .text:0000000000000018 _ZN9SemaphoreD2Ev
     /tmp/cc4YJ2eV.s:161    .text:0000000000000018 .L0 
     /tmp/cc4YJ2eV.s:5077   .data.rel.local.DW.ref.__gxx_personality_v0:0000000000000000 DW.ref.__gxx_personality_v0
     /tmp/cc4YJ2eV.s:165    .text:0000000000000018 .L0 
     /tmp/cc4YJ2eV.s:166    .text:000000000000001c .L0 
     /tmp/cc4YJ2eV.s:169    .text:0000000000000024 .L0 
     /tmp/cc4YJ2eV.s:170    .text:0000000000000024 .L0 
     /tmp/cc4YJ2eV.s:172    .text:0000000000000028 .L0 
     /tmp/cc4YJ2eV.s:862    .data.rel.ro.local._ZTV9Semaphore:0000000000000000 _ZTV9Semaphore
     /tmp/cc4YJ2eV.s:175    .text:0000000000000028 .L0 
     /tmp/cc4YJ2eV.s:178    .text:0000000000000034 .L0 
     /tmp/cc4YJ2eV.s:179    .text:0000000000000034 .L0 
     /tmp/cc4YJ2eV.s:185    .text:0000000000000040 .L0 
     /tmp/cc4YJ2eV.s:186    .text:0000000000000044 .L0 
     /tmp/cc4YJ2eV.s:188    .text:0000000000000048 .L0 
     /tmp/cc4YJ2eV.s:189    .text:0000000000000048 .L0 
     /tmp/cc4YJ2eV.s:191    .text:000000000000004c .L0 
     /tmp/cc4YJ2eV.s:193    .text:0000000000000050 .L0 
     /tmp/cc4YJ2eV.s:157    .text:0000000000000018 _ZN9SemaphoreD1Ev
     /tmp/cc4YJ2eV.s:209    .text:0000000000000050 _Znwm
     /tmp/cc4YJ2eV.s:212    .text:0000000000000050 .L0 
     /tmp/cc4YJ2eV.s:214    .text:0000000000000050 .L0 
     /tmp/cc4YJ2eV.s:215    .text:0000000000000054 .L0 
     /tmp/cc4YJ2eV.s:218    .text:000000000000005c .L0 
     /tmp/cc4YJ2eV.s:219    .text:000000000000005c .L0 
     /tmp/cc4YJ2eV.s:221    .text:0000000000000060 .L0 
     /tmp/cc4YJ2eV.s:223    .text:0000000000000060 .L0 
     /tmp/cc4YJ2eV.s:224    .text:0000000000000060 .L0 
     /tmp/cc4YJ2eV.s:227    .text:0000000000000068 .L0 
     /tmp/cc4YJ2eV.s:228    .text:000000000000006c .L0 
     /tmp/cc4YJ2eV.s:230    .text:0000000000000070 .L0 
     /tmp/cc4YJ2eV.s:231    .text:0000000000000070 .L0 
     /tmp/cc4YJ2eV.s:233    .text:0000000000000074 .L0 
     /tmp/cc4YJ2eV.s:235    .text:0000000000000078 .L0 
     /tmp/cc4YJ2eV.s:241    .text:0000000000000078 _Znam
     /tmp/cc4YJ2eV.s:244    .text:0000000000000078 .L0 
     /tmp/cc4YJ2eV.s:246    .text:0000000000000078 .L0 
     /tmp/cc4YJ2eV.s:247    .text:000000000000007c .L0 
     /tmp/cc4YJ2eV.s:250    .text:0000000000000084 .L0 
     /tmp/cc4YJ2eV.s:251    .text:0000000000000084 .L0 
     /tmp/cc4YJ2eV.s:253    .text:0000000000000088 .L0 
     /tmp/cc4YJ2eV.s:255    .text:0000000000000088 .L0 
     /tmp/cc4YJ2eV.s:256    .text:0000000000000088 .L0 
     /tmp/cc4YJ2eV.s:259    .text:0000000000000090 .L0 
     /tmp/cc4YJ2eV.s:260    .text:0000000000000094 .L0 
     /tmp/cc4YJ2eV.s:262    .text:0000000000000098 .L0 
     /tmp/cc4YJ2eV.s:263    .text:0000000000000098 .L0 
     /tmp/cc4YJ2eV.s:265    .text:000000000000009c .L0 
GAS LISTING /tmp/cc4YJ2eV.s 			page 22


     /tmp/cc4YJ2eV.s:267    .text:00000000000000a0 .L0 
     /tmp/cc4YJ2eV.s:273    .text:00000000000000a0 _ZdlPv
     /tmp/cc4YJ2eV.s:276    .text:00000000000000a0 .L0 
     /tmp/cc4YJ2eV.s:278    .text:00000000000000a0 .L0 
     /tmp/cc4YJ2eV.s:279    .text:00000000000000a4 .L0 
     /tmp/cc4YJ2eV.s:282    .text:00000000000000ac .L0 
     /tmp/cc4YJ2eV.s:283    .text:00000000000000ac .L0 
     /tmp/cc4YJ2eV.s:285    .text:00000000000000b0 .L0 
     /tmp/cc4YJ2eV.s:287    .text:00000000000000b0 .L0 
     /tmp/cc4YJ2eV.s:288    .text:00000000000000b0 .L0 
     /tmp/cc4YJ2eV.s:291    .text:00000000000000b8 .L0 
     /tmp/cc4YJ2eV.s:292    .text:00000000000000bc .L0 
     /tmp/cc4YJ2eV.s:294    .text:00000000000000c0 .L0 
     /tmp/cc4YJ2eV.s:295    .text:00000000000000c0 .L0 
     /tmp/cc4YJ2eV.s:297    .text:00000000000000c4 .L0 
     /tmp/cc4YJ2eV.s:299    .text:00000000000000c8 .L0 
     /tmp/cc4YJ2eV.s:305    .text:00000000000000c8 _ZN6ThreadD0Ev
     /tmp/cc4YJ2eV.s:308    .text:00000000000000c8 .L0 
     /tmp/cc4YJ2eV.s:310    .text:00000000000000c8 .L0 
     /tmp/cc4YJ2eV.s:311    .text:00000000000000cc .L0 
     /tmp/cc4YJ2eV.s:314    .text:00000000000000d4 .L0 
     /tmp/cc4YJ2eV.s:315    .text:00000000000000d4 .L0 
     /tmp/cc4YJ2eV.s:317    .text:00000000000000d8 .L0 
     /tmp/cc4YJ2eV.s:319    .text:00000000000000d8 .L0 
     /tmp/cc4YJ2eV.s:322    .text:00000000000000e4 .L0 
     /tmp/cc4YJ2eV.s:324    .text:00000000000000e8 .L0 
     /tmp/cc4YJ2eV.s:325    .text:00000000000000e8 .L0 
     /tmp/cc4YJ2eV.s:327    .text:00000000000000ec .L0 
     /tmp/cc4YJ2eV.s:329    .text:00000000000000f0 .L0 
     /tmp/cc4YJ2eV.s:335    .text:00000000000000f0 _ZN9SemaphoreD0Ev
     /tmp/cc4YJ2eV.s:338    .text:00000000000000f0 .L0 
     /tmp/cc4YJ2eV.s:340    .text:00000000000000f0 .L0 
     /tmp/cc4YJ2eV.s:341    .text:00000000000000f4 .L0 
     /tmp/cc4YJ2eV.s:345    .text:0000000000000100 .L0 
     /tmp/cc4YJ2eV.s:346    .text:0000000000000100 .L0 
     /tmp/cc4YJ2eV.s:347    .text:0000000000000100 .L0 
     /tmp/cc4YJ2eV.s:349    .text:0000000000000104 .L0 
     /tmp/cc4YJ2eV.s:352    .text:0000000000000108 .L0 
     /tmp/cc4YJ2eV.s:358    .text:0000000000000120 .L0 
     /tmp/cc4YJ2eV.s:360    .text:0000000000000124 .L0 
     /tmp/cc4YJ2eV.s:361    .text:0000000000000124 .L0 
     /tmp/cc4YJ2eV.s:363    .text:0000000000000128 .L0 
     /tmp/cc4YJ2eV.s:366    .text:000000000000012c .L0 
     /tmp/cc4YJ2eV.s:368    .text:0000000000000130 .L0 
     /tmp/cc4YJ2eV.s:375    .text._ZN14PeriodicThreadD0Ev:0000000000000000 _ZN14PeriodicThreadD0Ev
     /tmp/cc4YJ2eV.s:378    .text._ZN14PeriodicThreadD0Ev:0000000000000000 .L0 
     /tmp/cc4YJ2eV.s:380    .text._ZN14PeriodicThreadD0Ev:0000000000000000 .L0 
     /tmp/cc4YJ2eV.s:381    .text._ZN14PeriodicThreadD0Ev:0000000000000004 .L0 
     /tmp/cc4YJ2eV.s:384    .text._ZN14PeriodicThreadD0Ev:000000000000000c .L0 
     /tmp/cc4YJ2eV.s:385    .text._ZN14PeriodicThreadD0Ev:000000000000000c .L0 
     /tmp/cc4YJ2eV.s:387    .text._ZN14PeriodicThreadD0Ev:0000000000000010 .L0 
     /tmp/cc4YJ2eV.s:392    .text._ZN14PeriodicThreadD0Ev:0000000000000010 .L0 
     /tmp/cc4YJ2eV.s:400    .text._ZN14PeriodicThreadD0Ev:0000000000000028 .L0 
     /tmp/cc4YJ2eV.s:402    .text._ZN14PeriodicThreadD0Ev:000000000000002c .L0 
     /tmp/cc4YJ2eV.s:403    .text._ZN14PeriodicThreadD0Ev:000000000000002c .L0 
     /tmp/cc4YJ2eV.s:405    .text._ZN14PeriodicThreadD0Ev:0000000000000030 .L0 
     /tmp/cc4YJ2eV.s:407    .text._ZN14PeriodicThreadD0Ev:0000000000000034 .L0 
GAS LISTING /tmp/cc4YJ2eV.s 			page 23


     /tmp/cc4YJ2eV.s:414    .text:0000000000000130 _ZdaPv
     /tmp/cc4YJ2eV.s:417    .text:0000000000000130 .L0 
     /tmp/cc4YJ2eV.s:419    .text:0000000000000130 .L0 
     /tmp/cc4YJ2eV.s:420    .text:0000000000000134 .L0 
     /tmp/cc4YJ2eV.s:423    .text:000000000000013c .L0 
     /tmp/cc4YJ2eV.s:424    .text:000000000000013c .L0 
     /tmp/cc4YJ2eV.s:426    .text:0000000000000140 .L0 
     /tmp/cc4YJ2eV.s:428    .text:0000000000000140 .L0 
     /tmp/cc4YJ2eV.s:429    .text:0000000000000140 .L0 
     /tmp/cc4YJ2eV.s:432    .text:0000000000000148 .L0 
     /tmp/cc4YJ2eV.s:433    .text:000000000000014c .L0 
     /tmp/cc4YJ2eV.s:435    .text:0000000000000150 .L0 
     /tmp/cc4YJ2eV.s:436    .text:0000000000000150 .L0 
     /tmp/cc4YJ2eV.s:438    .text:0000000000000154 .L0 
     /tmp/cc4YJ2eV.s:440    .text:0000000000000158 .L0 
     /tmp/cc4YJ2eV.s:446    .text:0000000000000158 _ZN6Thread5startEv
     /tmp/cc4YJ2eV.s:449    .text:0000000000000158 .L0 
     /tmp/cc4YJ2eV.s:451    .text:0000000000000158 .L0 
     /tmp/cc4YJ2eV.s:452    .text:000000000000015c .L0 
     /tmp/cc4YJ2eV.s:455    .text:0000000000000164 .L0 
     /tmp/cc4YJ2eV.s:456    .text:0000000000000164 .L0 
     /tmp/cc4YJ2eV.s:458    .text:0000000000000168 .L0 
     /tmp/cc4YJ2eV.s:460    .text:0000000000000168 .L0 
     /tmp/cc4YJ2eV.s:461    .text:0000000000000168 .L0 
     /tmp/cc4YJ2eV.s:466    .text:0000000000000174 .L0 
     /tmp/cc4YJ2eV.s:467    .text:0000000000000174 .L0 
     /tmp/cc4YJ2eV.s:469    .text:000000000000017c .L0 
     /tmp/cc4YJ2eV.s:471    .text:0000000000000180 .L0 
     /tmp/cc4YJ2eV.s:472    .text:0000000000000180 .L0 
     /tmp/cc4YJ2eV.s:474    .text:0000000000000184 .L0 
     /tmp/cc4YJ2eV.s:476    .text:0000000000000188 .L0 
     /tmp/cc4YJ2eV.s:482    .text:0000000000000188 _ZN6Thread8dispatchEv
     /tmp/cc4YJ2eV.s:485    .text:0000000000000188 .L0 
     /tmp/cc4YJ2eV.s:486    .text:0000000000000188 .L0 
     /tmp/cc4YJ2eV.s:487    .text:000000000000018c .L0 
     /tmp/cc4YJ2eV.s:490    .text:0000000000000194 .L0 
     /tmp/cc4YJ2eV.s:491    .text:0000000000000194 .L0 
     /tmp/cc4YJ2eV.s:493    .text:0000000000000198 .L0 
     /tmp/cc4YJ2eV.s:495    .text:0000000000000198 .L0 
     /tmp/cc4YJ2eV.s:496    .text:0000000000000198 .L0 
     /tmp/cc4YJ2eV.s:499    .text:00000000000001a0 .L0 
     /tmp/cc4YJ2eV.s:500    .text:00000000000001a4 .L0 
     /tmp/cc4YJ2eV.s:502    .text:00000000000001a8 .L0 
     /tmp/cc4YJ2eV.s:503    .text:00000000000001a8 .L0 
     /tmp/cc4YJ2eV.s:505    .text:00000000000001ac .L0 
     /tmp/cc4YJ2eV.s:507    .text:00000000000001b0 .L0 
     /tmp/cc4YJ2eV.s:513    .text:00000000000001b0 _ZN6ThreadC2EPFvPvES0_
     /tmp/cc4YJ2eV.s:516    .text:00000000000001b0 .L0 
     /tmp/cc4YJ2eV.s:518    .text:00000000000001b0 .L0 
     /tmp/cc4YJ2eV.s:519    .text:00000000000001b4 .L0 
     /tmp/cc4YJ2eV.s:522    .text:00000000000001bc .L0 
     /tmp/cc4YJ2eV.s:523    .text:00000000000001bc .L0 
     /tmp/cc4YJ2eV.s:525    .text:00000000000001c0 .L0 
     /tmp/cc4YJ2eV.s:851    .data.rel.ro.local._ZTV6Thread:0000000000000000 _ZTV6Thread
     /tmp/cc4YJ2eV.s:528    .text:00000000000001c0 .L0 
     /tmp/cc4YJ2eV.s:531    .text:00000000000001cc .L0 
     /tmp/cc4YJ2eV.s:532    .text:00000000000001cc .L0 
GAS LISTING /tmp/cc4YJ2eV.s 			page 24


     /tmp/cc4YJ2eV.s:538    .text:00000000000001d8 .L0 
     /tmp/cc4YJ2eV.s:539    .text:00000000000001dc .L0 
     /tmp/cc4YJ2eV.s:541    .text:00000000000001e0 .L0 
     /tmp/cc4YJ2eV.s:542    .text:00000000000001e0 .L0 
     /tmp/cc4YJ2eV.s:544    .text:00000000000001e4 .L0 
     /tmp/cc4YJ2eV.s:546    .text:00000000000001e8 .L0 
     /tmp/cc4YJ2eV.s:513    .text:00000000000001b0 _ZN6ThreadC1EPFvPvES0_
     /tmp/cc4YJ2eV.s:554    .text:00000000000001e8 _ZN6ThreadC2Ev
     /tmp/cc4YJ2eV.s:557    .text:00000000000001e8 .L0 
     /tmp/cc4YJ2eV.s:559    .text:00000000000001e8 .L0 
     /tmp/cc4YJ2eV.s:560    .text:00000000000001ec .L0 
     /tmp/cc4YJ2eV.s:563    .text:00000000000001f4 .L0 
     /tmp/cc4YJ2eV.s:564    .text:00000000000001f4 .L0 
     /tmp/cc4YJ2eV.s:566    .text:00000000000001f8 .L0 
     /tmp/cc4YJ2eV.s:569    .text:00000000000001f8 .L0 
     /tmp/cc4YJ2eV.s:572    .text:0000000000000204 .L0 
     /tmp/cc4YJ2eV.s:573    .text:0000000000000204 .L0 
     /tmp/cc4YJ2eV.s:581    .text:000000000000021c .L0 
     /tmp/cc4YJ2eV.s:582    .text:0000000000000220 .L0 
     /tmp/cc4YJ2eV.s:584    .text:0000000000000224 .L0 
     /tmp/cc4YJ2eV.s:585    .text:0000000000000224 .L0 
     /tmp/cc4YJ2eV.s:587    .text:0000000000000228 .L0 
     /tmp/cc4YJ2eV.s:589    .text:000000000000022c .L0 
     /tmp/cc4YJ2eV.s:554    .text:00000000000001e8 _ZN6ThreadC1Ev
     /tmp/cc4YJ2eV.s:597    .text:000000000000022c _ZN6Thread5sleepEm
     /tmp/cc4YJ2eV.s:600    .text:000000000000022c .L0 
     /tmp/cc4YJ2eV.s:601    .text:000000000000022c .L0 
     /tmp/cc4YJ2eV.s:602    .text:0000000000000230 .L0 
     /tmp/cc4YJ2eV.s:604    .text:0000000000000234 .L0 
     /tmp/cc4YJ2eV.s:606    .text:0000000000000238 .L0 
     /tmp/cc4YJ2eV.s:608    .text:0000000000000238 .L0 
     /tmp/cc4YJ2eV.s:609    .text:0000000000000238 .L0 
     /tmp/cc4YJ2eV.s:611    .text:0000000000000240 .L0 
     /tmp/cc4YJ2eV.s:612    .text:0000000000000240 .L0 
     /tmp/cc4YJ2eV.s:614    .text:0000000000000244 .L0 
     /tmp/cc4YJ2eV.s:616    .text:0000000000000248 .L0 
     /tmp/cc4YJ2eV.s:622    .text:0000000000000248 _ZN9SemaphoreC2Ej
     /tmp/cc4YJ2eV.s:625    .text:0000000000000248 .L0 
     /tmp/cc4YJ2eV.s:627    .text:0000000000000248 .L0 
     /tmp/cc4YJ2eV.s:628    .text:000000000000024c .L0 
     /tmp/cc4YJ2eV.s:631    .text:0000000000000254 .L0 
     /tmp/cc4YJ2eV.s:632    .text:0000000000000254 .L0 
     /tmp/cc4YJ2eV.s:634    .text:0000000000000258 .L0 
     /tmp/cc4YJ2eV.s:637    .text:0000000000000258 .L0 
     /tmp/cc4YJ2eV.s:640    .text:0000000000000264 .L0 
     /tmp/cc4YJ2eV.s:641    .text:0000000000000264 .L0 
     /tmp/cc4YJ2eV.s:647    .text:0000000000000270 .L0 
     /tmp/cc4YJ2eV.s:648    .text:0000000000000274 .L0 
     /tmp/cc4YJ2eV.s:650    .text:0000000000000278 .L0 
     /tmp/cc4YJ2eV.s:651    .text:0000000000000278 .L0 
     /tmp/cc4YJ2eV.s:653    .text:000000000000027c .L0 
     /tmp/cc4YJ2eV.s:655    .text:0000000000000280 .L0 
     /tmp/cc4YJ2eV.s:622    .text:0000000000000248 _ZN9SemaphoreC1Ej
     /tmp/cc4YJ2eV.s:663    .text:0000000000000280 _ZN9Semaphore4waitEv
     /tmp/cc4YJ2eV.s:666    .text:0000000000000280 .L0 
     /tmp/cc4YJ2eV.s:668    .text:0000000000000280 .L0 
     /tmp/cc4YJ2eV.s:669    .text:0000000000000284 .L0 
GAS LISTING /tmp/cc4YJ2eV.s 			page 25


     /tmp/cc4YJ2eV.s:672    .text:000000000000028c .L0 
     /tmp/cc4YJ2eV.s:673    .text:000000000000028c .L0 
     /tmp/cc4YJ2eV.s:675    .text:0000000000000290 .L0 
     /tmp/cc4YJ2eV.s:677    .text:0000000000000290 .L0 
     /tmp/cc4YJ2eV.s:678    .text:0000000000000290 .L0 
     /tmp/cc4YJ2eV.s:683    .text:000000000000029c .L0 
     /tmp/cc4YJ2eV.s:684    .text:00000000000002a0 .L0 
     /tmp/cc4YJ2eV.s:686    .text:00000000000002a4 .L0 
     /tmp/cc4YJ2eV.s:687    .text:00000000000002a4 .L0 
     /tmp/cc4YJ2eV.s:689    .text:00000000000002a8 .L0 
     /tmp/cc4YJ2eV.s:691    .text:00000000000002ac .L0 
     /tmp/cc4YJ2eV.s:697    .text:00000000000002ac _ZN9Semaphore6signalEv
     /tmp/cc4YJ2eV.s:700    .text:00000000000002ac .L0 
     /tmp/cc4YJ2eV.s:702    .text:00000000000002ac .L0 
     /tmp/cc4YJ2eV.s:703    .text:00000000000002b0 .L0 
     /tmp/cc4YJ2eV.s:706    .text:00000000000002b8 .L0 
     /tmp/cc4YJ2eV.s:707    .text:00000000000002b8 .L0 
     /tmp/cc4YJ2eV.s:709    .text:00000000000002bc .L0 
     /tmp/cc4YJ2eV.s:711    .text:00000000000002bc .L0 
     /tmp/cc4YJ2eV.s:712    .text:00000000000002bc .L0 
     /tmp/cc4YJ2eV.s:717    .text:00000000000002c8 .L0 
     /tmp/cc4YJ2eV.s:718    .text:00000000000002cc .L0 
     /tmp/cc4YJ2eV.s:720    .text:00000000000002d0 .L0 
     /tmp/cc4YJ2eV.s:721    .text:00000000000002d0 .L0 
     /tmp/cc4YJ2eV.s:723    .text:00000000000002d4 .L0 
     /tmp/cc4YJ2eV.s:725    .text:00000000000002d8 .L0 
     /tmp/cc4YJ2eV.s:731    .text:00000000000002d8 _ZN14PeriodicThreadC2Em
     /tmp/cc4YJ2eV.s:734    .text:00000000000002d8 .L0 
     /tmp/cc4YJ2eV.s:736    .text:00000000000002d8 .L0 
     /tmp/cc4YJ2eV.s:737    .text:00000000000002dc .L0 
     /tmp/cc4YJ2eV.s:741    .text:00000000000002e8 .L0 
     /tmp/cc4YJ2eV.s:742    .text:00000000000002e8 .L0 
     /tmp/cc4YJ2eV.s:743    .text:00000000000002e8 .L0 
     /tmp/cc4YJ2eV.s:745    .text:00000000000002ec .L0 
     /tmp/cc4YJ2eV.s:749    .text:00000000000002f0 .L0 
     /tmp/cc4YJ2eV.s:755    .text:0000000000000304 .L0 
     /tmp/cc4YJ2eV.s:756    .text:0000000000000308 .L0 
     /tmp/cc4YJ2eV.s:758    .text:000000000000030c .L0 
     /tmp/cc4YJ2eV.s:759    .text:000000000000030c .L0 
     /tmp/cc4YJ2eV.s:761    .text:0000000000000310 .L0 
     /tmp/cc4YJ2eV.s:764    .text:0000000000000314 .L0 
     /tmp/cc4YJ2eV.s:766    .text:0000000000000318 .L0 
     /tmp/cc4YJ2eV.s:731    .text:00000000000002d8 _ZN14PeriodicThreadC1Em
     /tmp/cc4YJ2eV.s:774    .text:0000000000000318 _ZN7Console4getcEv
     /tmp/cc4YJ2eV.s:777    .text:0000000000000318 .L0 
     /tmp/cc4YJ2eV.s:778    .text:0000000000000318 .L0 
     /tmp/cc4YJ2eV.s:779    .text:000000000000031c .L0 
     /tmp/cc4YJ2eV.s:782    .text:0000000000000324 .L0 
     /tmp/cc4YJ2eV.s:783    .text:0000000000000324 .L0 
     /tmp/cc4YJ2eV.s:785    .text:0000000000000328 .L0 
     /tmp/cc4YJ2eV.s:787    .text:0000000000000328 .L0 
     /tmp/cc4YJ2eV.s:788    .text:0000000000000328 .L0 
     /tmp/cc4YJ2eV.s:791    .text:0000000000000330 .L0 
     /tmp/cc4YJ2eV.s:792    .text:0000000000000334 .L0 
     /tmp/cc4YJ2eV.s:794    .text:0000000000000338 .L0 
     /tmp/cc4YJ2eV.s:795    .text:0000000000000338 .L0 
     /tmp/cc4YJ2eV.s:797    .text:000000000000033c .L0 
GAS LISTING /tmp/cc4YJ2eV.s 			page 26


     /tmp/cc4YJ2eV.s:799    .text:0000000000000340 .L0 
     /tmp/cc4YJ2eV.s:805    .text:0000000000000340 _ZN7Console4putcEc
     /tmp/cc4YJ2eV.s:808    .text:0000000000000340 .L0 
     /tmp/cc4YJ2eV.s:810    .text:0000000000000340 .L0 
     /tmp/cc4YJ2eV.s:811    .text:0000000000000344 .L0 
     /tmp/cc4YJ2eV.s:814    .text:000000000000034c .L0 
     /tmp/cc4YJ2eV.s:815    .text:000000000000034c .L0 
     /tmp/cc4YJ2eV.s:817    .text:0000000000000350 .L0 
     /tmp/cc4YJ2eV.s:819    .text:0000000000000350 .L0 
     /tmp/cc4YJ2eV.s:820    .text:0000000000000350 .L0 
     /tmp/cc4YJ2eV.s:823    .text:0000000000000358 .L0 
     /tmp/cc4YJ2eV.s:824    .text:000000000000035c .L0 
     /tmp/cc4YJ2eV.s:826    .text:0000000000000360 .L0 
     /tmp/cc4YJ2eV.s:827    .text:0000000000000360 .L0 
     /tmp/cc4YJ2eV.s:829    .text:0000000000000364 .L0 
     /tmp/cc4YJ2eV.s:831    .text:0000000000000368 .L0 
     /tmp/cc4YJ2eV.s:32     .text._ZN6Thread3runEv:0000000000000018 .L0 
     /tmp/cc4YJ2eV.s:70     .text._ZN6Thread9myWrapperEPv:000000000000002c .L0 
     /tmp/cc4YJ2eV.s:95     .text._ZN14PeriodicThread18periodicActivationEv:0000000000000018 .L0 
     /tmp/cc4YJ2eV.s:876    .text:0000000000000368 .L0 
     /tmp/cc4YJ2eV.s:153    .text._ZN14PeriodicThreadD2Ev:0000000000000024 .L0 
     /tmp/cc4YJ2eV.s:410    .text._ZN14PeriodicThreadD0Ev:0000000000000034 .L0 
     /tmp/cc4YJ2eV.s:175    .text:0000000000000028 .L0 
     /tmp/cc4YJ2eV.s:528    .text:00000000000001c0 .L0 
     /tmp/cc4YJ2eV.s:569    .text:00000000000001f8 .L0 
     /tmp/cc4YJ2eV.s:574    .text:0000000000000208 .L0 
     /tmp/cc4YJ2eV.s:637    .text:0000000000000258 .L0 
     /tmp/cc4YJ2eV.s:751    .text:00000000000002f8 .L0 
     /tmp/cc4YJ2eV.s:139    .text._ZN14PeriodicThreadD2Ev:000000000000000c .L0 
     /tmp/cc4YJ2eV.s:392    .text._ZN14PeriodicThreadD0Ev:0000000000000010 .L0 
     /tmp/cc4YJ2eV.s:2923   .debug_abbrev:0000000000000000 .Ldebug_abbrev0
     /tmp/cc4YJ2eV.s:4995   .debug_str:0000000000000a75 .LASF193
     /tmp/cc4YJ2eV.s:4801   .debug_str:0000000000000462 .LASF194
     /tmp/cc4YJ2eV.s:4771   .debug_str:00000000000003a7 .LASF195
     /tmp/cc4YJ2eV.s:4641   .debug_ranges:0000000000000000 .Ldebug_ranges0
     /tmp/cc4YJ2eV.s:4657   .debug_line:0000000000000000 .Ldebug_line0
     /tmp/cc4YJ2eV.s:4791   .debug_str:0000000000000426 .LASF0
     /tmp/cc4YJ2eV.s:4819   .debug_str:000000000000050e .LASF1
     /tmp/cc4YJ2eV.s:4933   .debug_str:000000000000087b .LASF2
     /tmp/cc4YJ2eV.s:4941   .debug_str:00000000000008ba .LASF4
     /tmp/cc4YJ2eV.s:4803   .debug_str:0000000000000476 .LASF3
     /tmp/cc4YJ2eV.s:4677   .debug_str:00000000000000a6 .LASF5
     /tmp/cc4YJ2eV.s:4895   .debug_str:0000000000000763 .LASF6
     /tmp/cc4YJ2eV.s:4887   .debug_str:0000000000000710 .LASF7
     /tmp/cc4YJ2eV.s:4813   .debug_str:00000000000004ed .LASF8
     /tmp/cc4YJ2eV.s:4769   .debug_str:0000000000000397 .LASF9
     /tmp/cc4YJ2eV.s:4777   .debug_str:00000000000003e4 .LASF10
     /tmp/cc4YJ2eV.s:4715   .debug_str:00000000000001b9 .LASF11
     /tmp/cc4YJ2eV.s:4763   .debug_str:0000000000000360 .LASF12
     /tmp/cc4YJ2eV.s:4731   .debug_str:000000000000022d .LASF13
     /tmp/cc4YJ2eV.s:4713   .debug_str:00000000000001a9 .LASF14
     /tmp/cc4YJ2eV.s:4969   .debug_str:000000000000099b .LASF15
     /tmp/cc4YJ2eV.s:4749   .debug_str:00000000000002c0 .LASF16
     /tmp/cc4YJ2eV.s:4959   .debug_str:0000000000000927 .LASF17
     /tmp/cc4YJ2eV.s:4883   .debug_str:00000000000006f4 .LASF31
     /tmp/cc4YJ2eV.s:4695   .debug_str:0000000000000126 .LASF55
     /tmp/cc4YJ2eV.s:4717   .debug_str:00000000000001c8 .LASF18
GAS LISTING /tmp/cc4YJ2eV.s 			page 27


     /tmp/cc4YJ2eV.s:4693   .debug_str:0000000000000121 .LASF19
     /tmp/cc4YJ2eV.s:4817   .debug_str:0000000000000509 .LASF20
     /tmp/cc4YJ2eV.s:4719   .debug_str:00000000000001cd .LASF21
     /tmp/cc4YJ2eV.s:4861   .debug_str:0000000000000661 .LASF22
     /tmp/cc4YJ2eV.s:4955   .debug_str:0000000000000910 .LASF23
     /tmp/cc4YJ2eV.s:4785   .debug_str:000000000000040a .LASF24
     /tmp/cc4YJ2eV.s:4891   .debug_str:0000000000000730 .LASF26
     /tmp/cc4YJ2eV.s:5005   .debug_str:0000000000000b79 .LASF25
     /tmp/cc4YJ2eV.s:4747   .debug_str:000000000000029f .LASF27
     /tmp/cc4YJ2eV.s:5039   .debug_str:0000000000000cc3 .LASF77
     /tmp/cc4YJ2eV.s:4853   .debug_str:0000000000000612 .LASF79
     /tmp/cc4YJ2eV.s:4661   .debug_str:000000000000002a .LASF34
     /tmp/cc4YJ2eV.s:4827   .debug_str:0000000000000539 .LASF36
     /tmp/cc4YJ2eV.s:5011   .debug_str:0000000000000ba7 .LASF28
     /tmp/cc4YJ2eV.s:4805   .debug_str:0000000000000488 .LASF29
     /tmp/cc4YJ2eV.s:4981   .debug_str:00000000000009f4 .LASF30
     /tmp/cc4YJ2eV.s:5033   .debug_str:0000000000000c8c .LASF32
     /tmp/cc4YJ2eV.s:5019   .debug_str:0000000000000bf8 .LASF196
     /tmp/cc4YJ2eV.s:4963   .debug_str:0000000000000950 .LASF33
     /tmp/cc4YJ2eV.s:4855   .debug_str:000000000000063e .LASF35
     /tmp/cc4YJ2eV.s:4961   .debug_str:000000000000093d .LASF37
     /tmp/cc4YJ2eV.s:4757   .debug_str:0000000000000327 .LASF47
     /tmp/cc4YJ2eV.s:4937   .debug_str:0000000000000898 .LASF128
     /tmp/cc4YJ2eV.s:4923   .debug_str:0000000000000828 .LASF130
     /tmp/cc4YJ2eV.s:5061   .debug_str:0000000000000d9e .LASF38
     /tmp/cc4YJ2eV.s:4897   .debug_str:000000000000076a .LASF39
     /tmp/cc4YJ2eV.s:4665   .debug_str:0000000000000036 .LASF40
     /tmp/cc4YJ2eV.s:4863   .debug_str:0000000000000666 .LASF41
     /tmp/cc4YJ2eV.s:4815   .debug_str:0000000000000500 .LASF42
     /tmp/cc4YJ2eV.s:4707   .debug_str:0000000000000166 .LASF43
     /tmp/cc4YJ2eV.s:4839   .debug_str:00000000000005c7 .LASF44
     /tmp/cc4YJ2eV.s:4753   .debug_str:00000000000002fc .LASF45
     /tmp/cc4YJ2eV.s:4885   .debug_str:0000000000000704 .LASF46
     /tmp/cc4YJ2eV.s:5035   .debug_str:0000000000000c96 .LASF48
     /tmp/cc4YJ2eV.s:5067   .debug_str:0000000000000dbf .LASF49
     /tmp/cc4YJ2eV.s:5053   .debug_str:0000000000000d43 .LASF50
     /tmp/cc4YJ2eV.s:4949   .debug_str:00000000000008e9 .LASF51
     /tmp/cc4YJ2eV.s:4811   .debug_str:00000000000004d0 .LASF52
     /tmp/cc4YJ2eV.s:4915   .debug_str:0000000000000801 .LASF53
     /tmp/cc4YJ2eV.s:4669   .debug_str:000000000000004e .LASF54
     /tmp/cc4YJ2eV.s:4977   .debug_str:00000000000009e1 .LASF56
     /tmp/cc4YJ2eV.s:4705   .debug_str:0000000000000158 .LASF90
     /tmp/cc4YJ2eV.s:4831   .debug_str:0000000000000564 .LASF92
     /tmp/cc4YJ2eV.s:4727   .debug_str:000000000000020f .LASF83
     /tmp/cc4YJ2eV.s:4943   .debug_str:00000000000008c1 .LASF57
     /tmp/cc4YJ2eV.s:4673   .debug_str:0000000000000090 .LASF58
     /tmp/cc4YJ2eV.s:4979   .debug_str:00000000000009e9 .LASF59
     /tmp/cc4YJ2eV.s:4859   .debug_str:000000000000064a .LASF60
     /tmp/cc4YJ2eV.s:4701   .debug_str:0000000000000147 .LASF61
     /tmp/cc4YJ2eV.s:5013   .debug_str:0000000000000bac .LASF62
     /tmp/cc4YJ2eV.s:4829   .debug_str:0000000000000557 .LASF63
     /tmp/cc4YJ2eV.s:5023   .debug_str:0000000000000c21 .LASF64
     /tmp/cc4YJ2eV.s:4879   .debug_str:00000000000006d9 .LASF197
     /tmp/cc4YJ2eV.s:4907   .debug_str:00000000000007cd .LASF65
     /tmp/cc4YJ2eV.s:4845   .debug_str:00000000000005e3 .LASF66
     /tmp/cc4YJ2eV.s:4857   .debug_str:0000000000000643 .LASF67
     /tmp/cc4YJ2eV.s:4689   .debug_str:000000000000010a .LASF68
GAS LISTING /tmp/cc4YJ2eV.s 			page 28


     /tmp/cc4YJ2eV.s:4773   .debug_str:00000000000003c5 .LASF69
     /tmp/cc4YJ2eV.s:4843   .debug_str:00000000000005d6 .LASF70
     /tmp/cc4YJ2eV.s:4967   .debug_str:000000000000098e .LASF71
     /tmp/cc4YJ2eV.s:5025   .debug_str:0000000000000c3a .LASF72
     /tmp/cc4YJ2eV.s:4751   .debug_str:00000000000002d6 .LASF73
     /tmp/cc4YJ2eV.s:4965   .debug_str:0000000000000955 .LASF74
     /tmp/cc4YJ2eV.s:4755   .debug_str:0000000000000318 .LASF75
     /tmp/cc4YJ2eV.s:5007   .debug_str:0000000000000b83 .LASF76
     /tmp/cc4YJ2eV.s:4823   .debug_str:000000000000052c .LASF78
     /tmp/cc4YJ2eV.s:4999   .debug_str:0000000000000b48 .LASF80
     /tmp/cc4YJ2eV.s:5055   .debug_str:0000000000000d5e .LASF81
     /tmp/cc4YJ2eV.s:5049   .debug_str:0000000000000d1c .LASF82
     /tmp/cc4YJ2eV.s:4991   .debug_str:0000000000000a4b .LASF198
     /tmp/cc4YJ2eV.s:4899   .debug_str:000000000000077d .LASF84
     /tmp/cc4YJ2eV.s:4663   .debug_str:0000000000000031 .LASF85
     /tmp/cc4YJ2eV.s:4739   .debug_str:0000000000000278 .LASF86
     /tmp/cc4YJ2eV.s:5009   .debug_str:0000000000000b9f .LASF87
     /tmp/cc4YJ2eV.s:5003   .debug_str:0000000000000b6f .LASF88
     /tmp/cc4YJ2eV.s:4957   .debug_str:000000000000091e .LASF89
     /tmp/cc4YJ2eV.s:4735   .debug_str:0000000000000257 .LASF122
     /tmp/cc4YJ2eV.s:4671   .debug_str:0000000000000068 .LASF124
     /tmp/cc4YJ2eV.s:4741   .debug_str:000000000000027e .LASF91
     /tmp/cc4YJ2eV.s:4809   .debug_str:00000000000004bd .LASF93
     /tmp/cc4YJ2eV.s:4835   .debug_str:0000000000000595 .LASF94
     /tmp/cc4YJ2eV.s:5021   .debug_str:0000000000000bfd .LASF95
     /tmp/cc4YJ2eV.s:5063   .debug_str:0000000000000dab .LASF96
     /tmp/cc4YJ2eV.s:4893   .debug_str:000000000000074d .LASF97
     /tmp/cc4YJ2eV.s:4945   .debug_str:00000000000008c6 .LASF98
     /tmp/cc4YJ2eV.s:5031   .debug_str:0000000000000c83 .LASF99
     /tmp/cc4YJ2eV.s:4919   .debug_str:000000000000081a .LASF100
     /tmp/cc4YJ2eV.s:5045   .debug_str:0000000000000cfd .LASF101
     /tmp/cc4YJ2eV.s:4821   .debug_str:0000000000000521 .LASF102
     /tmp/cc4YJ2eV.s:4875   .debug_str:00000000000006be .LASF103
     /tmp/cc4YJ2eV.s:4743   .debug_str:0000000000000287 .LASF104
     /tmp/cc4YJ2eV.s:4709   .debug_str:0000000000000183 .LASF105
     /tmp/cc4YJ2eV.s:4971   .debug_str:00000000000009a7 .LASF106
     /tmp/cc4YJ2eV.s:4685   .debug_str:00000000000000eb .LASF107
     /tmp/cc4YJ2eV.s:4783   .debug_str:0000000000000404 .LASF108
     /tmp/cc4YJ2eV.s:4837   .debug_str:00000000000005ae .LASF109
     /tmp/cc4YJ2eV.s:4931   .debug_str:000000000000086b .LASF110
     /tmp/cc4YJ2eV.s:4765   .debug_str:000000000000036f .LASF111
     /tmp/cc4YJ2eV.s:4997   .debug_str:0000000000000b39 .LASF112
     /tmp/cc4YJ2eV.s:4905   .debug_str:00000000000007ab .LASF113
     /tmp/cc4YJ2eV.s:4789   .debug_str:0000000000000420 .LASF114
     /tmp/cc4YJ2eV.s:4833   .debug_str:000000000000057d .LASF115
     /tmp/cc4YJ2eV.s:4667   .debug_str:0000000000000046 .LASF116
     /tmp/cc4YJ2eV.s:5027   .debug_str:0000000000000c5a .LASF117
     /tmp/cc4YJ2eV.s:4951   .debug_str:00000000000008f4 .LASF118
     /tmp/cc4YJ2eV.s:5041   .debug_str:0000000000000cd7 .LASF119
     /tmp/cc4YJ2eV.s:4873   .debug_str:00000000000006b6 .LASF120
     /tmp/cc4YJ2eV.s:4847   .debug_str:00000000000005f5 .LASF121
     /tmp/cc4YJ2eV.s:4795   .debug_str:0000000000000445 .LASF199
     /tmp/cc4YJ2eV.s:4737   .debug_str:0000000000000265 .LASF200
     /tmp/cc4YJ2eV.s:4851   .debug_str:000000000000060d .LASF123
     /tmp/cc4YJ2eV.s:4745   .debug_str:000000000000028c .LASF125
     /tmp/cc4YJ2eV.s:4901   .debug_str:0000000000000792 .LASF126
     /tmp/cc4YJ2eV.s:4987   .debug_str:0000000000000a23 .LASF136
GAS LISTING /tmp/cc4YJ2eV.s 			page 29


     /tmp/cc4YJ2eV.s:4721   .debug_str:00000000000001db .LASF138
     /tmp/cc4YJ2eV.s:4985   .debug_str:0000000000000a11 .LASF127
     /tmp/cc4YJ2eV.s:4911   .debug_str:00000000000007ec .LASF129
     /tmp/cc4YJ2eV.s:4947   .debug_str:00000000000008d7 .LASF131
     /tmp/cc4YJ2eV.s:4723   .debug_str:00000000000001eb .LASF132
     /tmp/cc4YJ2eV.s:4679   .debug_str:00000000000000ad .LASF133
     /tmp/cc4YJ2eV.s:4797   .debug_str:000000000000044a .LASF134
     /tmp/cc4YJ2eV.s:4787   .debug_str:0000000000000410 .LASF201
     /tmp/cc4YJ2eV.s:4781   .debug_str:00000000000003fd .LASF135
     /tmp/cc4YJ2eV.s:4729   .debug_str:000000000000021b .LASF137
     /tmp/cc4YJ2eV.s:4925   .debug_str:000000000000083f .LASF139
     /tmp/cc4YJ2eV.s:5057   .debug_str:0000000000000d74 .LASF140
     /tmp/cc4YJ2eV.s:4953   .debug_str:0000000000000908 .LASF147
     /tmp/cc4YJ2eV.s:4711   .debug_str:000000000000019a .LASF153
     /tmp/cc4YJ2eV.s:5051   .debug_str:0000000000000d3d .LASF141
     /tmp/cc4YJ2eV.s:4989   .debug_str:0000000000000a38 .LASF142
     /tmp/cc4YJ2eV.s:4881   .debug_str:00000000000006de .LASF143
     /tmp/cc4YJ2eV.s:4691   .debug_str:000000000000011b .LASF144
     /tmp/cc4YJ2eV.s:4865   .debug_str:000000000000067a .LASF145
     /tmp/cc4YJ2eV.s:4799   .debug_str:0000000000000453 .LASF146
     /tmp/cc4YJ2eV.s:5043   .debug_str:0000000000000cec .LASF202
     /tmp/cc4YJ2eV.s:4697   .debug_str:0000000000000136 .LASF203
     /tmp/cc4YJ2eV.s:4939   .debug_str:00000000000008a2 .LASF204
     /tmp/cc4YJ2eV.s:4725   .debug_str:0000000000000200 .LASF148
     /tmp/cc4YJ2eV.s:5015   .debug_str:0000000000000bc3 .LASF149
     /tmp/cc4YJ2eV.s:5017   .debug_str:0000000000000bdd .LASF150
     /tmp/cc4YJ2eV.s:4973   .debug_str:00000000000009ae .LASF151
     /tmp/cc4YJ2eV.s:4775   .debug_str:00000000000003d1 .LASF152
     /tmp/cc4YJ2eV.s:4659   .debug_str:0000000000000000 .LASF154
     /tmp/cc4YJ2eV.s:4867   .debug_str:000000000000068d .LASF155
     /tmp/cc4YJ2eV.s:4983   .debug_str:00000000000009f9 .LASF205
     /tmp/cc4YJ2eV.s:4767   .debug_str:0000000000000392 .LASF156
     /tmp/cc4YJ2eV.s:4675   .debug_str:000000000000009c .LASF157
     /tmp/cc4YJ2eV.s:5069   .debug_str:0000000000000dc9 .LASF158
     /tmp/cc4YJ2eV.s:376    .text._ZN14PeriodicThreadD0Ev:0000000000000000 .LFB70
     /tmp/cc4YJ2eV.s:408    .text._ZN14PeriodicThreadD0Ev:0000000000000034 .LFE70
     /tmp/cc4YJ2eV.s:4273   .debug_loc:0000000000000000 .LLST8
     /tmp/cc4YJ2eV.s:389    .text._ZN14PeriodicThreadD0Ev:0000000000000010 .LBB7
     /tmp/cc4YJ2eV.s:396    .text._ZN14PeriodicThreadD0Ev:000000000000001c .LBE7
     /tmp/cc4YJ2eV.s:4287   .debug_loc:0000000000000039 .LLST9
     /tmp/cc4YJ2eV.s:398    .text._ZN14PeriodicThreadD0Ev:0000000000000024 .LVL25
     /tmp/cc4YJ2eV.s:4929   .debug_str:0000000000000853 .LASF159
     /tmp/cc4YJ2eV.s:127    .text._ZN14PeriodicThreadD2Ev:0000000000000000 .LFB68
     /tmp/cc4YJ2eV.s:149    .text._ZN14PeriodicThreadD2Ev:0000000000000024 .LFE68
     /tmp/cc4YJ2eV.s:806    .text:0000000000000340 .LFB63
     /tmp/cc4YJ2eV.s:832    .text:0000000000000368 .LFE63
     /tmp/cc4YJ2eV.s:4294   .debug_loc:000000000000005c .LLST22
     /tmp/cc4YJ2eV.s:821    .text:0000000000000358 .LVL52
     /tmp/cc4YJ2eV.s:775    .text:0000000000000318 .LFB62
     /tmp/cc4YJ2eV.s:800    .text:0000000000000340 .LFE62
     /tmp/cc4YJ2eV.s:789    .text:0000000000000330 .LVL50
     /tmp/cc4YJ2eV.s:4699   .debug_str:0000000000000140 .LASF163
     /tmp/cc4YJ2eV.s:4807   .debug_str:00000000000004a5 .LASF160
     /tmp/cc4YJ2eV.s:732    .text:00000000000002d8 .LFB60
     /tmp/cc4YJ2eV.s:767    .text:0000000000000318 .LFE60
     /tmp/cc4YJ2eV.s:4308   .debug_loc:0000000000000095 .LLST20
     /tmp/cc4YJ2eV.s:4326   .debug_loc:00000000000000e1 .LLST21
GAS LISTING /tmp/cc4YJ2eV.s 			page 30


     /tmp/cc4YJ2eV.s:750    .text:00000000000002f8 .LVL48
     /tmp/cc4YJ2eV.s:698    .text:00000000000002ac .LFB58
     /tmp/cc4YJ2eV.s:726    .text:00000000000002d8 .LFE58
     /tmp/cc4YJ2eV.s:4340   .debug_loc:000000000000011a .LLST19
     /tmp/cc4YJ2eV.s:715    .text:00000000000002c8 .LVL46
     /tmp/cc4YJ2eV.s:664    .text:0000000000000280 .LFB57
     /tmp/cc4YJ2eV.s:692    .text:00000000000002ac .LFE57
     /tmp/cc4YJ2eV.s:4354   .debug_loc:0000000000000153 .LLST18
     /tmp/cc4YJ2eV.s:681    .text:000000000000029c .LVL43
     /tmp/cc4YJ2eV.s:4793   .debug_str:0000000000000433 .LASF161
     /tmp/cc4YJ2eV.s:336    .text:00000000000000f0 .LFB56
     /tmp/cc4YJ2eV.s:369    .text:0000000000000130 .LFE56
     /tmp/cc4YJ2eV.s:4368   .debug_loc:000000000000018c .LLST7
     /tmp/cc4YJ2eV.s:353    .text:0000000000000110 .LVL19
     /tmp/cc4YJ2eV.s:356    .text:000000000000011c .LVL20
     /tmp/cc4YJ2eV.s:4683   .debug_str:00000000000000d9 .LASF162
     /tmp/cc4YJ2eV.s:158    .text:0000000000000018 .LFB54
     /tmp/cc4YJ2eV.s:194    .text:0000000000000050 .LFE54
     /tmp/cc4YJ2eV.s:4386   .debug_loc:00000000000001d8 .LLST2
     /tmp/cc4YJ2eV.s:182    .text:0000000000000040 .LVL9
     /tmp/cc4YJ2eV.s:4703   .debug_str:0000000000000153 .LASF164
     /tmp/cc4YJ2eV.s:4869   .debug_str:000000000000069d .LASF165
     /tmp/cc4YJ2eV.s:623    .text:0000000000000248 .LFB51
     /tmp/cc4YJ2eV.s:656    .text:0000000000000280 .LFE51
     /tmp/cc4YJ2eV.s:4400   .debug_loc:0000000000000211 .LLST16
     /tmp/cc4YJ2eV.s:4420   .debug_loc:000000000000025f .LLST17
     /tmp/cc4YJ2eV.s:644    .text:0000000000000270 .LVL40
     /tmp/cc4YJ2eV.s:598    .text:000000000000022c .LFB49
     /tmp/cc4YJ2eV.s:617    .text:0000000000000248 .LFE49
     /tmp/cc4YJ2eV.s:5029   .debug_str:0000000000000c74 .LASF166
     /tmp/cc4YJ2eV.s:306    .text:00000000000000c8 .LFB48
     /tmp/cc4YJ2eV.s:330    .text:00000000000000f0 .LFE48
     /tmp/cc4YJ2eV.s:4434   .debug_loc:0000000000000298 .LLST6
     /tmp/cc4YJ2eV.s:320    .text:00000000000000e0 .LVL17
     /tmp/cc4YJ2eV.s:4903   .debug_str:000000000000079c .LASF167
     /tmp/cc4YJ2eV.s:100    .text:0000000000000000 .LFB46
     /tmp/cc4YJ2eV.s:118    .text:0000000000000018 .LFE46
     /tmp/cc4YJ2eV.s:4935   .debug_str:0000000000000889 .LASF168
     /tmp/cc4YJ2eV.s:555    .text:00000000000001e8 .LFB43
     /tmp/cc4YJ2eV.s:590    .text:000000000000022c .LFE43
     /tmp/cc4YJ2eV.s:4448   .debug_loc:00000000000002d1 .LLST15
     /tmp/cc4YJ2eV.s:578    .text:000000000000021c .LVL37
     /tmp/cc4YJ2eV.s:5001   .debug_str:0000000000000b58 .LASF169
     /tmp/cc4YJ2eV.s:514    .text:00000000000001b0 .LFB40
     /tmp/cc4YJ2eV.s:547    .text:00000000000001e8 .LFE40
     /tmp/cc4YJ2eV.s:4466   .debug_loc:000000000000031d .LLST12
     /tmp/cc4YJ2eV.s:4486   .debug_loc:000000000000036b .LLST13
     /tmp/cc4YJ2eV.s:4500   .debug_loc:00000000000003a4 .LLST14
     /tmp/cc4YJ2eV.s:535    .text:00000000000001d8 .LVL34
     /tmp/cc4YJ2eV.s:483    .text:0000000000000188 .LFB38
     /tmp/cc4YJ2eV.s:508    .text:00000000000001b0 .LFE38
     /tmp/cc4YJ2eV.s:497    .text:00000000000001a0 .LVL31
     /tmp/cc4YJ2eV.s:447    .text:0000000000000158 .LFB37
     /tmp/cc4YJ2eV.s:477    .text:0000000000000188 .LFE37
     /tmp/cc4YJ2eV.s:4514   .debug_loc:00000000000003dd .LLST11
     /tmp/cc4YJ2eV.s:464    .text:0000000000000174 .LVL30
     /tmp/cc4YJ2eV.s:5059   .debug_str:0000000000000d8b .LASF170
GAS LISTING /tmp/cc4YJ2eV.s 			page 31


     /tmp/cc4YJ2eV.s:4871   .debug_str:00000000000006af .LASF171
     /tmp/cc4YJ2eV.s:415    .text:0000000000000130 .LFB36
     /tmp/cc4YJ2eV.s:441    .text:0000000000000158 .LFE36
     /tmp/cc4YJ2eV.s:4534   .debug_loc:000000000000042b .LLST10
     /tmp/cc4YJ2eV.s:430    .text:0000000000000148 .LVL27
     /tmp/cc4YJ2eV.s:4877   .debug_str:00000000000006d2 .LASF172
     /tmp/cc4YJ2eV.s:274    .text:00000000000000a0 .LFB35
     /tmp/cc4YJ2eV.s:300    .text:00000000000000c8 .LFE35
     /tmp/cc4YJ2eV.s:4548   .debug_loc:0000000000000464 .LLST5
     /tmp/cc4YJ2eV.s:289    .text:00000000000000b8 .LVL15
     /tmp/cc4YJ2eV.s:4849   .debug_str:00000000000005fd .LASF173
     /tmp/cc4YJ2eV.s:4687   .debug_str:0000000000000104 .LASF174
     /tmp/cc4YJ2eV.s:242    .text:0000000000000078 .LFB34
     /tmp/cc4YJ2eV.s:268    .text:00000000000000a0 .LFE34
     /tmp/cc4YJ2eV.s:4562   .debug_loc:000000000000049d .LLST4
     /tmp/cc4YJ2eV.s:257    .text:0000000000000090 .LVL13
     /tmp/cc4YJ2eV.s:4759   .debug_str:000000000000033e .LASF175
     /tmp/cc4YJ2eV.s:210    .text:0000000000000050 .LFB33
     /tmp/cc4YJ2eV.s:236    .text:0000000000000078 .LFE33
     /tmp/cc4YJ2eV.s:4576   .debug_loc:00000000000004d6 .LLST3
     /tmp/cc4YJ2eV.s:225    .text:0000000000000068 .LVL11
     /tmp/cc4YJ2eV.s:75     .text._ZN14PeriodicThread18periodicActivationEv:0000000000000000 .LFB32
     /tmp/cc4YJ2eV.s:93     .text._ZN14PeriodicThread18periodicActivationEv:0000000000000018 .LFE32
     /tmp/cc4YJ2eV.s:37     .text._ZN6Thread9myWrapperEPv:0000000000000000 .LFB31
     /tmp/cc4YJ2eV.s:68     .text._ZN6Thread9myWrapperEPv:000000000000002c .LFE31
     /tmp/cc4YJ2eV.s:4590   .debug_loc:000000000000050f .LLST0
     /tmp/cc4YJ2eV.s:4927   .debug_str:000000000000084c .LASF176
     /tmp/cc4YJ2eV.s:4604   .debug_loc:0000000000000548 .LLST1
     /tmp/cc4YJ2eV.s:57     .text._ZN6Thread9myWrapperEPv:000000000000001c .LVL3
     /tmp/cc4YJ2eV.s:11     .text._ZN6Thread3runEv:0000000000000000 .LFB30
     /tmp/cc4YJ2eV.s:30     .text._ZN6Thread3runEv:0000000000000018 .LFE30
     /tmp/cc4YJ2eV.s:4841   .debug_str:00000000000005cf .LASF177
     /tmp/cc4YJ2eV.s:4825   .debug_str:0000000000000532 .LASF178
     /tmp/cc4YJ2eV.s:4761   .debug_str:0000000000000344 .LASF179
     /tmp/cc4YJ2eV.s:4779   .debug_str:00000000000003f2 .LASF180
     /tmp/cc4YJ2eV.s:5047   .debug_str:0000000000000d03 .LASF181
     /tmp/cc4YJ2eV.s:5065   .debug_str:0000000000000db6 .LASF182
     /tmp/cc4YJ2eV.s:4733   .debug_str:000000000000023d .LASF183
     /tmp/cc4YJ2eV.s:4913   .debug_str:00000000000007f7 .LASF184
     /tmp/cc4YJ2eV.s:4975   .debug_str:00000000000009c6 .LASF185
     /tmp/cc4YJ2eV.s:4921   .debug_str:000000000000081f .LASF186
     /tmp/cc4YJ2eV.s:4993   .debug_str:0000000000000a53 .LASF187
     /tmp/cc4YJ2eV.s:5037   .debug_str:0000000000000cb4 .LASF188
     /tmp/cc4YJ2eV.s:4681   .debug_str:00000000000000c4 .LASF189
     /tmp/cc4YJ2eV.s:4917   .debug_str:000000000000080a .LASF190
     /tmp/cc4YJ2eV.s:4909   .debug_str:00000000000007d5 .LASF191
     /tmp/cc4YJ2eV.s:4889   .debug_str:0000000000000723 .LASF192
     /tmp/cc4YJ2eV.s:379    .text._ZN14PeriodicThreadD0Ev:0000000000000000 .LVL22
     /tmp/cc4YJ2eV.s:388    .text._ZN14PeriodicThreadD0Ev:0000000000000010 .LVL23
     /tmp/cc4YJ2eV.s:394    .text._ZN14PeriodicThreadD0Ev:000000000000001c .LVL24
     /tmp/cc4YJ2eV.s:809    .text:0000000000000340 .LVL51
     /tmp/cc4YJ2eV.s:735    .text:00000000000002d8 .LVL47
     /tmp/cc4YJ2eV.s:762    .text:0000000000000310 .LVL49
     /tmp/cc4YJ2eV.s:701    .text:00000000000002ac .LVL44
     /tmp/cc4YJ2eV.s:713    .text:00000000000002c0 .LVL45
     /tmp/cc4YJ2eV.s:667    .text:0000000000000280 .LVL41
     /tmp/cc4YJ2eV.s:679    .text:0000000000000294 .LVL42
GAS LISTING /tmp/cc4YJ2eV.s 			page 32


     /tmp/cc4YJ2eV.s:339    .text:00000000000000f0 .LVL18
     /tmp/cc4YJ2eV.s:364    .text:0000000000000128 .LVL21
     /tmp/cc4YJ2eV.s:164    .text:0000000000000018 .LVL7
     /tmp/cc4YJ2eV.s:180    .text:0000000000000038 .LVL8
     /tmp/cc4YJ2eV.s:626    .text:0000000000000248 .LVL38
     /tmp/cc4YJ2eV.s:642    .text:0000000000000268 .LVL39
     /tmp/cc4YJ2eV.s:309    .text:00000000000000c8 .LVL16
     /tmp/cc4YJ2eV.s:558    .text:00000000000001e8 .LVL35
     /tmp/cc4YJ2eV.s:576    .text:0000000000000214 .LVL36
     /tmp/cc4YJ2eV.s:517    .text:00000000000001b0 .LVL32
     /tmp/cc4YJ2eV.s:533    .text:00000000000001d0 .LVL33
     /tmp/cc4YJ2eV.s:450    .text:0000000000000158 .LVL28
     /tmp/cc4YJ2eV.s:462    .text:000000000000016c .LVL29
     /tmp/cc4YJ2eV.s:418    .text:0000000000000130 .LVL26
     /tmp/cc4YJ2eV.s:277    .text:00000000000000a0 .LVL14
     /tmp/cc4YJ2eV.s:245    .text:0000000000000078 .LVL12
     /tmp/cc4YJ2eV.s:213    .text:0000000000000050 .LVL10
     /tmp/cc4YJ2eV.s:40     .text._ZN6Thread9myWrapperEPv:0000000000000000 .LVL1
     /tmp/cc4YJ2eV.s:50     .text._ZN6Thread9myWrapperEPv:0000000000000010 .LVL2
     /tmp/cc4YJ2eV.s:877    .debug_info:0000000000000000 .Ldebug_info0
     /tmp/cc4YJ2eV.s:5      .text:0000000000000000 .Ltext0
     /tmp/cc4YJ2eV.s:868    .text:0000000000000368 .Letext0
     /tmp/cc4YJ2eV.s:197    .gcc_except_table:0000000000000000 .LLSDA54
                           .group:0000000000000000 _ZN14PeriodicThreadD5Ev

UNDEFINED SYMBOLS
_Z9sem_closeP10Ksemaphore
__gxx_personality_v0
_ZN15MemoryAllocator6mallocEm
_ZN15MemoryAllocator4freeEPv
_Z12thread_startPP3TCB
_Z15thread_dispatchv
_Z14thread_create2PP3TCBPFvPvES2_
_Z8sem_openPP10Ksemaphorej
_Z8sem_waitP10Ksemaphore
_Z10sem_signalP10Ksemaphore
__getc
__putc
