GAS LISTING /tmp/ccuJdoaf.s 			page 1


   1              		.file	"syscall_cpp.cpp"
   2              		.option pic
   3              		.option norelax
   4              		.text
   5              	.Ltext0:
   6              		.section	.text._ZN6Thread3runEv,"axG",@progbits,_ZN6Thread3runEv,comdat
   7              		.align	2
   8              		.weak	_ZN6Thread3runEv
  10              	_ZN6Thread3runEv:
  11              	.LFB30:
  12              		.file 1 "src/../h/syscall_cpp.hpp"
   1:src/../h/syscall_cpp.hpp **** #ifndef _syscall_cpp
   2:src/../h/syscall_cpp.hpp **** #define _syscall_cpp
   3:src/../h/syscall_cpp.hpp **** #include "../lib/console.h"
   4:src/../h/syscall_cpp.hpp **** //#include "riscv.hpp"
   5:src/../h/syscall_cpp.hpp **** //#include "TCB.hpp"
   6:src/../h/syscall_cpp.hpp **** #include "syscall_c.h"
   7:src/../h/syscall_cpp.hpp **** 
   8:src/../h/syscall_cpp.hpp **** 
   9:src/../h/syscall_cpp.hpp **** void* operator new (size_t n);
  10:src/../h/syscall_cpp.hpp **** void operator delete (void* p);
  11:src/../h/syscall_cpp.hpp **** 
  12:src/../h/syscall_cpp.hpp **** class Thread {
  13:src/../h/syscall_cpp.hpp ****     using Body = void (*)(void*);
  14:src/../h/syscall_cpp.hpp **** public:
  15:src/../h/syscall_cpp.hpp ****     Thread(void (*body)(void*), void* arg);
  16:src/../h/syscall_cpp.hpp **** 
  17:src/../h/syscall_cpp.hpp ****     virtual ~Thread ();
  18:src/../h/syscall_cpp.hpp ****     int start ();
  19:src/../h/syscall_cpp.hpp ****     static void dispatch ();
  20:src/../h/syscall_cpp.hpp ****     static int sleep (time_t);
  21:src/../h/syscall_cpp.hpp **** //    static  void myWrapper();
  22:src/../h/syscall_cpp.hpp **** 
  23:src/../h/syscall_cpp.hpp **** protected:
  24:src/../h/syscall_cpp.hpp ****     Thread ();
  25:src/../h/syscall_cpp.hpp ****     virtual void run (){}
  13              		.loc 1 25 18
  14              		.cfi_startproc
  15              	.LVL0:
  16 0000 130101FF 		addi	sp,sp,-16
  17              		.cfi_def_cfa_offset 16
  18 0004 23348100 		sd	s0,8(sp)
  19              		.cfi_offset 8, -8
  20 0008 13040101 		addi	s0,sp,16
  21              		.cfi_def_cfa 8, 0
  22              		.loc 1 25 25 is_stmt 0
  23 000c 03348100 		ld	s0,8(sp)
  24              		.cfi_restore 8
  25              		.cfi_def_cfa 2, 16
  26 0010 13010101 		addi	sp,sp,16
  27              		.cfi_def_cfa_offset 0
  28 0014 67800000 		jr	ra
  29              		.cfi_endproc
  30              	.LFE30:
  32              		.section	.text._ZN6Thread9myWrapperEPv,"axG",@progbits,_ZN6Thread9myWrapperEPv,comdat
  33              		.align	2
  34              		.weak	_ZN6Thread9myWrapperEPv
GAS LISTING /tmp/ccuJdoaf.s 			page 2


  36              	_ZN6Thread9myWrapperEPv:
  37              	.LFB31:
  26:src/../h/syscall_cpp.hpp **** private:
  27:src/../h/syscall_cpp.hpp ****     thread_t myHandle;
  28:src/../h/syscall_cpp.hpp ****     static void myWrapper(void* ptr)
  38              		.loc 1 28 17 is_stmt 1
  39              		.cfi_startproc
  40              	.LVL1:
  41 0000 130101FF 		addi	sp,sp,-16
  42              		.cfi_def_cfa_offset 16
  43 0004 23341100 		sd	ra,8(sp)
  44 0008 23308100 		sd	s0,0(sp)
  45              		.cfi_offset 1, -8
  46              		.cfi_offset 8, -16
  47 000c 13040101 		addi	s0,sp,16
  48              		.cfi_def_cfa 8, 0
  29:src/../h/syscall_cpp.hpp ****     {
  30:src/../h/syscall_cpp.hpp ****         Thread* thread = (Thread*)ptr;
  49              		.loc 1 30 9
  50              	.LVL2:
  31:src/../h/syscall_cpp.hpp ****         thread->run();
  51              		.loc 1 31 9
  52              		.loc 1 31 21 is_stmt 0
  53 0010 83370500 		ld	a5,0(a0)
  54 0014 83B70701 		ld	a5,16(a5)
  55              		.loc 1 31 20
  56 0018 E7800700 		jalr	a5
  57              	.LVL3:
  32:src/../h/syscall_cpp.hpp ****     }
  58              		.loc 1 32 5
  59 001c 83308100 		ld	ra,8(sp)
  60              		.cfi_restore 1
  61 0020 03340100 		ld	s0,0(sp)
  62              		.cfi_restore 8
  63              		.cfi_def_cfa 2, 16
  64 0024 13010101 		addi	sp,sp,16
  65              		.cfi_def_cfa_offset 0
  66 0028 67800000 		jr	ra
  67              		.cfi_endproc
  68              	.LFE31:
  70              		.section	.text._ZN14PeriodicThread18periodicActivationEv,"axG",@progbits,_ZN14PeriodicThread18peri
  71              		.align	2
  72              		.weak	_ZN14PeriodicThread18periodicActivationEv
  74              	_ZN14PeriodicThread18periodicActivationEv:
  75              	.LFB35:
  33:src/../h/syscall_cpp.hpp **** 
  34:src/../h/syscall_cpp.hpp **** };
  35:src/../h/syscall_cpp.hpp **** 
  36:src/../h/syscall_cpp.hpp **** 
  37:src/../h/syscall_cpp.hpp **** class Semaphore {
  38:src/../h/syscall_cpp.hpp **** public:
  39:src/../h/syscall_cpp.hpp ****     Semaphore (unsigned init = 1){
  40:src/../h/syscall_cpp.hpp **** 
  41:src/../h/syscall_cpp.hpp ****     }
  42:src/../h/syscall_cpp.hpp ****     virtual ~Semaphore();
  43:src/../h/syscall_cpp.hpp ****     int wait ();
  44:src/../h/syscall_cpp.hpp ****     int signal ();
GAS LISTING /tmp/ccuJdoaf.s 			page 3


  45:src/../h/syscall_cpp.hpp **** private:
  46:src/../h/syscall_cpp.hpp ****     sem_t myHandle;
  47:src/../h/syscall_cpp.hpp **** };
  48:src/../h/syscall_cpp.hpp **** 
  49:src/../h/syscall_cpp.hpp **** 
  50:src/../h/syscall_cpp.hpp **** class PeriodicThread : public Thread {
  51:src/../h/syscall_cpp.hpp **** protected:
  52:src/../h/syscall_cpp.hpp ****     PeriodicThread (time_t period);
  53:src/../h/syscall_cpp.hpp ****     virtual void periodicActivation () {}
  76              		.loc 1 53 18 is_stmt 1
  77              		.cfi_startproc
  78              	.LVL4:
  79 0000 130101FF 		addi	sp,sp,-16
  80              		.cfi_def_cfa_offset 16
  81 0004 23348100 		sd	s0,8(sp)
  82              		.cfi_offset 8, -8
  83 0008 13040101 		addi	s0,sp,16
  84              		.cfi_def_cfa 8, 0
  85              		.loc 1 53 41 is_stmt 0
  86 000c 03348100 		ld	s0,8(sp)
  87              		.cfi_restore 8
  88              		.cfi_def_cfa 2, 16
  89 0010 13010101 		addi	sp,sp,16
  90              		.cfi_def_cfa_offset 0
  91 0014 67800000 		jr	ra
  92              		.cfi_endproc
  93              	.LFE35:
  95              		.text
  96              		.align	2
  97              		.globl	_ZN6ThreadD2Ev
  99              	_ZN6ThreadD2Ev:
 100              	.LFB49:
  12:src/../h/syscall_cpp.hpp ****     using Body = void (*)(void*);
 101              		.loc 1 12 7 is_stmt 1
 102              		.cfi_startproc
 103              	.LVL5:
 104 0000 130101FF 		addi	sp,sp,-16
 105              		.cfi_def_cfa_offset 16
 106 0004 23348100 		sd	s0,8(sp)
 107              		.cfi_offset 8, -8
 108 0008 13040101 		addi	s0,sp,16
 109              		.cfi_def_cfa 8, 0
  12:src/../h/syscall_cpp.hpp ****     using Body = void (*)(void*);
 110              		.loc 1 12 7 is_stmt 0
 111 000c 03348100 		ld	s0,8(sp)
 112              		.cfi_restore 8
 113              		.cfi_def_cfa 2, 16
 114 0010 13010101 		addi	sp,sp,16
 115              		.cfi_def_cfa_offset 0
 116 0014 67800000 		jr	ra
 117              		.cfi_endproc
 118              	.LFE49:
 120              		.globl	_ZN6ThreadD1Ev
 121              		.set	_ZN6ThreadD1Ev,_ZN6ThreadD2Ev
 122              		.align	2
 123              		.globl	_ZN9SemaphoreD2Ev
 125              	_ZN9SemaphoreD2Ev:
GAS LISTING /tmp/ccuJdoaf.s 			page 4


 126              	.LFB54:
 127              		.file 2 "src/syscall_cpp.cpp"
   1:src/syscall_cpp.cpp **** #include "../h/syscall_cpp.hpp"
   2:src/syscall_cpp.cpp **** 
   3:src/syscall_cpp.cpp **** void *operator new(size_t n)
   4:src/syscall_cpp.cpp **** {
   5:src/syscall_cpp.cpp ****     return MemoryAllocator::malloc(n);
   6:src/syscall_cpp.cpp **** }
   7:src/syscall_cpp.cpp **** 
   8:src/syscall_cpp.cpp **** void *operator new[](size_t n)
   9:src/syscall_cpp.cpp **** {
  10:src/syscall_cpp.cpp ****     return MemoryAllocator::malloc(n);
  11:src/syscall_cpp.cpp **** }
  12:src/syscall_cpp.cpp **** 
  13:src/syscall_cpp.cpp **** void operator delete(void *p)
  14:src/syscall_cpp.cpp **** {
  15:src/syscall_cpp.cpp ****     MemoryAllocator::free(p);
  16:src/syscall_cpp.cpp **** }
  17:src/syscall_cpp.cpp **** 
  18:src/syscall_cpp.cpp **** void operator delete[](void *p)
  19:src/syscall_cpp.cpp **** {
  20:src/syscall_cpp.cpp ****     MemoryAllocator::free(p);
  21:src/syscall_cpp.cpp **** }
  22:src/syscall_cpp.cpp **** 
  23:src/syscall_cpp.cpp **** int Thread::start (){
  24:src/syscall_cpp.cpp **** //    int a = thread_create(&myHandle, myWrapper, nullptr);
  25:src/syscall_cpp.cpp **** //    return a;
  26:src/syscall_cpp.cpp **** //    Scheduler::put(myHandle);
  27:src/syscall_cpp.cpp **** //    TCB::yield();
  28:src/syscall_cpp.cpp ****     thread_start(&myHandle);
  29:src/syscall_cpp.cpp ****     return 0;
  30:src/syscall_cpp.cpp **** }
  31:src/syscall_cpp.cpp **** void Thread::dispatch (){
  32:src/syscall_cpp.cpp ****     thread_dispatch();
  33:src/syscall_cpp.cpp **** }
  34:src/syscall_cpp.cpp **** 
  35:src/syscall_cpp.cpp **** Thread::Thread(void (*body)(void*), void* arg) {
  36:src/syscall_cpp.cpp ****     thread_create2(&myHandle, body, arg);
  37:src/syscall_cpp.cpp **** }
  38:src/syscall_cpp.cpp **** Thread::Thread() {
  39:src/syscall_cpp.cpp ****     thread_create2(&myHandle, myWrapper, this);
  40:src/syscall_cpp.cpp **** }
  41:src/syscall_cpp.cpp **** 
  42:src/syscall_cpp.cpp **** Thread::~Thread()=default;
  43:src/syscall_cpp.cpp **** 
  44:src/syscall_cpp.cpp **** int Thread::sleep(time_t) {
  45:src/syscall_cpp.cpp ****     return 0;
  46:src/syscall_cpp.cpp **** }
  47:src/syscall_cpp.cpp **** 
  48:src/syscall_cpp.cpp **** Semaphore::~Semaphore() {
 128              		.loc 2 48 1 is_stmt 1
 129              		.cfi_startproc
 130              	.LVL6:
 131 0018 130101FF 		addi	sp,sp,-16
 132              		.cfi_def_cfa_offset 16
 133 001c 23348100 		sd	s0,8(sp)
 134              		.cfi_offset 8, -8
GAS LISTING /tmp/ccuJdoaf.s 			page 5


 135 0020 13040101 		addi	s0,sp,16
 136              		.cfi_def_cfa 8, 0
  49:src/syscall_cpp.cpp **** //    sem_close(myHandle);
  50:src/syscall_cpp.cpp **** }
 137              		.loc 2 50 1 is_stmt 0
 138 0024 03348100 		ld	s0,8(sp)
 139              		.cfi_restore 8
 140              		.cfi_def_cfa 2, 16
 141 0028 13010101 		addi	sp,sp,16
 142              		.cfi_def_cfa_offset 0
 143 002c 67800000 		jr	ra
 144              		.cfi_endproc
 145              	.LFE54:
 147              		.globl	_ZN9SemaphoreD1Ev
 148              		.set	_ZN9SemaphoreD1Ev,_ZN9SemaphoreD2Ev
 149              		.section	.text._ZN14PeriodicThreadD2Ev,"axG",@progbits,_ZN14PeriodicThreadD5Ev,comdat
 150              		.align	2
 151              		.weak	_ZN14PeriodicThreadD2Ev
 153              	_ZN14PeriodicThreadD2Ev:
 154              	.LFB68:
  50:src/../h/syscall_cpp.hpp **** protected:
 155              		.loc 1 50 7 is_stmt 1
 156              		.cfi_startproc
 157              	.LVL7:
 158 0000 130101FF 		addi	sp,sp,-16
 159              		.cfi_def_cfa_offset 16
 160 0004 23348100 		sd	s0,8(sp)
 161              		.cfi_offset 8, -8
 162 0008 13040101 		addi	s0,sp,16
 163              		.cfi_def_cfa 8, 0
 164              	.LBB5:
  50:src/../h/syscall_cpp.hpp **** protected:
 165              		.loc 1 50 7 is_stmt 0
 166 000c 97070000 		lla	a5,_ZTV14PeriodicThread+16
 166      93870700 
 167 0014 2330F500 		sd	a5,0(a0)
 168              	.LBE5:
 169 0018 03348100 		ld	s0,8(sp)
 170              		.cfi_restore 8
 171              		.cfi_def_cfa 2, 16
 172 001c 13010101 		addi	sp,sp,16
 173              		.cfi_def_cfa_offset 0
 174 0020 67800000 		jr	ra
 175              		.cfi_endproc
 176              	.LFE68:
 178              		.weak	_ZN14PeriodicThreadD1Ev
 179              		.set	_ZN14PeriodicThreadD1Ev,_ZN14PeriodicThreadD2Ev
 180              		.text
 181              		.align	2
 182              		.globl	_Znwm
 184              	_Znwm:
 185              	.LFB36:
   4:src/syscall_cpp.cpp ****     return MemoryAllocator::malloc(n);
 186              		.loc 2 4 1 is_stmt 1
 187              		.cfi_startproc
 188              	.LVL8:
 189 0030 130101FF 		addi	sp,sp,-16
GAS LISTING /tmp/ccuJdoaf.s 			page 6


 190              		.cfi_def_cfa_offset 16
 191 0034 23341100 		sd	ra,8(sp)
 192 0038 23308100 		sd	s0,0(sp)
 193              		.cfi_offset 1, -8
 194              		.cfi_offset 8, -16
 195 003c 13040101 		addi	s0,sp,16
 196              		.cfi_def_cfa 8, 0
   5:src/syscall_cpp.cpp **** }
 197              		.loc 2 5 5
   5:src/syscall_cpp.cpp **** }
 198              		.loc 2 5 35 is_stmt 0
 199 0040 97000000 		call	_ZN15MemoryAllocator6mallocEm@plt
 199      E7800000 
 200              	.LVL9:
   6:src/syscall_cpp.cpp **** 
 201              		.loc 2 6 1
 202 0048 83308100 		ld	ra,8(sp)
 203              		.cfi_restore 1
 204 004c 03340100 		ld	s0,0(sp)
 205              		.cfi_restore 8
 206              		.cfi_def_cfa 2, 16
 207 0050 13010101 		addi	sp,sp,16
 208              		.cfi_def_cfa_offset 0
 209 0054 67800000 		jr	ra
 210              		.cfi_endproc
 211              	.LFE36:
 213              		.align	2
 214              		.globl	_Znam
 216              	_Znam:
 217              	.LFB37:
   9:src/syscall_cpp.cpp ****     return MemoryAllocator::malloc(n);
 218              		.loc 2 9 1 is_stmt 1
 219              		.cfi_startproc
 220              	.LVL10:
 221 0058 130101FF 		addi	sp,sp,-16
 222              		.cfi_def_cfa_offset 16
 223 005c 23341100 		sd	ra,8(sp)
 224 0060 23308100 		sd	s0,0(sp)
 225              		.cfi_offset 1, -8
 226              		.cfi_offset 8, -16
 227 0064 13040101 		addi	s0,sp,16
 228              		.cfi_def_cfa 8, 0
  10:src/syscall_cpp.cpp **** }
 229              		.loc 2 10 5
  10:src/syscall_cpp.cpp **** }
 230              		.loc 2 10 35 is_stmt 0
 231 0068 97000000 		call	_ZN15MemoryAllocator6mallocEm@plt
 231      E7800000 
 232              	.LVL11:
  11:src/syscall_cpp.cpp **** 
 233              		.loc 2 11 1
 234 0070 83308100 		ld	ra,8(sp)
 235              		.cfi_restore 1
 236 0074 03340100 		ld	s0,0(sp)
 237              		.cfi_restore 8
 238              		.cfi_def_cfa 2, 16
 239 0078 13010101 		addi	sp,sp,16
GAS LISTING /tmp/ccuJdoaf.s 			page 7


 240              		.cfi_def_cfa_offset 0
 241 007c 67800000 		jr	ra
 242              		.cfi_endproc
 243              	.LFE37:
 245              		.align	2
 246              		.globl	_ZdlPv
 248              	_ZdlPv:
 249              	.LFB38:
  14:src/syscall_cpp.cpp ****     MemoryAllocator::free(p);
 250              		.loc 2 14 1 is_stmt 1
 251              		.cfi_startproc
 252              	.LVL12:
 253 0080 130101FF 		addi	sp,sp,-16
 254              		.cfi_def_cfa_offset 16
 255 0084 23341100 		sd	ra,8(sp)
 256 0088 23308100 		sd	s0,0(sp)
 257              		.cfi_offset 1, -8
 258              		.cfi_offset 8, -16
 259 008c 13040101 		addi	s0,sp,16
 260              		.cfi_def_cfa 8, 0
  15:src/syscall_cpp.cpp **** }
 261              		.loc 2 15 5
  15:src/syscall_cpp.cpp **** }
 262              		.loc 2 15 26 is_stmt 0
 263 0090 97000000 		call	_ZN15MemoryAllocator4freeEPv@plt
 263      E7800000 
 264              	.LVL13:
  16:src/syscall_cpp.cpp **** 
 265              		.loc 2 16 1
 266 0098 83308100 		ld	ra,8(sp)
 267              		.cfi_restore 1
 268 009c 03340100 		ld	s0,0(sp)
 269              		.cfi_restore 8
 270              		.cfi_def_cfa 2, 16
 271 00a0 13010101 		addi	sp,sp,16
 272              		.cfi_def_cfa_offset 0
 273 00a4 67800000 		jr	ra
 274              		.cfi_endproc
 275              	.LFE38:
 277              		.align	2
 278              		.globl	_ZN6ThreadD0Ev
 280              	_ZN6ThreadD0Ev:
 281              	.LFB51:
  12:src/../h/syscall_cpp.hpp ****     using Body = void (*)(void*);
 282              		.loc 1 12 7 is_stmt 1
 283              		.cfi_startproc
 284              	.LVL14:
 285 00a8 130101FF 		addi	sp,sp,-16
 286              		.cfi_def_cfa_offset 16
 287 00ac 23341100 		sd	ra,8(sp)
 288 00b0 23308100 		sd	s0,0(sp)
 289              		.cfi_offset 1, -8
 290              		.cfi_offset 8, -16
 291 00b4 13040101 		addi	s0,sp,16
 292              		.cfi_def_cfa 8, 0
  12:src/../h/syscall_cpp.hpp ****     using Body = void (*)(void*);
 293              		.loc 1 12 7 is_stmt 0
GAS LISTING /tmp/ccuJdoaf.s 			page 8


 294 00b8 97000000 		call	_ZdlPv
 294      E7800000 
 295              	.LVL15:
 296 00c0 83308100 		ld	ra,8(sp)
 297              		.cfi_restore 1
 298 00c4 03340100 		ld	s0,0(sp)
 299              		.cfi_restore 8
 300              		.cfi_def_cfa 2, 16
 301 00c8 13010101 		addi	sp,sp,16
 302              		.cfi_def_cfa_offset 0
 303 00cc 67800000 		jr	ra
 304              		.cfi_endproc
 305              	.LFE51:
 307              		.align	2
 308              		.globl	_ZN9SemaphoreD0Ev
 310              	_ZN9SemaphoreD0Ev:
 311              	.LFB56:
  48:src/syscall_cpp.cpp **** //    sem_close(myHandle);
 312              		.loc 2 48 1 is_stmt 1
 313              		.cfi_startproc
 314              	.LVL16:
 315 00d0 130101FF 		addi	sp,sp,-16
 316              		.cfi_def_cfa_offset 16
 317 00d4 23341100 		sd	ra,8(sp)
 318 00d8 23308100 		sd	s0,0(sp)
 319              		.cfi_offset 1, -8
 320              		.cfi_offset 8, -16
 321 00dc 13040101 		addi	s0,sp,16
 322              		.cfi_def_cfa 8, 0
 323              		.loc 2 50 1 is_stmt 0
 324 00e0 97000000 		call	_ZdlPv
 324      E7800000 
 325              	.LVL17:
 326 00e8 83308100 		ld	ra,8(sp)
 327              		.cfi_restore 1
 328 00ec 03340100 		ld	s0,0(sp)
 329              		.cfi_restore 8
 330              		.cfi_def_cfa 2, 16
 331 00f0 13010101 		addi	sp,sp,16
 332              		.cfi_def_cfa_offset 0
 333 00f4 67800000 		jr	ra
 334              		.cfi_endproc
 335              	.LFE56:
 337              		.section	.text._ZN14PeriodicThreadD0Ev,"axG",@progbits,_ZN14PeriodicThreadD5Ev,comdat
 338              		.align	2
 339              		.weak	_ZN14PeriodicThreadD0Ev
 341              	_ZN14PeriodicThreadD0Ev:
 342              	.LFB70:
  50:src/../h/syscall_cpp.hpp **** protected:
 343              		.loc 1 50 7 is_stmt 1
 344              		.cfi_startproc
 345              	.LVL18:
 346 0000 130101FF 		addi	sp,sp,-16
 347              		.cfi_def_cfa_offset 16
 348 0004 23341100 		sd	ra,8(sp)
 349 0008 23308100 		sd	s0,0(sp)
 350              		.cfi_offset 1, -8
GAS LISTING /tmp/ccuJdoaf.s 			page 9


 351              		.cfi_offset 8, -16
 352 000c 13040101 		addi	s0,sp,16
 353              		.cfi_def_cfa 8, 0
 354              	.LVL19:
 355              	.LBB6:
 356              	.LBB7:
  50:src/../h/syscall_cpp.hpp **** protected:
 357              		.loc 1 50 7 is_stmt 0
 358 0010 97070000 		lla	a5,_ZTV14PeriodicThread+16
 358      93870700 
 359 0018 2330F500 		sd	a5,0(a0)
 360              	.LVL20:
 361              	.LBE7:
 362              	.LBE6:
 363 001c 97000000 		call	_ZdlPv
 363      E7800000 
 364              	.LVL21:
 365 0024 83308100 		ld	ra,8(sp)
 366              		.cfi_restore 1
 367 0028 03340100 		ld	s0,0(sp)
 368              		.cfi_restore 8
 369              		.cfi_def_cfa 2, 16
 370 002c 13010101 		addi	sp,sp,16
 371              		.cfi_def_cfa_offset 0
 372 0030 67800000 		jr	ra
 373              		.cfi_endproc
 374              	.LFE70:
 376              		.text
 377              		.align	2
 378              		.globl	_ZdaPv
 380              	_ZdaPv:
 381              	.LFB39:
  19:src/syscall_cpp.cpp ****     MemoryAllocator::free(p);
 382              		.loc 2 19 1 is_stmt 1
 383              		.cfi_startproc
 384              	.LVL22:
 385 00f8 130101FF 		addi	sp,sp,-16
 386              		.cfi_def_cfa_offset 16
 387 00fc 23341100 		sd	ra,8(sp)
 388 0100 23308100 		sd	s0,0(sp)
 389              		.cfi_offset 1, -8
 390              		.cfi_offset 8, -16
 391 0104 13040101 		addi	s0,sp,16
 392              		.cfi_def_cfa 8, 0
  20:src/syscall_cpp.cpp **** }
 393              		.loc 2 20 5
  20:src/syscall_cpp.cpp **** }
 394              		.loc 2 20 26 is_stmt 0
 395 0108 97000000 		call	_ZN15MemoryAllocator4freeEPv@plt
 395      E7800000 
 396              	.LVL23:
  21:src/syscall_cpp.cpp **** 
 397              		.loc 2 21 1
 398 0110 83308100 		ld	ra,8(sp)
 399              		.cfi_restore 1
 400 0114 03340100 		ld	s0,0(sp)
 401              		.cfi_restore 8
GAS LISTING /tmp/ccuJdoaf.s 			page 10


 402              		.cfi_def_cfa 2, 16
 403 0118 13010101 		addi	sp,sp,16
 404              		.cfi_def_cfa_offset 0
 405 011c 67800000 		jr	ra
 406              		.cfi_endproc
 407              	.LFE39:
 409              		.align	2
 410              		.globl	_ZN6Thread5startEv
 412              	_ZN6Thread5startEv:
 413              	.LFB40:
  23:src/syscall_cpp.cpp **** //    int a = thread_create(&myHandle, myWrapper, nullptr);
 414              		.loc 2 23 21 is_stmt 1
 415              		.cfi_startproc
 416              	.LVL24:
 417 0120 130101FF 		addi	sp,sp,-16
 418              		.cfi_def_cfa_offset 16
 419 0124 23341100 		sd	ra,8(sp)
 420 0128 23308100 		sd	s0,0(sp)
 421              		.cfi_offset 1, -8
 422              		.cfi_offset 8, -16
 423 012c 13040101 		addi	s0,sp,16
 424              		.cfi_def_cfa 8, 0
  28:src/syscall_cpp.cpp ****     return 0;
 425              		.loc 2 28 5
  28:src/syscall_cpp.cpp ****     return 0;
 426              		.loc 2 28 17 is_stmt 0
 427 0130 13058500 		addi	a0,a0,8
 428              	.LVL25:
 429 0134 97000000 		call	_Z12thread_startPP3TCB@plt
 429      E7800000 
 430              	.LVL26:
  29:src/syscall_cpp.cpp **** }
 431              		.loc 2 29 5 is_stmt 1
  30:src/syscall_cpp.cpp **** void Thread::dispatch (){
 432              		.loc 2 30 1 is_stmt 0
 433 013c 13050000 		li	a0,0
 434 0140 83308100 		ld	ra,8(sp)
 435              		.cfi_restore 1
 436 0144 03340100 		ld	s0,0(sp)
 437              		.cfi_restore 8
 438              		.cfi_def_cfa 2, 16
 439 0148 13010101 		addi	sp,sp,16
 440              		.cfi_def_cfa_offset 0
 441 014c 67800000 		jr	ra
 442              		.cfi_endproc
 443              	.LFE40:
 445              		.align	2
 446              		.globl	_ZN6Thread8dispatchEv
 448              	_ZN6Thread8dispatchEv:
 449              	.LFB41:
  31:src/syscall_cpp.cpp ****     thread_dispatch();
 450              		.loc 2 31 25 is_stmt 1
 451              		.cfi_startproc
 452 0150 130101FF 		addi	sp,sp,-16
 453              		.cfi_def_cfa_offset 16
 454 0154 23341100 		sd	ra,8(sp)
 455 0158 23308100 		sd	s0,0(sp)
GAS LISTING /tmp/ccuJdoaf.s 			page 11


 456              		.cfi_offset 1, -8
 457              		.cfi_offset 8, -16
 458 015c 13040101 		addi	s0,sp,16
 459              		.cfi_def_cfa 8, 0
  32:src/syscall_cpp.cpp **** }
 460              		.loc 2 32 5
  32:src/syscall_cpp.cpp **** }
 461              		.loc 2 32 20 is_stmt 0
 462 0160 97000000 		call	_Z15thread_dispatchv@plt
 462      E7800000 
 463              	.LVL27:
  33:src/syscall_cpp.cpp **** 
 464              		.loc 2 33 1
 465 0168 83308100 		ld	ra,8(sp)
 466              		.cfi_restore 1
 467 016c 03340100 		ld	s0,0(sp)
 468              		.cfi_restore 8
 469              		.cfi_def_cfa 2, 16
 470 0170 13010101 		addi	sp,sp,16
 471              		.cfi_def_cfa_offset 0
 472 0174 67800000 		jr	ra
 473              		.cfi_endproc
 474              	.LFE41:
 476              		.align	2
 477              		.globl	_ZN6ThreadC2EPFvPvES0_
 479              	_ZN6ThreadC2EPFvPvES0_:
 480              	.LFB43:
  35:src/syscall_cpp.cpp ****     thread_create2(&myHandle, body, arg);
 481              		.loc 2 35 1 is_stmt 1
 482              		.cfi_startproc
 483              	.LVL28:
 484 0178 130101FF 		addi	sp,sp,-16
 485              		.cfi_def_cfa_offset 16
 486 017c 23341100 		sd	ra,8(sp)
 487 0180 23308100 		sd	s0,0(sp)
 488              		.cfi_offset 1, -8
 489              		.cfi_offset 8, -16
 490 0184 13040101 		addi	s0,sp,16
 491              		.cfi_def_cfa 8, 0
 492              	.LBB8:
  35:src/syscall_cpp.cpp ****     thread_create2(&myHandle, body, arg);
 493              		.loc 2 35 46 is_stmt 0
 494 0188 97070000 		lla	a5,_ZTV6Thread+16
 494      93870700 
 495 0190 2330F500 		sd	a5,0(a0)
  36:src/syscall_cpp.cpp **** }
 496              		.loc 2 36 5 is_stmt 1
  36:src/syscall_cpp.cpp **** }
 497              		.loc 2 36 19 is_stmt 0
 498 0194 13058500 		addi	a0,a0,8
 499              	.LVL29:
 500 0198 97000000 		call	_Z14thread_create2PP3TCBPFvPvES2_@plt
 500      E7800000 
 501              	.LVL30:
 502              	.LBE8:
  37:src/syscall_cpp.cpp **** Thread::Thread() {
 503              		.loc 2 37 1
GAS LISTING /tmp/ccuJdoaf.s 			page 12


 504 01a0 83308100 		ld	ra,8(sp)
 505              		.cfi_restore 1
 506 01a4 03340100 		ld	s0,0(sp)
 507              		.cfi_restore 8
 508              		.cfi_def_cfa 2, 16
 509 01a8 13010101 		addi	sp,sp,16
 510              		.cfi_def_cfa_offset 0
 511 01ac 67800000 		jr	ra
 512              		.cfi_endproc
 513              	.LFE43:
 515              		.globl	_ZN6ThreadC1EPFvPvES0_
 516              		.set	_ZN6ThreadC1EPFvPvES0_,_ZN6ThreadC2EPFvPvES0_
 517              		.align	2
 518              		.globl	_ZN6ThreadC2Ev
 520              	_ZN6ThreadC2Ev:
 521              	.LFB46:
  38:src/syscall_cpp.cpp ****     thread_create2(&myHandle, myWrapper, this);
 522              		.loc 2 38 1 is_stmt 1
 523              		.cfi_startproc
 524              	.LVL31:
 525 01b0 130101FF 		addi	sp,sp,-16
 526              		.cfi_def_cfa_offset 16
 527 01b4 23341100 		sd	ra,8(sp)
 528 01b8 23308100 		sd	s0,0(sp)
 529              		.cfi_offset 1, -8
 530              		.cfi_offset 8, -16
 531 01bc 13040101 		addi	s0,sp,16
 532              		.cfi_def_cfa 8, 0
 533              	.LBB9:
  38:src/syscall_cpp.cpp ****     thread_create2(&myHandle, myWrapper, this);
 534              		.loc 2 38 16 is_stmt 0
 535 01c0 97070000 		lla	a5,_ZTV6Thread+16
 535      93870700 
 536 01c8 2330F500 		sd	a5,0(a0)
  39:src/syscall_cpp.cpp **** }
 537              		.loc 2 39 5 is_stmt 1
  39:src/syscall_cpp.cpp **** }
 538              		.loc 2 39 19 is_stmt 0
 539 01cc 13060500 		mv	a2,a0
 540 01d0 97050000 		lla	a1,_ZN6Thread9myWrapperEPv
 540      93850500 
 541 01d8 13058500 		addi	a0,a0,8
 542              	.LVL32:
 543 01dc 97000000 		call	_Z14thread_create2PP3TCBPFvPvES2_@plt
 543      E7800000 
 544              	.LVL33:
 545              	.LBE9:
  40:src/syscall_cpp.cpp **** 
 546              		.loc 2 40 1
 547 01e4 83308100 		ld	ra,8(sp)
 548              		.cfi_restore 1
 549 01e8 03340100 		ld	s0,0(sp)
 550              		.cfi_restore 8
 551              		.cfi_def_cfa 2, 16
 552 01ec 13010101 		addi	sp,sp,16
 553              		.cfi_def_cfa_offset 0
 554 01f0 67800000 		jr	ra
GAS LISTING /tmp/ccuJdoaf.s 			page 13


 555              		.cfi_endproc
 556              	.LFE46:
 558              		.globl	_ZN6ThreadC1Ev
 559              		.set	_ZN6ThreadC1Ev,_ZN6ThreadC2Ev
 560              		.align	2
 561              		.globl	_ZN6Thread5sleepEm
 563              	_ZN6Thread5sleepEm:
 564              	.LFB52:
  44:src/syscall_cpp.cpp ****     return 0;
 565              		.loc 2 44 27 is_stmt 1
 566              		.cfi_startproc
 567 01f4 130101FF 		addi	sp,sp,-16
 568              		.cfi_def_cfa_offset 16
 569 01f8 23348100 		sd	s0,8(sp)
 570              		.cfi_offset 8, -8
 571 01fc 13040101 		addi	s0,sp,16
 572              		.cfi_def_cfa 8, 0
  45:src/syscall_cpp.cpp **** }
 573              		.loc 2 45 5
  46:src/syscall_cpp.cpp **** 
 574              		.loc 2 46 1 is_stmt 0
 575 0200 13050000 		li	a0,0
 576 0204 03348100 		ld	s0,8(sp)
 577              		.cfi_restore 8
 578              		.cfi_def_cfa 2, 16
 579 0208 13010101 		addi	sp,sp,16
 580              		.cfi_def_cfa_offset 0
 581 020c 67800000 		jr	ra
 582              		.cfi_endproc
 583              	.LFE52:
 585              		.align	2
 586              		.globl	_ZN9Semaphore4waitEv
 588              	_ZN9Semaphore4waitEv:
 589              	.LFB57:
  51:src/syscall_cpp.cpp **** 
  52:src/syscall_cpp.cpp **** int Semaphore::wait() {
 590              		.loc 2 52 23 is_stmt 1
 591              		.cfi_startproc
 592              	.LVL34:
 593 0210 130101FF 		addi	sp,sp,-16
 594              		.cfi_def_cfa_offset 16
 595 0214 23341100 		sd	ra,8(sp)
 596 0218 23308100 		sd	s0,0(sp)
 597              		.cfi_offset 1, -8
 598              		.cfi_offset 8, -16
 599 021c 13040101 		addi	s0,sp,16
 600              		.cfi_def_cfa 8, 0
  53:src/syscall_cpp.cpp ****     return sem_wait(myHandle);
 601              		.loc 2 53 5
 602              		.loc 2 53 20 is_stmt 0
 603 0220 03358500 		ld	a0,8(a0)
 604              	.LVL35:
 605 0224 97000000 		call	_Z8sem_waitP10Ksemaphore@plt
 605      E7800000 
 606              	.LVL36:
  54:src/syscall_cpp.cpp **** }
 607              		.loc 2 54 1
GAS LISTING /tmp/ccuJdoaf.s 			page 14


 608 022c 83308100 		ld	ra,8(sp)
 609              		.cfi_restore 1
 610 0230 03340100 		ld	s0,0(sp)
 611              		.cfi_restore 8
 612              		.cfi_def_cfa 2, 16
 613 0234 13010101 		addi	sp,sp,16
 614              		.cfi_def_cfa_offset 0
 615 0238 67800000 		jr	ra
 616              		.cfi_endproc
 617              	.LFE57:
 619              		.align	2
 620              		.globl	_ZN9Semaphore6signalEv
 622              	_ZN9Semaphore6signalEv:
 623              	.LFB58:
  55:src/syscall_cpp.cpp **** 
  56:src/syscall_cpp.cpp **** int Semaphore::signal() {
 624              		.loc 2 56 25 is_stmt 1
 625              		.cfi_startproc
 626              	.LVL37:
 627 023c 130101FF 		addi	sp,sp,-16
 628              		.cfi_def_cfa_offset 16
 629 0240 23341100 		sd	ra,8(sp)
 630 0244 23308100 		sd	s0,0(sp)
 631              		.cfi_offset 1, -8
 632              		.cfi_offset 8, -16
 633 0248 13040101 		addi	s0,sp,16
 634              		.cfi_def_cfa 8, 0
  57:src/syscall_cpp.cpp ****     return sem_signal(myHandle);
 635              		.loc 2 57 5
 636              		.loc 2 57 22 is_stmt 0
 637 024c 03358500 		ld	a0,8(a0)
 638              	.LVL38:
 639 0250 97000000 		call	_Z10sem_signalP10Ksemaphore@plt
 639      E7800000 
 640              	.LVL39:
  58:src/syscall_cpp.cpp **** }
 641              		.loc 2 58 1
 642 0258 83308100 		ld	ra,8(sp)
 643              		.cfi_restore 1
 644 025c 03340100 		ld	s0,0(sp)
 645              		.cfi_restore 8
 646              		.cfi_def_cfa 2, 16
 647 0260 13010101 		addi	sp,sp,16
 648              		.cfi_def_cfa_offset 0
 649 0264 67800000 		jr	ra
 650              		.cfi_endproc
 651              	.LFE58:
 653              		.align	2
 654              		.globl	_ZN14PeriodicThreadC2Em
 656              	_ZN14PeriodicThreadC2Em:
 657              	.LFB60:
  59:src/syscall_cpp.cpp **** 
  60:src/syscall_cpp.cpp **** PeriodicThread::PeriodicThread(time_t period) {
 658              		.loc 2 60 1 is_stmt 1
 659              		.cfi_startproc
 660              	.LVL40:
 661 0268 130101FE 		addi	sp,sp,-32
GAS LISTING /tmp/ccuJdoaf.s 			page 15


 662              		.cfi_def_cfa_offset 32
 663 026c 233C1100 		sd	ra,24(sp)
 664 0270 23388100 		sd	s0,16(sp)
 665 0274 23349100 		sd	s1,8(sp)
 666              		.cfi_offset 1, -8
 667              		.cfi_offset 8, -16
 668              		.cfi_offset 9, -24
 669 0278 13040102 		addi	s0,sp,32
 670              		.cfi_def_cfa 8, 0
 671 027c 93040500 		mv	s1,a0
 672              	.LBB10:
 673              		.loc 2 60 45 is_stmt 0
 674 0280 97000000 		call	_ZN6ThreadC2Ev
 674      E7800000 
 675              	.LVL41:
 676 0288 97070000 		lla	a5,_ZTV14PeriodicThread+16
 676      93870700 
 677 0290 23B0F400 		sd	a5,0(s1)
 678              	.LBE10:
  61:src/syscall_cpp.cpp **** 
  62:src/syscall_cpp.cpp **** }
 679              		.loc 2 62 1
 680 0294 83308101 		ld	ra,24(sp)
 681              		.cfi_restore 1
 682 0298 03340101 		ld	s0,16(sp)
 683              		.cfi_restore 8
 684              		.cfi_def_cfa 2, 32
 685 029c 83348100 		ld	s1,8(sp)
 686              		.cfi_restore 9
 687              	.LVL42:
 688 02a0 13010102 		addi	sp,sp,32
 689              		.cfi_def_cfa_offset 0
 690 02a4 67800000 		jr	ra
 691              		.cfi_endproc
 692              	.LFE60:
 694              		.globl	_ZN14PeriodicThreadC1Em
 695              		.set	_ZN14PeriodicThreadC1Em,_ZN14PeriodicThreadC2Em
 696              		.align	2
 697              		.globl	_ZN7Console4getcEv
 699              	_ZN7Console4getcEv:
 700              	.LFB62:
  63:src/syscall_cpp.cpp **** 
  64:src/syscall_cpp.cpp **** char Console::getc() {
 701              		.loc 2 64 22 is_stmt 1
 702              		.cfi_startproc
 703 02a8 130101FF 		addi	sp,sp,-16
 704              		.cfi_def_cfa_offset 16
 705 02ac 23341100 		sd	ra,8(sp)
 706 02b0 23308100 		sd	s0,0(sp)
 707              		.cfi_offset 1, -8
 708              		.cfi_offset 8, -16
 709 02b4 13040101 		addi	s0,sp,16
 710              		.cfi_def_cfa 8, 0
  65:src/syscall_cpp.cpp ****     return __getc();
 711              		.loc 2 65 5
 712              		.loc 2 65 18 is_stmt 0
 713 02b8 97000000 		call	__getc@plt
GAS LISTING /tmp/ccuJdoaf.s 			page 16


 713      E7800000 
 714              	.LVL43:
  66:src/syscall_cpp.cpp **** }
 715              		.loc 2 66 1
 716 02c0 83308100 		ld	ra,8(sp)
 717              		.cfi_restore 1
 718 02c4 03340100 		ld	s0,0(sp)
 719              		.cfi_restore 8
 720              		.cfi_def_cfa 2, 16
 721 02c8 13010101 		addi	sp,sp,16
 722              		.cfi_def_cfa_offset 0
 723 02cc 67800000 		jr	ra
 724              		.cfi_endproc
 725              	.LFE62:
 727              		.align	2
 728              		.globl	_ZN7Console4putcEc
 730              	_ZN7Console4putcEc:
 731              	.LFB63:
  67:src/syscall_cpp.cpp **** 
  68:src/syscall_cpp.cpp **** void Console::putc(char c) {
 732              		.loc 2 68 28 is_stmt 1
 733              		.cfi_startproc
 734              	.LVL44:
 735 02d0 130101FF 		addi	sp,sp,-16
 736              		.cfi_def_cfa_offset 16
 737 02d4 23341100 		sd	ra,8(sp)
 738 02d8 23308100 		sd	s0,0(sp)
 739              		.cfi_offset 1, -8
 740              		.cfi_offset 8, -16
 741 02dc 13040101 		addi	s0,sp,16
 742              		.cfi_def_cfa 8, 0
  69:src/syscall_cpp.cpp ****     __putc(c);
 743              		.loc 2 69 5
 744              		.loc 2 69 11 is_stmt 0
 745 02e0 97000000 		call	__putc@plt
 745      E7800000 
 746              	.LVL45:
  70:src/syscall_cpp.cpp **** }
 747              		.loc 2 70 1
 748 02e8 83308100 		ld	ra,8(sp)
 749              		.cfi_restore 1
 750 02ec 03340100 		ld	s0,0(sp)
 751              		.cfi_restore 8
 752              		.cfi_def_cfa 2, 16
 753 02f0 13010101 		addi	sp,sp,16
 754              		.cfi_def_cfa_offset 0
 755 02f4 67800000 		jr	ra
 756              		.cfi_endproc
 757              	.LFE63:
 759              		.weak	_ZTV14PeriodicThread
 760              		.section	.data.rel.ro.local._ZTV14PeriodicThread,"awG",@progbits,_ZTV14PeriodicThread,comdat
 761              		.align	3
 764              	_ZTV14PeriodicThread:
 765 0000 00000000 		.dword	0
 765      00000000 
 766 0008 00000000 		.dword	0
 766      00000000 
GAS LISTING /tmp/ccuJdoaf.s 			page 17


 767 0010 00000000 		.dword	_ZN14PeriodicThreadD1Ev
 767      00000000 
 768 0018 00000000 		.dword	_ZN14PeriodicThreadD0Ev
 768      00000000 
 769 0020 00000000 		.dword	_ZN6Thread3runEv
 769      00000000 
 770 0028 00000000 		.dword	_ZN14PeriodicThread18periodicActivationEv
 770      00000000 
 771              		.weak	_ZTV6Thread
 772              		.section	.data.rel.ro.local._ZTV6Thread,"awG",@progbits,_ZTV6Thread,comdat
 773              		.align	3
 776              	_ZTV6Thread:
 777 0000 00000000 		.dword	0
 777      00000000 
 778 0008 00000000 		.dword	0
 778      00000000 
 779 0010 00000000 		.dword	_ZN6ThreadD1Ev
 779      00000000 
 780 0018 00000000 		.dword	_ZN6ThreadD0Ev
 780      00000000 
 781 0020 00000000 		.dword	_ZN6Thread3runEv
 781      00000000 
 782              		.weak	_ZTV9Semaphore
 783              		.section	.data.rel.ro.local._ZTV9Semaphore,"awG",@progbits,_ZTV9Semaphore,comdat
 784              		.align	3
 787              	_ZTV9Semaphore:
 788 0000 00000000 		.dword	0
 788      00000000 
 789 0008 00000000 		.dword	0
 789      00000000 
 790 0010 00000000 		.dword	_ZN9SemaphoreD1Ev
 790      00000000 
 791 0018 00000000 		.dword	_ZN9SemaphoreD0Ev
 791      00000000 
 792              		.text
 793              	.Letext0:
 794              		.file 3 "src/../h/../lib/hw.h"
 795              		.file 4 "src/../h/MemoryAllocator.hpp"
 796              		.file 5 "src/../h/list.hpp"
 797              		.file 6 "src/../h/TCB.hpp"
 798              		.file 7 "src/../h/Ksemaphore.hpp"
 799              		.file 8 "src/../h/../lib/console.h"
 800              		.file 9 "src/../h/syscall_c.h"
GAS LISTING /tmp/ccuJdoaf.s 			page 18


DEFINED SYMBOLS
                            *ABS*:0000000000000000 syscall_cpp.cpp
     /tmp/ccuJdoaf.s:10     .text._ZN6Thread3runEv:0000000000000000 _ZN6Thread3runEv
     /tmp/ccuJdoaf.s:14     .text._ZN6Thread3runEv:0000000000000000 .L0 
     /tmp/ccuJdoaf.s:16     .text._ZN6Thread3runEv:0000000000000000 .L0 
     /tmp/ccuJdoaf.s:17     .text._ZN6Thread3runEv:0000000000000004 .L0 
     /tmp/ccuJdoaf.s:19     .text._ZN6Thread3runEv:0000000000000008 .L0 
     /tmp/ccuJdoaf.s:21     .text._ZN6Thread3runEv:000000000000000c .L0 
     /tmp/ccuJdoaf.s:23     .text._ZN6Thread3runEv:000000000000000c .L0 
     /tmp/ccuJdoaf.s:24     .text._ZN6Thread3runEv:0000000000000010 .L0 
     /tmp/ccuJdoaf.s:25     .text._ZN6Thread3runEv:0000000000000010 .L0 
     /tmp/ccuJdoaf.s:27     .text._ZN6Thread3runEv:0000000000000014 .L0 
     /tmp/ccuJdoaf.s:29     .text._ZN6Thread3runEv:0000000000000018 .L0 
     /tmp/ccuJdoaf.s:36     .text._ZN6Thread9myWrapperEPv:0000000000000000 _ZN6Thread9myWrapperEPv
     /tmp/ccuJdoaf.s:39     .text._ZN6Thread9myWrapperEPv:0000000000000000 .L0 
     /tmp/ccuJdoaf.s:41     .text._ZN6Thread9myWrapperEPv:0000000000000000 .L0 
     /tmp/ccuJdoaf.s:42     .text._ZN6Thread9myWrapperEPv:0000000000000004 .L0 
     /tmp/ccuJdoaf.s:45     .text._ZN6Thread9myWrapperEPv:000000000000000c .L0 
     /tmp/ccuJdoaf.s:46     .text._ZN6Thread9myWrapperEPv:000000000000000c .L0 
     /tmp/ccuJdoaf.s:48     .text._ZN6Thread9myWrapperEPv:0000000000000010 .L0 
     /tmp/ccuJdoaf.s:51     .text._ZN6Thread9myWrapperEPv:0000000000000010 .L0 
     /tmp/ccuJdoaf.s:52     .text._ZN6Thread9myWrapperEPv:0000000000000010 .L0 
     /tmp/ccuJdoaf.s:53     .text._ZN6Thread9myWrapperEPv:0000000000000010 .L0 
     /tmp/ccuJdoaf.s:56     .text._ZN6Thread9myWrapperEPv:0000000000000018 .L0 
     /tmp/ccuJdoaf.s:59     .text._ZN6Thread9myWrapperEPv:000000000000001c .L0 
     /tmp/ccuJdoaf.s:60     .text._ZN6Thread9myWrapperEPv:0000000000000020 .L0 
     /tmp/ccuJdoaf.s:62     .text._ZN6Thread9myWrapperEPv:0000000000000024 .L0 
     /tmp/ccuJdoaf.s:63     .text._ZN6Thread9myWrapperEPv:0000000000000024 .L0 
     /tmp/ccuJdoaf.s:65     .text._ZN6Thread9myWrapperEPv:0000000000000028 .L0 
     /tmp/ccuJdoaf.s:67     .text._ZN6Thread9myWrapperEPv:000000000000002c .L0 
     /tmp/ccuJdoaf.s:74     .text._ZN14PeriodicThread18periodicActivationEv:0000000000000000 _ZN14PeriodicThread18periodicActivationEv
     /tmp/ccuJdoaf.s:77     .text._ZN14PeriodicThread18periodicActivationEv:0000000000000000 .L0 
     /tmp/ccuJdoaf.s:79     .text._ZN14PeriodicThread18periodicActivationEv:0000000000000000 .L0 
     /tmp/ccuJdoaf.s:80     .text._ZN14PeriodicThread18periodicActivationEv:0000000000000004 .L0 
     /tmp/ccuJdoaf.s:82     .text._ZN14PeriodicThread18periodicActivationEv:0000000000000008 .L0 
     /tmp/ccuJdoaf.s:84     .text._ZN14PeriodicThread18periodicActivationEv:000000000000000c .L0 
     /tmp/ccuJdoaf.s:86     .text._ZN14PeriodicThread18periodicActivationEv:000000000000000c .L0 
     /tmp/ccuJdoaf.s:87     .text._ZN14PeriodicThread18periodicActivationEv:0000000000000010 .L0 
     /tmp/ccuJdoaf.s:88     .text._ZN14PeriodicThread18periodicActivationEv:0000000000000010 .L0 
     /tmp/ccuJdoaf.s:90     .text._ZN14PeriodicThread18periodicActivationEv:0000000000000014 .L0 
     /tmp/ccuJdoaf.s:92     .text._ZN14PeriodicThread18periodicActivationEv:0000000000000018 .L0 
     /tmp/ccuJdoaf.s:99     .text:0000000000000000 _ZN6ThreadD2Ev
     /tmp/ccuJdoaf.s:102    .text:0000000000000000 .L0 
     /tmp/ccuJdoaf.s:104    .text:0000000000000000 .L0 
     /tmp/ccuJdoaf.s:105    .text:0000000000000004 .L0 
     /tmp/ccuJdoaf.s:107    .text:0000000000000008 .L0 
     /tmp/ccuJdoaf.s:109    .text:000000000000000c .L0 
     /tmp/ccuJdoaf.s:111    .text:000000000000000c .L0 
     /tmp/ccuJdoaf.s:112    .text:0000000000000010 .L0 
     /tmp/ccuJdoaf.s:113    .text:0000000000000010 .L0 
     /tmp/ccuJdoaf.s:115    .text:0000000000000014 .L0 
     /tmp/ccuJdoaf.s:117    .text:0000000000000018 .L0 
     /tmp/ccuJdoaf.s:99     .text:0000000000000000 _ZN6ThreadD1Ev
     /tmp/ccuJdoaf.s:125    .text:0000000000000018 _ZN9SemaphoreD2Ev
     /tmp/ccuJdoaf.s:129    .text:0000000000000018 .L0 
     /tmp/ccuJdoaf.s:131    .text:0000000000000018 .L0 
     /tmp/ccuJdoaf.s:132    .text:000000000000001c .L0 
GAS LISTING /tmp/ccuJdoaf.s 			page 19


     /tmp/ccuJdoaf.s:134    .text:0000000000000020 .L0 
     /tmp/ccuJdoaf.s:136    .text:0000000000000024 .L0 
     /tmp/ccuJdoaf.s:138    .text:0000000000000024 .L0 
     /tmp/ccuJdoaf.s:139    .text:0000000000000028 .L0 
     /tmp/ccuJdoaf.s:140    .text:0000000000000028 .L0 
     /tmp/ccuJdoaf.s:142    .text:000000000000002c .L0 
     /tmp/ccuJdoaf.s:144    .text:0000000000000030 .L0 
     /tmp/ccuJdoaf.s:125    .text:0000000000000018 _ZN9SemaphoreD1Ev
     /tmp/ccuJdoaf.s:153    .text._ZN14PeriodicThreadD2Ev:0000000000000000 _ZN14PeriodicThreadD2Ev
     /tmp/ccuJdoaf.s:156    .text._ZN14PeriodicThreadD2Ev:0000000000000000 .L0 
     /tmp/ccuJdoaf.s:158    .text._ZN14PeriodicThreadD2Ev:0000000000000000 .L0 
     /tmp/ccuJdoaf.s:159    .text._ZN14PeriodicThreadD2Ev:0000000000000004 .L0 
     /tmp/ccuJdoaf.s:161    .text._ZN14PeriodicThreadD2Ev:0000000000000008 .L0 
     /tmp/ccuJdoaf.s:163    .text._ZN14PeriodicThreadD2Ev:000000000000000c .L0 
     /tmp/ccuJdoaf.s:764    .data.rel.ro.local._ZTV14PeriodicThread:0000000000000000 _ZTV14PeriodicThread
     /tmp/ccuJdoaf.s:166    .text._ZN14PeriodicThreadD2Ev:000000000000000c .L0 
     /tmp/ccuJdoaf.s:170    .text._ZN14PeriodicThreadD2Ev:000000000000001c .L0 
     /tmp/ccuJdoaf.s:171    .text._ZN14PeriodicThreadD2Ev:000000000000001c .L0 
     /tmp/ccuJdoaf.s:173    .text._ZN14PeriodicThreadD2Ev:0000000000000020 .L0 
     /tmp/ccuJdoaf.s:175    .text._ZN14PeriodicThreadD2Ev:0000000000000024 .L0 
     /tmp/ccuJdoaf.s:153    .text._ZN14PeriodicThreadD2Ev:0000000000000000 _ZN14PeriodicThreadD1Ev
     /tmp/ccuJdoaf.s:184    .text:0000000000000030 _Znwm
     /tmp/ccuJdoaf.s:187    .text:0000000000000030 .L0 
     /tmp/ccuJdoaf.s:189    .text:0000000000000030 .L0 
     /tmp/ccuJdoaf.s:190    .text:0000000000000034 .L0 
     /tmp/ccuJdoaf.s:193    .text:000000000000003c .L0 
     /tmp/ccuJdoaf.s:194    .text:000000000000003c .L0 
     /tmp/ccuJdoaf.s:196    .text:0000000000000040 .L0 
     /tmp/ccuJdoaf.s:198    .text:0000000000000040 .L0 
     /tmp/ccuJdoaf.s:199    .text:0000000000000040 .L0 
     /tmp/ccuJdoaf.s:202    .text:0000000000000048 .L0 
     /tmp/ccuJdoaf.s:203    .text:000000000000004c .L0 
     /tmp/ccuJdoaf.s:205    .text:0000000000000050 .L0 
     /tmp/ccuJdoaf.s:206    .text:0000000000000050 .L0 
     /tmp/ccuJdoaf.s:208    .text:0000000000000054 .L0 
     /tmp/ccuJdoaf.s:210    .text:0000000000000058 .L0 
     /tmp/ccuJdoaf.s:216    .text:0000000000000058 _Znam
     /tmp/ccuJdoaf.s:219    .text:0000000000000058 .L0 
     /tmp/ccuJdoaf.s:221    .text:0000000000000058 .L0 
     /tmp/ccuJdoaf.s:222    .text:000000000000005c .L0 
     /tmp/ccuJdoaf.s:225    .text:0000000000000064 .L0 
     /tmp/ccuJdoaf.s:226    .text:0000000000000064 .L0 
     /tmp/ccuJdoaf.s:228    .text:0000000000000068 .L0 
     /tmp/ccuJdoaf.s:230    .text:0000000000000068 .L0 
     /tmp/ccuJdoaf.s:231    .text:0000000000000068 .L0 
     /tmp/ccuJdoaf.s:234    .text:0000000000000070 .L0 
     /tmp/ccuJdoaf.s:235    .text:0000000000000074 .L0 
     /tmp/ccuJdoaf.s:237    .text:0000000000000078 .L0 
     /tmp/ccuJdoaf.s:238    .text:0000000000000078 .L0 
     /tmp/ccuJdoaf.s:240    .text:000000000000007c .L0 
     /tmp/ccuJdoaf.s:242    .text:0000000000000080 .L0 
     /tmp/ccuJdoaf.s:248    .text:0000000000000080 _ZdlPv
     /tmp/ccuJdoaf.s:251    .text:0000000000000080 .L0 
     /tmp/ccuJdoaf.s:253    .text:0000000000000080 .L0 
     /tmp/ccuJdoaf.s:254    .text:0000000000000084 .L0 
     /tmp/ccuJdoaf.s:257    .text:000000000000008c .L0 
     /tmp/ccuJdoaf.s:258    .text:000000000000008c .L0 
GAS LISTING /tmp/ccuJdoaf.s 			page 20


     /tmp/ccuJdoaf.s:260    .text:0000000000000090 .L0 
     /tmp/ccuJdoaf.s:262    .text:0000000000000090 .L0 
     /tmp/ccuJdoaf.s:263    .text:0000000000000090 .L0 
     /tmp/ccuJdoaf.s:266    .text:0000000000000098 .L0 
     /tmp/ccuJdoaf.s:267    .text:000000000000009c .L0 
     /tmp/ccuJdoaf.s:269    .text:00000000000000a0 .L0 
     /tmp/ccuJdoaf.s:270    .text:00000000000000a0 .L0 
     /tmp/ccuJdoaf.s:272    .text:00000000000000a4 .L0 
     /tmp/ccuJdoaf.s:274    .text:00000000000000a8 .L0 
     /tmp/ccuJdoaf.s:280    .text:00000000000000a8 _ZN6ThreadD0Ev
     /tmp/ccuJdoaf.s:283    .text:00000000000000a8 .L0 
     /tmp/ccuJdoaf.s:285    .text:00000000000000a8 .L0 
     /tmp/ccuJdoaf.s:286    .text:00000000000000ac .L0 
     /tmp/ccuJdoaf.s:289    .text:00000000000000b4 .L0 
     /tmp/ccuJdoaf.s:290    .text:00000000000000b4 .L0 
     /tmp/ccuJdoaf.s:292    .text:00000000000000b8 .L0 
     /tmp/ccuJdoaf.s:294    .text:00000000000000b8 .L0 
     /tmp/ccuJdoaf.s:297    .text:00000000000000c4 .L0 
     /tmp/ccuJdoaf.s:299    .text:00000000000000c8 .L0 
     /tmp/ccuJdoaf.s:300    .text:00000000000000c8 .L0 
     /tmp/ccuJdoaf.s:302    .text:00000000000000cc .L0 
     /tmp/ccuJdoaf.s:304    .text:00000000000000d0 .L0 
     /tmp/ccuJdoaf.s:310    .text:00000000000000d0 _ZN9SemaphoreD0Ev
     /tmp/ccuJdoaf.s:313    .text:00000000000000d0 .L0 
     /tmp/ccuJdoaf.s:315    .text:00000000000000d0 .L0 
     /tmp/ccuJdoaf.s:316    .text:00000000000000d4 .L0 
     /tmp/ccuJdoaf.s:319    .text:00000000000000dc .L0 
     /tmp/ccuJdoaf.s:320    .text:00000000000000dc .L0 
     /tmp/ccuJdoaf.s:322    .text:00000000000000e0 .L0 
     /tmp/ccuJdoaf.s:324    .text:00000000000000e0 .L0 
     /tmp/ccuJdoaf.s:327    .text:00000000000000ec .L0 
     /tmp/ccuJdoaf.s:329    .text:00000000000000f0 .L0 
     /tmp/ccuJdoaf.s:330    .text:00000000000000f0 .L0 
     /tmp/ccuJdoaf.s:332    .text:00000000000000f4 .L0 
     /tmp/ccuJdoaf.s:334    .text:00000000000000f8 .L0 
     /tmp/ccuJdoaf.s:341    .text._ZN14PeriodicThreadD0Ev:0000000000000000 _ZN14PeriodicThreadD0Ev
     /tmp/ccuJdoaf.s:344    .text._ZN14PeriodicThreadD0Ev:0000000000000000 .L0 
     /tmp/ccuJdoaf.s:346    .text._ZN14PeriodicThreadD0Ev:0000000000000000 .L0 
     /tmp/ccuJdoaf.s:347    .text._ZN14PeriodicThreadD0Ev:0000000000000004 .L0 
     /tmp/ccuJdoaf.s:350    .text._ZN14PeriodicThreadD0Ev:000000000000000c .L0 
     /tmp/ccuJdoaf.s:351    .text._ZN14PeriodicThreadD0Ev:000000000000000c .L0 
     /tmp/ccuJdoaf.s:353    .text._ZN14PeriodicThreadD0Ev:0000000000000010 .L0 
     /tmp/ccuJdoaf.s:358    .text._ZN14PeriodicThreadD0Ev:0000000000000010 .L0 
     /tmp/ccuJdoaf.s:366    .text._ZN14PeriodicThreadD0Ev:0000000000000028 .L0 
     /tmp/ccuJdoaf.s:368    .text._ZN14PeriodicThreadD0Ev:000000000000002c .L0 
     /tmp/ccuJdoaf.s:369    .text._ZN14PeriodicThreadD0Ev:000000000000002c .L0 
     /tmp/ccuJdoaf.s:371    .text._ZN14PeriodicThreadD0Ev:0000000000000030 .L0 
     /tmp/ccuJdoaf.s:373    .text._ZN14PeriodicThreadD0Ev:0000000000000034 .L0 
     /tmp/ccuJdoaf.s:380    .text:00000000000000f8 _ZdaPv
     /tmp/ccuJdoaf.s:383    .text:00000000000000f8 .L0 
     /tmp/ccuJdoaf.s:385    .text:00000000000000f8 .L0 
     /tmp/ccuJdoaf.s:386    .text:00000000000000fc .L0 
     /tmp/ccuJdoaf.s:389    .text:0000000000000104 .L0 
     /tmp/ccuJdoaf.s:390    .text:0000000000000104 .L0 
     /tmp/ccuJdoaf.s:392    .text:0000000000000108 .L0 
     /tmp/ccuJdoaf.s:394    .text:0000000000000108 .L0 
     /tmp/ccuJdoaf.s:395    .text:0000000000000108 .L0 
GAS LISTING /tmp/ccuJdoaf.s 			page 21


     /tmp/ccuJdoaf.s:398    .text:0000000000000110 .L0 
     /tmp/ccuJdoaf.s:399    .text:0000000000000114 .L0 
     /tmp/ccuJdoaf.s:401    .text:0000000000000118 .L0 
     /tmp/ccuJdoaf.s:402    .text:0000000000000118 .L0 
     /tmp/ccuJdoaf.s:404    .text:000000000000011c .L0 
     /tmp/ccuJdoaf.s:406    .text:0000000000000120 .L0 
     /tmp/ccuJdoaf.s:412    .text:0000000000000120 _ZN6Thread5startEv
     /tmp/ccuJdoaf.s:415    .text:0000000000000120 .L0 
     /tmp/ccuJdoaf.s:417    .text:0000000000000120 .L0 
     /tmp/ccuJdoaf.s:418    .text:0000000000000124 .L0 
     /tmp/ccuJdoaf.s:421    .text:000000000000012c .L0 
     /tmp/ccuJdoaf.s:422    .text:000000000000012c .L0 
     /tmp/ccuJdoaf.s:424    .text:0000000000000130 .L0 
     /tmp/ccuJdoaf.s:426    .text:0000000000000130 .L0 
     /tmp/ccuJdoaf.s:427    .text:0000000000000130 .L0 
     /tmp/ccuJdoaf.s:432    .text:000000000000013c .L0 
     /tmp/ccuJdoaf.s:433    .text:000000000000013c .L0 
     /tmp/ccuJdoaf.s:435    .text:0000000000000144 .L0 
     /tmp/ccuJdoaf.s:437    .text:0000000000000148 .L0 
     /tmp/ccuJdoaf.s:438    .text:0000000000000148 .L0 
     /tmp/ccuJdoaf.s:440    .text:000000000000014c .L0 
     /tmp/ccuJdoaf.s:442    .text:0000000000000150 .L0 
     /tmp/ccuJdoaf.s:448    .text:0000000000000150 _ZN6Thread8dispatchEv
     /tmp/ccuJdoaf.s:451    .text:0000000000000150 .L0 
     /tmp/ccuJdoaf.s:452    .text:0000000000000150 .L0 
     /tmp/ccuJdoaf.s:453    .text:0000000000000154 .L0 
     /tmp/ccuJdoaf.s:456    .text:000000000000015c .L0 
     /tmp/ccuJdoaf.s:457    .text:000000000000015c .L0 
     /tmp/ccuJdoaf.s:459    .text:0000000000000160 .L0 
     /tmp/ccuJdoaf.s:461    .text:0000000000000160 .L0 
     /tmp/ccuJdoaf.s:462    .text:0000000000000160 .L0 
     /tmp/ccuJdoaf.s:465    .text:0000000000000168 .L0 
     /tmp/ccuJdoaf.s:466    .text:000000000000016c .L0 
     /tmp/ccuJdoaf.s:468    .text:0000000000000170 .L0 
     /tmp/ccuJdoaf.s:469    .text:0000000000000170 .L0 
     /tmp/ccuJdoaf.s:471    .text:0000000000000174 .L0 
     /tmp/ccuJdoaf.s:473    .text:0000000000000178 .L0 
     /tmp/ccuJdoaf.s:479    .text:0000000000000178 _ZN6ThreadC2EPFvPvES0_
     /tmp/ccuJdoaf.s:482    .text:0000000000000178 .L0 
     /tmp/ccuJdoaf.s:484    .text:0000000000000178 .L0 
     /tmp/ccuJdoaf.s:485    .text:000000000000017c .L0 
     /tmp/ccuJdoaf.s:488    .text:0000000000000184 .L0 
     /tmp/ccuJdoaf.s:489    .text:0000000000000184 .L0 
     /tmp/ccuJdoaf.s:491    .text:0000000000000188 .L0 
     /tmp/ccuJdoaf.s:776    .data.rel.ro.local._ZTV6Thread:0000000000000000 _ZTV6Thread
     /tmp/ccuJdoaf.s:494    .text:0000000000000188 .L0 
     /tmp/ccuJdoaf.s:497    .text:0000000000000194 .L0 
     /tmp/ccuJdoaf.s:498    .text:0000000000000194 .L0 
     /tmp/ccuJdoaf.s:504    .text:00000000000001a0 .L0 
     /tmp/ccuJdoaf.s:505    .text:00000000000001a4 .L0 
     /tmp/ccuJdoaf.s:507    .text:00000000000001a8 .L0 
     /tmp/ccuJdoaf.s:508    .text:00000000000001a8 .L0 
     /tmp/ccuJdoaf.s:510    .text:00000000000001ac .L0 
     /tmp/ccuJdoaf.s:512    .text:00000000000001b0 .L0 
     /tmp/ccuJdoaf.s:479    .text:0000000000000178 _ZN6ThreadC1EPFvPvES0_
     /tmp/ccuJdoaf.s:520    .text:00000000000001b0 _ZN6ThreadC2Ev
     /tmp/ccuJdoaf.s:523    .text:00000000000001b0 .L0 
GAS LISTING /tmp/ccuJdoaf.s 			page 22


     /tmp/ccuJdoaf.s:525    .text:00000000000001b0 .L0 
     /tmp/ccuJdoaf.s:526    .text:00000000000001b4 .L0 
     /tmp/ccuJdoaf.s:529    .text:00000000000001bc .L0 
     /tmp/ccuJdoaf.s:530    .text:00000000000001bc .L0 
     /tmp/ccuJdoaf.s:532    .text:00000000000001c0 .L0 
     /tmp/ccuJdoaf.s:535    .text:00000000000001c0 .L0 
     /tmp/ccuJdoaf.s:538    .text:00000000000001cc .L0 
     /tmp/ccuJdoaf.s:539    .text:00000000000001cc .L0 
     /tmp/ccuJdoaf.s:547    .text:00000000000001e4 .L0 
     /tmp/ccuJdoaf.s:548    .text:00000000000001e8 .L0 
     /tmp/ccuJdoaf.s:550    .text:00000000000001ec .L0 
     /tmp/ccuJdoaf.s:551    .text:00000000000001ec .L0 
     /tmp/ccuJdoaf.s:553    .text:00000000000001f0 .L0 
     /tmp/ccuJdoaf.s:555    .text:00000000000001f4 .L0 
     /tmp/ccuJdoaf.s:520    .text:00000000000001b0 _ZN6ThreadC1Ev
     /tmp/ccuJdoaf.s:563    .text:00000000000001f4 _ZN6Thread5sleepEm
     /tmp/ccuJdoaf.s:566    .text:00000000000001f4 .L0 
     /tmp/ccuJdoaf.s:567    .text:00000000000001f4 .L0 
     /tmp/ccuJdoaf.s:568    .text:00000000000001f8 .L0 
     /tmp/ccuJdoaf.s:570    .text:00000000000001fc .L0 
     /tmp/ccuJdoaf.s:572    .text:0000000000000200 .L0 
     /tmp/ccuJdoaf.s:574    .text:0000000000000200 .L0 
     /tmp/ccuJdoaf.s:575    .text:0000000000000200 .L0 
     /tmp/ccuJdoaf.s:577    .text:0000000000000208 .L0 
     /tmp/ccuJdoaf.s:578    .text:0000000000000208 .L0 
     /tmp/ccuJdoaf.s:580    .text:000000000000020c .L0 
     /tmp/ccuJdoaf.s:582    .text:0000000000000210 .L0 
     /tmp/ccuJdoaf.s:588    .text:0000000000000210 _ZN9Semaphore4waitEv
     /tmp/ccuJdoaf.s:591    .text:0000000000000210 .L0 
     /tmp/ccuJdoaf.s:593    .text:0000000000000210 .L0 
     /tmp/ccuJdoaf.s:594    .text:0000000000000214 .L0 
     /tmp/ccuJdoaf.s:597    .text:000000000000021c .L0 
     /tmp/ccuJdoaf.s:598    .text:000000000000021c .L0 
     /tmp/ccuJdoaf.s:600    .text:0000000000000220 .L0 
     /tmp/ccuJdoaf.s:602    .text:0000000000000220 .L0 
     /tmp/ccuJdoaf.s:603    .text:0000000000000220 .L0 
     /tmp/ccuJdoaf.s:608    .text:000000000000022c .L0 
     /tmp/ccuJdoaf.s:609    .text:0000000000000230 .L0 
     /tmp/ccuJdoaf.s:611    .text:0000000000000234 .L0 
     /tmp/ccuJdoaf.s:612    .text:0000000000000234 .L0 
     /tmp/ccuJdoaf.s:614    .text:0000000000000238 .L0 
     /tmp/ccuJdoaf.s:616    .text:000000000000023c .L0 
     /tmp/ccuJdoaf.s:622    .text:000000000000023c _ZN9Semaphore6signalEv
     /tmp/ccuJdoaf.s:625    .text:000000000000023c .L0 
     /tmp/ccuJdoaf.s:627    .text:000000000000023c .L0 
     /tmp/ccuJdoaf.s:628    .text:0000000000000240 .L0 
     /tmp/ccuJdoaf.s:631    .text:0000000000000248 .L0 
     /tmp/ccuJdoaf.s:632    .text:0000000000000248 .L0 
     /tmp/ccuJdoaf.s:634    .text:000000000000024c .L0 
     /tmp/ccuJdoaf.s:636    .text:000000000000024c .L0 
     /tmp/ccuJdoaf.s:637    .text:000000000000024c .L0 
     /tmp/ccuJdoaf.s:642    .text:0000000000000258 .L0 
     /tmp/ccuJdoaf.s:643    .text:000000000000025c .L0 
     /tmp/ccuJdoaf.s:645    .text:0000000000000260 .L0 
     /tmp/ccuJdoaf.s:646    .text:0000000000000260 .L0 
     /tmp/ccuJdoaf.s:648    .text:0000000000000264 .L0 
     /tmp/ccuJdoaf.s:650    .text:0000000000000268 .L0 
GAS LISTING /tmp/ccuJdoaf.s 			page 23


     /tmp/ccuJdoaf.s:656    .text:0000000000000268 _ZN14PeriodicThreadC2Em
     /tmp/ccuJdoaf.s:659    .text:0000000000000268 .L0 
     /tmp/ccuJdoaf.s:661    .text:0000000000000268 .L0 
     /tmp/ccuJdoaf.s:662    .text:000000000000026c .L0 
     /tmp/ccuJdoaf.s:666    .text:0000000000000278 .L0 
     /tmp/ccuJdoaf.s:667    .text:0000000000000278 .L0 
     /tmp/ccuJdoaf.s:668    .text:0000000000000278 .L0 
     /tmp/ccuJdoaf.s:670    .text:000000000000027c .L0 
     /tmp/ccuJdoaf.s:674    .text:0000000000000280 .L0 
     /tmp/ccuJdoaf.s:680    .text:0000000000000294 .L0 
     /tmp/ccuJdoaf.s:681    .text:0000000000000298 .L0 
     /tmp/ccuJdoaf.s:683    .text:000000000000029c .L0 
     /tmp/ccuJdoaf.s:684    .text:000000000000029c .L0 
     /tmp/ccuJdoaf.s:686    .text:00000000000002a0 .L0 
     /tmp/ccuJdoaf.s:689    .text:00000000000002a4 .L0 
     /tmp/ccuJdoaf.s:691    .text:00000000000002a8 .L0 
     /tmp/ccuJdoaf.s:656    .text:0000000000000268 _ZN14PeriodicThreadC1Em
     /tmp/ccuJdoaf.s:699    .text:00000000000002a8 _ZN7Console4getcEv
     /tmp/ccuJdoaf.s:702    .text:00000000000002a8 .L0 
     /tmp/ccuJdoaf.s:703    .text:00000000000002a8 .L0 
     /tmp/ccuJdoaf.s:704    .text:00000000000002ac .L0 
     /tmp/ccuJdoaf.s:707    .text:00000000000002b4 .L0 
     /tmp/ccuJdoaf.s:708    .text:00000000000002b4 .L0 
     /tmp/ccuJdoaf.s:710    .text:00000000000002b8 .L0 
     /tmp/ccuJdoaf.s:712    .text:00000000000002b8 .L0 
     /tmp/ccuJdoaf.s:713    .text:00000000000002b8 .L0 
     /tmp/ccuJdoaf.s:716    .text:00000000000002c0 .L0 
     /tmp/ccuJdoaf.s:717    .text:00000000000002c4 .L0 
     /tmp/ccuJdoaf.s:719    .text:00000000000002c8 .L0 
     /tmp/ccuJdoaf.s:720    .text:00000000000002c8 .L0 
     /tmp/ccuJdoaf.s:722    .text:00000000000002cc .L0 
     /tmp/ccuJdoaf.s:724    .text:00000000000002d0 .L0 
     /tmp/ccuJdoaf.s:730    .text:00000000000002d0 _ZN7Console4putcEc
     /tmp/ccuJdoaf.s:733    .text:00000000000002d0 .L0 
     /tmp/ccuJdoaf.s:735    .text:00000000000002d0 .L0 
     /tmp/ccuJdoaf.s:736    .text:00000000000002d4 .L0 
     /tmp/ccuJdoaf.s:739    .text:00000000000002dc .L0 
     /tmp/ccuJdoaf.s:740    .text:00000000000002dc .L0 
     /tmp/ccuJdoaf.s:742    .text:00000000000002e0 .L0 
     /tmp/ccuJdoaf.s:744    .text:00000000000002e0 .L0 
     /tmp/ccuJdoaf.s:745    .text:00000000000002e0 .L0 
     /tmp/ccuJdoaf.s:748    .text:00000000000002e8 .L0 
     /tmp/ccuJdoaf.s:749    .text:00000000000002ec .L0 
     /tmp/ccuJdoaf.s:751    .text:00000000000002f0 .L0 
     /tmp/ccuJdoaf.s:752    .text:00000000000002f0 .L0 
     /tmp/ccuJdoaf.s:754    .text:00000000000002f4 .L0 
     /tmp/ccuJdoaf.s:756    .text:00000000000002f8 .L0 
     /tmp/ccuJdoaf.s:787    .data.rel.ro.local._ZTV9Semaphore:0000000000000000 _ZTV9Semaphore
     /tmp/ccuJdoaf.s:32     .text._ZN6Thread3runEv:0000000000000018 .L0 
     /tmp/ccuJdoaf.s:70     .text._ZN6Thread9myWrapperEPv:000000000000002c .L0 
     /tmp/ccuJdoaf.s:95     .text._ZN14PeriodicThread18periodicActivationEv:0000000000000018 .L0 
     /tmp/ccuJdoaf.s:801    .text:00000000000002f8 .L0 
     /tmp/ccuJdoaf.s:180    .text._ZN14PeriodicThreadD2Ev:0000000000000024 .L0 
     /tmp/ccuJdoaf.s:376    .text._ZN14PeriodicThreadD0Ev:0000000000000034 .L0 
     /tmp/ccuJdoaf.s:494    .text:0000000000000188 .L0 
     /tmp/ccuJdoaf.s:535    .text:00000000000001c0 .L0 
     /tmp/ccuJdoaf.s:540    .text:00000000000001d0 .L0 
GAS LISTING /tmp/ccuJdoaf.s 			page 24


     /tmp/ccuJdoaf.s:676    .text:0000000000000288 .L0 
     /tmp/ccuJdoaf.s:166    .text._ZN14PeriodicThreadD2Ev:000000000000000c .L0 
     /tmp/ccuJdoaf.s:358    .text._ZN14PeriodicThreadD0Ev:0000000000000010 .L0 
     /tmp/ccuJdoaf.s:2765   .debug_abbrev:0000000000000000 .Ldebug_abbrev0
     /tmp/ccuJdoaf.s:4762   .debug_str:0000000000000a01 .LASF186
     /tmp/ccuJdoaf.s:4578   .debug_str:0000000000000443 .LASF187
     /tmp/ccuJdoaf.s:4548   .debug_str:0000000000000388 .LASF188
     /tmp/ccuJdoaf.s:4422   .debug_ranges:0000000000000000 .Ldebug_ranges0
     /tmp/ccuJdoaf.s:4438   .debug_line:0000000000000000 .Ldebug_line0
     /tmp/ccuJdoaf.s:4568   .debug_str:0000000000000407 .LASF0
     /tmp/ccuJdoaf.s:4596   .debug_str:00000000000004ef .LASF1
     /tmp/ccuJdoaf.s:4704   .debug_str:0000000000000837 .LASF2
     /tmp/ccuJdoaf.s:4712   .debug_str:0000000000000876 .LASF4
     /tmp/ccuJdoaf.s:4580   .debug_str:0000000000000457 .LASF3
     /tmp/ccuJdoaf.s:4458   .debug_str:00000000000000a6 .LASF5
     /tmp/ccuJdoaf.s:4670   .debug_str:0000000000000732 .LASF6
     /tmp/ccuJdoaf.s:4662   .debug_str:00000000000006df .LASF7
     /tmp/ccuJdoaf.s:4590   .debug_str:00000000000004ce .LASF8
     /tmp/ccuJdoaf.s:4546   .debug_str:0000000000000378 .LASF9
     /tmp/ccuJdoaf.s:4554   .debug_str:00000000000003c5 .LASF10
     /tmp/ccuJdoaf.s:4494   .debug_str:00000000000001b4 .LASF11
     /tmp/ccuJdoaf.s:4540   .debug_str:0000000000000341 .LASF12
     /tmp/ccuJdoaf.s:4510   .debug_str:0000000000000228 .LASF13
     /tmp/ccuJdoaf.s:4492   .debug_str:00000000000001a4 .LASF14
     /tmp/ccuJdoaf.s:4740   .debug_str:0000000000000957 .LASF15
     /tmp/ccuJdoaf.s:4526   .debug_str:00000000000002a1 .LASF16
     /tmp/ccuJdoaf.s:4730   .debug_str:00000000000008e3 .LASF17
     /tmp/ccuJdoaf.s:4658   .debug_str:00000000000006c3 .LASF31
     /tmp/ccuJdoaf.s:4476   .debug_str:0000000000000126 .LASF55
     /tmp/ccuJdoaf.s:4496   .debug_str:00000000000001c3 .LASF18
     /tmp/ccuJdoaf.s:4474   .debug_str:0000000000000121 .LASF19
     /tmp/ccuJdoaf.s:4594   .debug_str:00000000000004ea .LASF20
     /tmp/ccuJdoaf.s:4498   .debug_str:00000000000001c8 .LASF21
     /tmp/ccuJdoaf.s:4638   .debug_str:0000000000000642 .LASF22
     /tmp/ccuJdoaf.s:4726   .debug_str:00000000000008cc .LASF23
     /tmp/ccuJdoaf.s:4562   .debug_str:00000000000003eb .LASF24
     /tmp/ccuJdoaf.s:4666   .debug_str:00000000000006ff .LASF26
     /tmp/ccuJdoaf.s:4772   .debug_str:0000000000000b05 .LASF25
     /tmp/ccuJdoaf.s:4524   .debug_str:0000000000000280 .LASF27
     /tmp/ccuJdoaf.s:4806   .debug_str:0000000000000c4f .LASF77
     /tmp/ccuJdoaf.s:4630   .debug_str:00000000000005f3 .LASF79
     /tmp/ccuJdoaf.s:4442   .debug_str:000000000000002a .LASF34
     /tmp/ccuJdoaf.s:4604   .debug_str:000000000000051a .LASF36
     /tmp/ccuJdoaf.s:4778   .debug_str:0000000000000b33 .LASF28
     /tmp/ccuJdoaf.s:4582   .debug_str:0000000000000469 .LASF29
     /tmp/ccuJdoaf.s:4750   .debug_str:0000000000000995 .LASF30
     /tmp/ccuJdoaf.s:4800   .debug_str:0000000000000c18 .LASF32
     /tmp/ccuJdoaf.s:4786   .debug_str:0000000000000b84 .LASF189
     /tmp/ccuJdoaf.s:4734   .debug_str:000000000000090c .LASF33
     /tmp/ccuJdoaf.s:4632   .debug_str:000000000000061f .LASF35
     /tmp/ccuJdoaf.s:4732   .debug_str:00000000000008f9 .LASF37
     /tmp/ccuJdoaf.s:4534   .debug_str:0000000000000308 .LASF47
     /tmp/ccuJdoaf.s:4708   .debug_str:0000000000000854 .LASF128
     /tmp/ccuJdoaf.s:4694   .debug_str:00000000000007e4 .LASF130
     /tmp/ccuJdoaf.s:4828   .debug_str:0000000000000d2a .LASF38
     /tmp/ccuJdoaf.s:4672   .debug_str:0000000000000739 .LASF39
     /tmp/ccuJdoaf.s:4446   .debug_str:0000000000000036 .LASF40
GAS LISTING /tmp/ccuJdoaf.s 			page 25


     /tmp/ccuJdoaf.s:4640   .debug_str:0000000000000647 .LASF41
     /tmp/ccuJdoaf.s:4592   .debug_str:00000000000004e1 .LASF42
     /tmp/ccuJdoaf.s:4486   .debug_str:0000000000000161 .LASF43
     /tmp/ccuJdoaf.s:4616   .debug_str:00000000000005a8 .LASF44
     /tmp/ccuJdoaf.s:4530   .debug_str:00000000000002dd .LASF45
     /tmp/ccuJdoaf.s:4660   .debug_str:00000000000006d3 .LASF46
     /tmp/ccuJdoaf.s:4802   .debug_str:0000000000000c22 .LASF48
     /tmp/ccuJdoaf.s:4834   .debug_str:0000000000000d4b .LASF49
     /tmp/ccuJdoaf.s:4820   .debug_str:0000000000000ccf .LASF50
     /tmp/ccuJdoaf.s:4720   .debug_str:00000000000008a5 .LASF51
     /tmp/ccuJdoaf.s:4588   .debug_str:00000000000004b1 .LASF52
     /tmp/ccuJdoaf.s:4688   .debug_str:00000000000007c6 .LASF53
     /tmp/ccuJdoaf.s:4450   .debug_str:000000000000004e .LASF54
     /tmp/ccuJdoaf.s:4746   .debug_str:0000000000000982 .LASF56
     /tmp/ccuJdoaf.s:4484   .debug_str:0000000000000153 .LASF90
     /tmp/ccuJdoaf.s:4608   .debug_str:0000000000000545 .LASF92
     /tmp/ccuJdoaf.s:4506   .debug_str:000000000000020a .LASF83
     /tmp/ccuJdoaf.s:4714   .debug_str:000000000000087d .LASF57
     /tmp/ccuJdoaf.s:4454   .debug_str:0000000000000090 .LASF58
     /tmp/ccuJdoaf.s:4748   .debug_str:000000000000098a .LASF59
     /tmp/ccuJdoaf.s:4636   .debug_str:000000000000062b .LASF60
     /tmp/ccuJdoaf.s:4482   .debug_str:0000000000000147 .LASF61
     /tmp/ccuJdoaf.s:4780   .debug_str:0000000000000b38 .LASF62
     /tmp/ccuJdoaf.s:4606   .debug_str:0000000000000538 .LASF63
     /tmp/ccuJdoaf.s:4790   .debug_str:0000000000000bad .LASF64
     /tmp/ccuJdoaf.s:4654   .debug_str:00000000000006a8 .LASF190
     /tmp/ccuJdoaf.s:4682   .debug_str:000000000000079c .LASF65
     /tmp/ccuJdoaf.s:4622   .debug_str:00000000000005c4 .LASF66
     /tmp/ccuJdoaf.s:4634   .debug_str:0000000000000624 .LASF67
     /tmp/ccuJdoaf.s:4470   .debug_str:000000000000010a .LASF68
     /tmp/ccuJdoaf.s:4550   .debug_str:00000000000003a6 .LASF69
     /tmp/ccuJdoaf.s:4620   .debug_str:00000000000005b7 .LASF70
     /tmp/ccuJdoaf.s:4738   .debug_str:000000000000094a .LASF71
     /tmp/ccuJdoaf.s:4792   .debug_str:0000000000000bc6 .LASF72
     /tmp/ccuJdoaf.s:4528   .debug_str:00000000000002b7 .LASF73
     /tmp/ccuJdoaf.s:4736   .debug_str:0000000000000911 .LASF74
     /tmp/ccuJdoaf.s:4532   .debug_str:00000000000002f9 .LASF75
     /tmp/ccuJdoaf.s:4774   .debug_str:0000000000000b0f .LASF76
     /tmp/ccuJdoaf.s:4600   .debug_str:000000000000050d .LASF78
     /tmp/ccuJdoaf.s:4766   .debug_str:0000000000000ad4 .LASF80
     /tmp/ccuJdoaf.s:4822   .debug_str:0000000000000cea .LASF81
     /tmp/ccuJdoaf.s:4816   .debug_str:0000000000000ca8 .LASF82
     /tmp/ccuJdoaf.s:4758   .debug_str:00000000000009d7 .LASF191
     /tmp/ccuJdoaf.s:4674   .debug_str:000000000000074c .LASF84
     /tmp/ccuJdoaf.s:4444   .debug_str:0000000000000031 .LASF85
     /tmp/ccuJdoaf.s:4516   .debug_str:0000000000000259 .LASF86
     /tmp/ccuJdoaf.s:4776   .debug_str:0000000000000b2b .LASF87
     /tmp/ccuJdoaf.s:4770   .debug_str:0000000000000afb .LASF88
     /tmp/ccuJdoaf.s:4728   .debug_str:00000000000008da .LASF89
     /tmp/ccuJdoaf.s:4512   .debug_str:0000000000000238 .LASF122
     /tmp/ccuJdoaf.s:4452   .debug_str:0000000000000068 .LASF124
     /tmp/ccuJdoaf.s:4518   .debug_str:000000000000025f .LASF91
     /tmp/ccuJdoaf.s:4586   .debug_str:000000000000049e .LASF93
     /tmp/ccuJdoaf.s:4612   .debug_str:0000000000000576 .LASF94
     /tmp/ccuJdoaf.s:4788   .debug_str:0000000000000b89 .LASF95
     /tmp/ccuJdoaf.s:4830   .debug_str:0000000000000d37 .LASF96
     /tmp/ccuJdoaf.s:4668   .debug_str:000000000000071c .LASF97
GAS LISTING /tmp/ccuJdoaf.s 			page 26


     /tmp/ccuJdoaf.s:4716   .debug_str:0000000000000882 .LASF98
     /tmp/ccuJdoaf.s:4798   .debug_str:0000000000000c0f .LASF99
     /tmp/ccuJdoaf.s:4692   .debug_str:00000000000007df .LASF100
     /tmp/ccuJdoaf.s:4812   .debug_str:0000000000000c89 .LASF101
     /tmp/ccuJdoaf.s:4598   .debug_str:0000000000000502 .LASF102
     /tmp/ccuJdoaf.s:4650   .debug_str:000000000000068d .LASF103
     /tmp/ccuJdoaf.s:4520   .debug_str:0000000000000268 .LASF104
     /tmp/ccuJdoaf.s:4488   .debug_str:000000000000017e .LASF105
     /tmp/ccuJdoaf.s:4742   .debug_str:0000000000000963 .LASF106
     /tmp/ccuJdoaf.s:4466   .debug_str:00000000000000eb .LASF107
     /tmp/ccuJdoaf.s:4560   .debug_str:00000000000003e5 .LASF108
     /tmp/ccuJdoaf.s:4614   .debug_str:000000000000058f .LASF109
     /tmp/ccuJdoaf.s:4702   .debug_str:0000000000000827 .LASF110
     /tmp/ccuJdoaf.s:4542   .debug_str:0000000000000350 .LASF111
     /tmp/ccuJdoaf.s:4764   .debug_str:0000000000000ac5 .LASF112
     /tmp/ccuJdoaf.s:4680   .debug_str:000000000000077a .LASF113
     /tmp/ccuJdoaf.s:4566   .debug_str:0000000000000401 .LASF114
     /tmp/ccuJdoaf.s:4610   .debug_str:000000000000055e .LASF115
     /tmp/ccuJdoaf.s:4448   .debug_str:0000000000000046 .LASF116
     /tmp/ccuJdoaf.s:4794   .debug_str:0000000000000be6 .LASF117
     /tmp/ccuJdoaf.s:4722   .debug_str:00000000000008b0 .LASF118
     /tmp/ccuJdoaf.s:4808   .debug_str:0000000000000c63 .LASF119
     /tmp/ccuJdoaf.s:4648   .debug_str:0000000000000685 .LASF120
     /tmp/ccuJdoaf.s:4624   .debug_str:00000000000005d6 .LASF121
     /tmp/ccuJdoaf.s:4572   .debug_str:0000000000000426 .LASF192
     /tmp/ccuJdoaf.s:4514   .debug_str:0000000000000246 .LASF193
     /tmp/ccuJdoaf.s:4628   .debug_str:00000000000005ee .LASF123
     /tmp/ccuJdoaf.s:4522   .debug_str:000000000000026d .LASF125
     /tmp/ccuJdoaf.s:4676   .debug_str:0000000000000761 .LASF126
     /tmp/ccuJdoaf.s:4500   .debug_str:00000000000001d6 .LASF136
     /tmp/ccuJdoaf.s:4754   .debug_str:00000000000009b2 .LASF127
     /tmp/ccuJdoaf.s:4686   .debug_str:00000000000007bb .LASF129
     /tmp/ccuJdoaf.s:4718   .debug_str:0000000000000893 .LASF131
     /tmp/ccuJdoaf.s:4502   .debug_str:00000000000001e6 .LASF132
     /tmp/ccuJdoaf.s:4460   .debug_str:00000000000000ad .LASF133
     /tmp/ccuJdoaf.s:4574   .debug_str:000000000000042b .LASF134
     /tmp/ccuJdoaf.s:4564   .debug_str:00000000000003f1 .LASF194
     /tmp/ccuJdoaf.s:4558   .debug_str:00000000000003de .LASF135
     /tmp/ccuJdoaf.s:4508   .debug_str:0000000000000216 .LASF147
     /tmp/ccuJdoaf.s:4696   .debug_str:00000000000007fb .LASF137
     /tmp/ccuJdoaf.s:4824   .debug_str:0000000000000d00 .LASF138
     /tmp/ccuJdoaf.s:4724   .debug_str:00000000000008c4 .LASF145
     /tmp/ccuJdoaf.s:4490   .debug_str:0000000000000195 .LASF152
     /tmp/ccuJdoaf.s:4818   .debug_str:0000000000000cc9 .LASF139
     /tmp/ccuJdoaf.s:4756   .debug_str:00000000000009c4 .LASF140
     /tmp/ccuJdoaf.s:4656   .debug_str:00000000000006ad .LASF141
     /tmp/ccuJdoaf.s:4472   .debug_str:000000000000011b .LASF142
     /tmp/ccuJdoaf.s:4642   .debug_str:000000000000065b .LASF143
     /tmp/ccuJdoaf.s:4576   .debug_str:0000000000000434 .LASF144
     /tmp/ccuJdoaf.s:4810   .debug_str:0000000000000c78 .LASF195
     /tmp/ccuJdoaf.s:4478   .debug_str:0000000000000136 .LASF196
     /tmp/ccuJdoaf.s:4710   .debug_str:000000000000085e .LASF197
     /tmp/ccuJdoaf.s:4504   .debug_str:00000000000001fb .LASF146
     /tmp/ccuJdoaf.s:4782   .debug_str:0000000000000b4f .LASF148
     /tmp/ccuJdoaf.s:4784   .debug_str:0000000000000b69 .LASF149
     /tmp/ccuJdoaf.s:4744   .debug_str:000000000000096a .LASF150
     /tmp/ccuJdoaf.s:4552   .debug_str:00000000000003b2 .LASF151
GAS LISTING /tmp/ccuJdoaf.s 			page 27


     /tmp/ccuJdoaf.s:4440   .debug_str:0000000000000000 .LASF153
     /tmp/ccuJdoaf.s:4644   .debug_str:000000000000066e .LASF154
     /tmp/ccuJdoaf.s:4752   .debug_str:000000000000099a .LASF198
     /tmp/ccuJdoaf.s:4544   .debug_str:0000000000000373 .LASF155
     /tmp/ccuJdoaf.s:4456   .debug_str:000000000000009c .LASF156
     /tmp/ccuJdoaf.s:4836   .debug_str:0000000000000d55 .LASF157
     /tmp/ccuJdoaf.s:342    .text._ZN14PeriodicThreadD0Ev:0000000000000000 .LFB70
     /tmp/ccuJdoaf.s:374    .text._ZN14PeriodicThreadD0Ev:0000000000000034 .LFE70
     /tmp/ccuJdoaf.s:4106   .debug_loc:0000000000000000 .LLST7
     /tmp/ccuJdoaf.s:355    .text._ZN14PeriodicThreadD0Ev:0000000000000010 .LBB6
     /tmp/ccuJdoaf.s:362    .text._ZN14PeriodicThreadD0Ev:000000000000001c .LBE6
     /tmp/ccuJdoaf.s:4120   .debug_loc:0000000000000039 .LLST8
     /tmp/ccuJdoaf.s:364    .text._ZN14PeriodicThreadD0Ev:0000000000000024 .LVL21
     /tmp/ccuJdoaf.s:4700   .debug_str:000000000000080f .LASF158
     /tmp/ccuJdoaf.s:154    .text._ZN14PeriodicThreadD2Ev:0000000000000000 .LFB68
     /tmp/ccuJdoaf.s:176    .text._ZN14PeriodicThreadD2Ev:0000000000000024 .LFE68
     /tmp/ccuJdoaf.s:731    .text:00000000000002d0 .LFB63
     /tmp/ccuJdoaf.s:757    .text:00000000000002f8 .LFE63
     /tmp/ccuJdoaf.s:4127   .debug_loc:000000000000005c .LLST19
     /tmp/ccuJdoaf.s:746    .text:00000000000002e8 .LVL45
     /tmp/ccuJdoaf.s:700    .text:00000000000002a8 .LFB62
     /tmp/ccuJdoaf.s:725    .text:00000000000002d0 .LFE62
     /tmp/ccuJdoaf.s:714    .text:00000000000002c0 .LVL43
     /tmp/ccuJdoaf.s:4480   .debug_str:0000000000000140 .LASF165
     /tmp/ccuJdoaf.s:4584   .debug_str:0000000000000486 .LASF159
     /tmp/ccuJdoaf.s:657    .text:0000000000000268 .LFB60
     /tmp/ccuJdoaf.s:692    .text:00000000000002a8 .LFE60
     /tmp/ccuJdoaf.s:4141   .debug_loc:0000000000000095 .LLST17
     /tmp/ccuJdoaf.s:4159   .debug_loc:00000000000000e1 .LLST18
     /tmp/ccuJdoaf.s:675    .text:0000000000000288 .LVL41
     /tmp/ccuJdoaf.s:623    .text:000000000000023c .LFB58
     /tmp/ccuJdoaf.s:651    .text:0000000000000268 .LFE58
     /tmp/ccuJdoaf.s:4173   .debug_loc:000000000000011a .LLST16
     /tmp/ccuJdoaf.s:640    .text:0000000000000258 .LVL39
     /tmp/ccuJdoaf.s:589    .text:0000000000000210 .LFB57
     /tmp/ccuJdoaf.s:617    .text:000000000000023c .LFE57
     /tmp/ccuJdoaf.s:4187   .debug_loc:0000000000000153 .LLST15
     /tmp/ccuJdoaf.s:606    .text:000000000000022c .LVL36
     /tmp/ccuJdoaf.s:4570   .debug_str:0000000000000414 .LASF160
     /tmp/ccuJdoaf.s:311    .text:00000000000000d0 .LFB56
     /tmp/ccuJdoaf.s:335    .text:00000000000000f8 .LFE56
     /tmp/ccuJdoaf.s:4201   .debug_loc:000000000000018c .LLST6
     /tmp/ccuJdoaf.s:325    .text:00000000000000e8 .LVL17
     /tmp/ccuJdoaf.s:4464   .debug_str:00000000000000d9 .LASF161
     /tmp/ccuJdoaf.s:126    .text:0000000000000018 .LFB54
     /tmp/ccuJdoaf.s:145    .text:0000000000000030 .LFE54
     /tmp/ccuJdoaf.s:564    .text:00000000000001f4 .LFB52
     /tmp/ccuJdoaf.s:583    .text:0000000000000210 .LFE52
     /tmp/ccuJdoaf.s:4796   .debug_str:0000000000000c00 .LASF162
     /tmp/ccuJdoaf.s:281    .text:00000000000000a8 .LFB51
     /tmp/ccuJdoaf.s:305    .text:00000000000000d0 .LFE51
     /tmp/ccuJdoaf.s:4215   .debug_loc:00000000000001c5 .LLST5
     /tmp/ccuJdoaf.s:295    .text:00000000000000c0 .LVL15
     /tmp/ccuJdoaf.s:4678   .debug_str:000000000000076b .LASF163
     /tmp/ccuJdoaf.s:100    .text:0000000000000000 .LFB49
     /tmp/ccuJdoaf.s:118    .text:0000000000000018 .LFE49
     /tmp/ccuJdoaf.s:4706   .debug_str:0000000000000845 .LASF164
GAS LISTING /tmp/ccuJdoaf.s 			page 28


     /tmp/ccuJdoaf.s:521    .text:00000000000001b0 .LFB46
     /tmp/ccuJdoaf.s:556    .text:00000000000001f4 .LFE46
     /tmp/ccuJdoaf.s:4229   .debug_loc:00000000000001fe .LLST14
     /tmp/ccuJdoaf.s:544    .text:00000000000001e4 .LVL33
     /tmp/ccuJdoaf.s:4768   .debug_str:0000000000000ae4 .LASF166
     /tmp/ccuJdoaf.s:480    .text:0000000000000178 .LFB43
     /tmp/ccuJdoaf.s:513    .text:00000000000001b0 .LFE43
     /tmp/ccuJdoaf.s:4247   .debug_loc:000000000000024a .LLST11
     /tmp/ccuJdoaf.s:4267   .debug_loc:0000000000000298 .LLST12
     /tmp/ccuJdoaf.s:4281   .debug_loc:00000000000002d1 .LLST13
     /tmp/ccuJdoaf.s:501    .text:00000000000001a0 .LVL30
     /tmp/ccuJdoaf.s:449    .text:0000000000000150 .LFB41
     /tmp/ccuJdoaf.s:474    .text:0000000000000178 .LFE41
     /tmp/ccuJdoaf.s:463    .text:0000000000000168 .LVL27
     /tmp/ccuJdoaf.s:413    .text:0000000000000120 .LFB40
     /tmp/ccuJdoaf.s:443    .text:0000000000000150 .LFE40
     /tmp/ccuJdoaf.s:4295   .debug_loc:000000000000030a .LLST10
     /tmp/ccuJdoaf.s:430    .text:000000000000013c .LVL26
     /tmp/ccuJdoaf.s:4826   .debug_str:0000000000000d17 .LASF167
     /tmp/ccuJdoaf.s:4646   .debug_str:000000000000067e .LASF168
     /tmp/ccuJdoaf.s:381    .text:00000000000000f8 .LFB39
     /tmp/ccuJdoaf.s:407    .text:0000000000000120 .LFE39
     /tmp/ccuJdoaf.s:4315   .debug_loc:0000000000000358 .LLST9
     /tmp/ccuJdoaf.s:396    .text:0000000000000110 .LVL23
     /tmp/ccuJdoaf.s:4652   .debug_str:00000000000006a1 .LASF169
     /tmp/ccuJdoaf.s:249    .text:0000000000000080 .LFB38
     /tmp/ccuJdoaf.s:275    .text:00000000000000a8 .LFE38
     /tmp/ccuJdoaf.s:4329   .debug_loc:0000000000000391 .LLST4
     /tmp/ccuJdoaf.s:264    .text:0000000000000098 .LVL13
     /tmp/ccuJdoaf.s:4626   .debug_str:00000000000005de .LASF170
     /tmp/ccuJdoaf.s:4468   .debug_str:0000000000000104 .LASF171
     /tmp/ccuJdoaf.s:217    .text:0000000000000058 .LFB37
     /tmp/ccuJdoaf.s:243    .text:0000000000000080 .LFE37
     /tmp/ccuJdoaf.s:4343   .debug_loc:00000000000003ca .LLST3
     /tmp/ccuJdoaf.s:232    .text:0000000000000070 .LVL11
     /tmp/ccuJdoaf.s:4536   .debug_str:000000000000031f .LASF172
     /tmp/ccuJdoaf.s:185    .text:0000000000000030 .LFB36
     /tmp/ccuJdoaf.s:211    .text:0000000000000058 .LFE36
     /tmp/ccuJdoaf.s:4357   .debug_loc:0000000000000403 .LLST2
     /tmp/ccuJdoaf.s:200    .text:0000000000000048 .LVL9
     /tmp/ccuJdoaf.s:75     .text._ZN14PeriodicThread18periodicActivationEv:0000000000000000 .LFB35
     /tmp/ccuJdoaf.s:93     .text._ZN14PeriodicThread18periodicActivationEv:0000000000000018 .LFE35
     /tmp/ccuJdoaf.s:37     .text._ZN6Thread9myWrapperEPv:0000000000000000 .LFB31
     /tmp/ccuJdoaf.s:68     .text._ZN6Thread9myWrapperEPv:000000000000002c .LFE31
     /tmp/ccuJdoaf.s:4371   .debug_loc:000000000000043c .LLST0
     /tmp/ccuJdoaf.s:4698   .debug_str:0000000000000808 .LASF173
     /tmp/ccuJdoaf.s:4385   .debug_loc:0000000000000475 .LLST1
     /tmp/ccuJdoaf.s:57     .text._ZN6Thread9myWrapperEPv:000000000000001c .LVL3
     /tmp/ccuJdoaf.s:11     .text._ZN6Thread3runEv:0000000000000000 .LFB30
     /tmp/ccuJdoaf.s:30     .text._ZN6Thread3runEv:0000000000000018 .LFE30
     /tmp/ccuJdoaf.s:4618   .debug_str:00000000000005b0 .LASF174
     /tmp/ccuJdoaf.s:4602   .debug_str:0000000000000513 .LASF175
     /tmp/ccuJdoaf.s:4538   .debug_str:0000000000000325 .LASF176
     /tmp/ccuJdoaf.s:4556   .debug_str:00000000000003d3 .LASF177
     /tmp/ccuJdoaf.s:4814   .debug_str:0000000000000c8f .LASF178
     /tmp/ccuJdoaf.s:4832   .debug_str:0000000000000d42 .LASF179
     /tmp/ccuJdoaf.s:4760   .debug_str:00000000000009df .LASF180
GAS LISTING /tmp/ccuJdoaf.s 			page 29


     /tmp/ccuJdoaf.s:4804   .debug_str:0000000000000c40 .LASF181
     /tmp/ccuJdoaf.s:4462   .debug_str:00000000000000c4 .LASF182
     /tmp/ccuJdoaf.s:4690   .debug_str:00000000000007cf .LASF183
     /tmp/ccuJdoaf.s:4684   .debug_str:00000000000007a4 .LASF184
     /tmp/ccuJdoaf.s:4664   .debug_str:00000000000006f2 .LASF185
     /tmp/ccuJdoaf.s:345    .text._ZN14PeriodicThreadD0Ev:0000000000000000 .LVL18
     /tmp/ccuJdoaf.s:354    .text._ZN14PeriodicThreadD0Ev:0000000000000010 .LVL19
     /tmp/ccuJdoaf.s:360    .text._ZN14PeriodicThreadD0Ev:000000000000001c .LVL20
     /tmp/ccuJdoaf.s:734    .text:00000000000002d0 .LVL44
     /tmp/ccuJdoaf.s:660    .text:0000000000000268 .LVL40
     /tmp/ccuJdoaf.s:687    .text:00000000000002a0 .LVL42
     /tmp/ccuJdoaf.s:626    .text:000000000000023c .LVL37
     /tmp/ccuJdoaf.s:638    .text:0000000000000250 .LVL38
     /tmp/ccuJdoaf.s:592    .text:0000000000000210 .LVL34
     /tmp/ccuJdoaf.s:604    .text:0000000000000224 .LVL35
     /tmp/ccuJdoaf.s:314    .text:00000000000000d0 .LVL16
     /tmp/ccuJdoaf.s:284    .text:00000000000000a8 .LVL14
     /tmp/ccuJdoaf.s:524    .text:00000000000001b0 .LVL31
     /tmp/ccuJdoaf.s:542    .text:00000000000001dc .LVL32
     /tmp/ccuJdoaf.s:483    .text:0000000000000178 .LVL28
     /tmp/ccuJdoaf.s:499    .text:0000000000000198 .LVL29
     /tmp/ccuJdoaf.s:416    .text:0000000000000120 .LVL24
     /tmp/ccuJdoaf.s:428    .text:0000000000000134 .LVL25
     /tmp/ccuJdoaf.s:384    .text:00000000000000f8 .LVL22
     /tmp/ccuJdoaf.s:252    .text:0000000000000080 .LVL12
     /tmp/ccuJdoaf.s:220    .text:0000000000000058 .LVL10
     /tmp/ccuJdoaf.s:188    .text:0000000000000030 .LVL8
     /tmp/ccuJdoaf.s:40     .text._ZN6Thread9myWrapperEPv:0000000000000000 .LVL1
     /tmp/ccuJdoaf.s:50     .text._ZN6Thread9myWrapperEPv:0000000000000010 .LVL2
     /tmp/ccuJdoaf.s:802    .debug_info:0000000000000000 .Ldebug_info0
     /tmp/ccuJdoaf.s:5      .text:0000000000000000 .Ltext0
     /tmp/ccuJdoaf.s:793    .text:00000000000002f8 .Letext0
                           .group:0000000000000000 _ZN14PeriodicThreadD5Ev

UNDEFINED SYMBOLS
_ZN15MemoryAllocator6mallocEm
_ZN15MemoryAllocator4freeEPv
_Z12thread_startPP3TCB
_Z15thread_dispatchv
_Z14thread_create2PP3TCBPFvPvES2_
_Z8sem_waitP10Ksemaphore
_Z10sem_signalP10Ksemaphore
__getc
__putc
