GAS LISTING /tmp/ccrN5AO7.s 			page 1


   1              		.file	"syscall_cpp.cpp"
   2              		.option pic
   3              		.option norelax
   4              		.text
   5              	.Ltext0:
   6              		.section	.text._ZN14PeriodicThread18periodicActivationEv,"axG",@progbits,_ZN14PeriodicThread18peri
   7              		.align	2
   8              		.weak	_ZN14PeriodicThread18periodicActivationEv
  10              	_ZN14PeriodicThread18periodicActivationEv:
  11              	.LFB32:
  12              		.file 1 "src/../h/syscall_cpp.hpp"
   1:src/../h/syscall_cpp.hpp **** #ifndef _syscall_cpp
   2:src/../h/syscall_cpp.hpp **** #define _syscall_cpp
   3:src/../h/syscall_cpp.hpp **** #include "../lib/console.h"
   4:src/../h/syscall_cpp.hpp **** //#include "riscv.hpp"
   5:src/../h/syscall_cpp.hpp **** //#include "TCB.hpp"
   6:src/../h/syscall_cpp.hpp **** #include "syscall_c.h"
   7:src/../h/syscall_cpp.hpp **** 
   8:src/../h/syscall_cpp.hpp **** 
   9:src/../h/syscall_cpp.hpp **** void* operator new (size_t n);
  10:src/../h/syscall_cpp.hpp **** void operator delete (void* p);
  11:src/../h/syscall_cpp.hpp **** 
  12:src/../h/syscall_cpp.hpp **** class Thread {
  13:src/../h/syscall_cpp.hpp **** 
  14:src/../h/syscall_cpp.hpp **** public:
  15:src/../h/syscall_cpp.hpp ****     Thread(void (*body)(void*), void* arg) {
  16:src/../h/syscall_cpp.hpp ****         myHandle = new TCB(body, arg, DEFAULT_TIME_SLICE);
  17:src/../h/syscall_cpp.hpp **** //        int a =thread_create(&myHandle, body, arg);
  18:src/../h/syscall_cpp.hpp **** //        a++;
  19:src/../h/syscall_cpp.hpp ****     }
  20:src/../h/syscall_cpp.hpp **** 
  21:src/../h/syscall_cpp.hpp ****     virtual ~Thread ();
  22:src/../h/syscall_cpp.hpp ****     int start ();
  23:src/../h/syscall_cpp.hpp ****     static void dispatch ();
  24:src/../h/syscall_cpp.hpp ****     static int sleep (time_t);
  25:src/../h/syscall_cpp.hpp **** protected:
  26:src/../h/syscall_cpp.hpp ****     Thread ();
  27:src/../h/syscall_cpp.hpp ****     virtual void run ();
  28:src/../h/syscall_cpp.hpp **** private:
  29:src/../h/syscall_cpp.hpp ****     thread_t myHandle;
  30:src/../h/syscall_cpp.hpp **** 
  31:src/../h/syscall_cpp.hpp **** };
  32:src/../h/syscall_cpp.hpp **** 
  33:src/../h/syscall_cpp.hpp **** 
  34:src/../h/syscall_cpp.hpp **** class Semaphore {
  35:src/../h/syscall_cpp.hpp **** public:
  36:src/../h/syscall_cpp.hpp ****     Semaphore (unsigned init = 1){
  37:src/../h/syscall_cpp.hpp **** 
  38:src/../h/syscall_cpp.hpp ****     }
  39:src/../h/syscall_cpp.hpp ****     virtual ~Semaphore();
  40:src/../h/syscall_cpp.hpp ****     int wait ();
  41:src/../h/syscall_cpp.hpp ****     int signal ();
  42:src/../h/syscall_cpp.hpp **** private:
  43:src/../h/syscall_cpp.hpp ****     sem_t myHandle;
  44:src/../h/syscall_cpp.hpp **** };
  45:src/../h/syscall_cpp.hpp **** 
  46:src/../h/syscall_cpp.hpp **** 
GAS LISTING /tmp/ccrN5AO7.s 			page 2


  47:src/../h/syscall_cpp.hpp **** class PeriodicThread : public Thread {
  48:src/../h/syscall_cpp.hpp **** protected:
  49:src/../h/syscall_cpp.hpp ****     PeriodicThread (time_t period);
  50:src/../h/syscall_cpp.hpp ****     virtual void periodicActivation () {}
  13              		.loc 1 50 18
  14              		.cfi_startproc
  15              	.LVL0:
  16 0000 130101FF 		addi	sp,sp,-16
  17              		.cfi_def_cfa_offset 16
  18 0004 23348100 		sd	s0,8(sp)
  19              		.cfi_offset 8, -8
  20 0008 13040101 		addi	s0,sp,16
  21              		.cfi_def_cfa 8, 0
  22              		.loc 1 50 41 is_stmt 0
  23 000c 03348100 		ld	s0,8(sp)
  24              		.cfi_restore 8
  25              		.cfi_def_cfa 2, 16
  26 0010 13010101 		addi	sp,sp,16
  27              		.cfi_def_cfa_offset 0
  28 0014 67800000 		jr	ra
  29              		.cfi_endproc
  30              	.LFE32:
  32              		.text
  33              		.align	2
  34              		.globl	_ZN6ThreadD2Ev
  36              	_ZN6ThreadD2Ev:
  37              	.LFB43:
  38              		.file 2 "src/syscall_cpp.cpp"
   1:src/syscall_cpp.cpp **** #include "../h/syscall_cpp.hpp"
   2:src/syscall_cpp.cpp **** 
   3:src/syscall_cpp.cpp **** 
   4:src/syscall_cpp.cpp **** void *operator new(size_t n)
   5:src/syscall_cpp.cpp **** {
   6:src/syscall_cpp.cpp ****     return __mem_alloc(n);
   7:src/syscall_cpp.cpp **** }
   8:src/syscall_cpp.cpp **** 
   9:src/syscall_cpp.cpp **** void *operator new[](size_t n)
  10:src/syscall_cpp.cpp **** {
  11:src/syscall_cpp.cpp ****     return __mem_alloc(n);
  12:src/syscall_cpp.cpp **** }
  13:src/syscall_cpp.cpp **** 
  14:src/syscall_cpp.cpp **** void operator delete(void *p)
  15:src/syscall_cpp.cpp **** {
  16:src/syscall_cpp.cpp ****     __mem_free(p);
  17:src/syscall_cpp.cpp **** }
  18:src/syscall_cpp.cpp **** 
  19:src/syscall_cpp.cpp **** void operator delete[](void *p)
  20:src/syscall_cpp.cpp **** {
  21:src/syscall_cpp.cpp ****     __mem_free(p);
  22:src/syscall_cpp.cpp **** }
  23:src/syscall_cpp.cpp **** 
  24:src/syscall_cpp.cpp **** 
  25:src/syscall_cpp.cpp **** //Thread::Thread (void (*body)(void*), void* arg) {
  26:src/syscall_cpp.cpp **** //    int a =thread_create(&myHandle, body, arg);
  27:src/syscall_cpp.cpp **** //    a++;
  28:src/syscall_cpp.cpp **** //}
  29:src/syscall_cpp.cpp **** 
GAS LISTING /tmp/ccrN5AO7.s 			page 3


  30:src/syscall_cpp.cpp **** int Thread::start (){
  31:src/syscall_cpp.cpp ****     int a = thread_create(&myHandle, myHandle->getBody(), myHandle->getArg());
  32:src/syscall_cpp.cpp ****     return a;
  33:src/syscall_cpp.cpp **** }
  34:src/syscall_cpp.cpp **** void Thread::dispatch (){
  35:src/syscall_cpp.cpp ****     thread_dispatch();
  36:src/syscall_cpp.cpp **** }
  37:src/syscall_cpp.cpp **** 
  38:src/syscall_cpp.cpp **** Thread::Thread() {
  39:src/syscall_cpp.cpp **** 
  40:src/syscall_cpp.cpp **** }
  41:src/syscall_cpp.cpp **** 
  42:src/syscall_cpp.cpp **** Thread::~Thread() {
  39              		.loc 2 42 1 is_stmt 1
  40              		.cfi_startproc
  41              	.LVL1:
  42 0000 130101FF 		addi	sp,sp,-16
  43              		.cfi_def_cfa_offset 16
  44 0004 23348100 		sd	s0,8(sp)
  45              		.cfi_offset 8, -8
  46 0008 13040101 		addi	s0,sp,16
  47              		.cfi_def_cfa 8, 0
  43:src/syscall_cpp.cpp **** 
  44:src/syscall_cpp.cpp **** }
  48              		.loc 2 44 1 is_stmt 0
  49 000c 03348100 		ld	s0,8(sp)
  50              		.cfi_restore 8
  51              		.cfi_def_cfa 2, 16
  52 0010 13010101 		addi	sp,sp,16
  53              		.cfi_def_cfa_offset 0
  54 0014 67800000 		jr	ra
  55              		.cfi_endproc
  56              	.LFE43:
  58              		.globl	_ZN6ThreadD1Ev
  59              		.set	_ZN6ThreadD1Ev,_ZN6ThreadD2Ev
  60              		.align	2
  61              		.globl	_ZN6Thread3runEv
  63              	_ZN6Thread3runEv:
  64              	.LFB46:
  45:src/syscall_cpp.cpp **** 
  46:src/syscall_cpp.cpp **** void Thread::run() {
  65              		.loc 2 46 20 is_stmt 1
  66              		.cfi_startproc
  67              	.LVL2:
  68 0018 130101FF 		addi	sp,sp,-16
  69              		.cfi_def_cfa_offset 16
  70 001c 23348100 		sd	s0,8(sp)
  71              		.cfi_offset 8, -8
  72 0020 13040101 		addi	s0,sp,16
  73              		.cfi_def_cfa 8, 0
  47:src/syscall_cpp.cpp **** 
  48:src/syscall_cpp.cpp **** }
  74              		.loc 2 48 1 is_stmt 0
  75 0024 03348100 		ld	s0,8(sp)
  76              		.cfi_restore 8
  77              		.cfi_def_cfa 2, 16
  78 0028 13010101 		addi	sp,sp,16
GAS LISTING /tmp/ccrN5AO7.s 			page 4


  79              		.cfi_def_cfa_offset 0
  80 002c 67800000 		jr	ra
  81              		.cfi_endproc
  82              	.LFE46:
  84              		.align	2
  85              		.globl	_ZN9SemaphoreD2Ev
  87              	_ZN9SemaphoreD2Ev:
  88              	.LFB49:
  49:src/syscall_cpp.cpp **** 
  50:src/syscall_cpp.cpp **** int Thread::sleep(time_t) {
  51:src/syscall_cpp.cpp ****     return 0;
  52:src/syscall_cpp.cpp **** }
  53:src/syscall_cpp.cpp **** 
  54:src/syscall_cpp.cpp **** Semaphore::~Semaphore() {
  89              		.loc 2 54 1 is_stmt 1
  90              		.cfi_startproc
  91              	.LVL3:
  92 0030 130101FF 		addi	sp,sp,-16
  93              		.cfi_def_cfa_offset 16
  94 0034 23348100 		sd	s0,8(sp)
  95              		.cfi_offset 8, -8
  96 0038 13040101 		addi	s0,sp,16
  97              		.cfi_def_cfa 8, 0
  55:src/syscall_cpp.cpp **** //    sem_close(myHandle);
  56:src/syscall_cpp.cpp **** }
  98              		.loc 2 56 1 is_stmt 0
  99 003c 03348100 		ld	s0,8(sp)
 100              		.cfi_restore 8
 101              		.cfi_def_cfa 2, 16
 102 0040 13010101 		addi	sp,sp,16
 103              		.cfi_def_cfa_offset 0
 104 0044 67800000 		jr	ra
 105              		.cfi_endproc
 106              	.LFE49:
 108              		.globl	_ZN9SemaphoreD1Ev
 109              		.set	_ZN9SemaphoreD1Ev,_ZN9SemaphoreD2Ev
 110              		.section	.text._ZN14PeriodicThreadD2Ev,"axG",@progbits,_ZN14PeriodicThreadD5Ev,comdat
 111              		.align	2
 112              		.weak	_ZN14PeriodicThreadD2Ev
 114              	_ZN14PeriodicThreadD2Ev:
 115              	.LFB63:
  47:src/../h/syscall_cpp.hpp **** protected:
 116              		.loc 1 47 7 is_stmt 1
 117              		.cfi_startproc
 118              	.LVL4:
 119 0000 130101FF 		addi	sp,sp,-16
 120              		.cfi_def_cfa_offset 16
 121 0004 23348100 		sd	s0,8(sp)
 122              		.cfi_offset 8, -8
 123 0008 13040101 		addi	s0,sp,16
 124              		.cfi_def_cfa 8, 0
 125              	.LBB9:
  47:src/../h/syscall_cpp.hpp **** protected:
 126              		.loc 1 47 7 is_stmt 0
 127 000c 97070000 		lla	a5,_ZTV14PeriodicThread+16
 127      93870700 
 128 0014 2330F500 		sd	a5,0(a0)
GAS LISTING /tmp/ccrN5AO7.s 			page 5


 129              	.LBE9:
 130 0018 03348100 		ld	s0,8(sp)
 131              		.cfi_restore 8
 132              		.cfi_def_cfa 2, 16
 133 001c 13010101 		addi	sp,sp,16
 134              		.cfi_def_cfa_offset 0
 135 0020 67800000 		jr	ra
 136              		.cfi_endproc
 137              	.LFE63:
 139              		.weak	_ZN14PeriodicThreadD1Ev
 140              		.set	_ZN14PeriodicThreadD1Ev,_ZN14PeriodicThreadD2Ev
 141              		.text
 142              		.align	2
 143              		.globl	_Znwm
 145              	_Znwm:
 146              	.LFB33:
   5:src/syscall_cpp.cpp ****     return __mem_alloc(n);
 147              		.loc 2 5 1 is_stmt 1
 148              		.cfi_startproc
 149              	.LVL5:
 150 0048 130101FF 		addi	sp,sp,-16
 151              		.cfi_def_cfa_offset 16
 152 004c 23341100 		sd	ra,8(sp)
 153 0050 23308100 		sd	s0,0(sp)
 154              		.cfi_offset 1, -8
 155              		.cfi_offset 8, -16
 156 0054 13040101 		addi	s0,sp,16
 157              		.cfi_def_cfa 8, 0
   6:src/syscall_cpp.cpp **** }
 158              		.loc 2 6 5
   6:src/syscall_cpp.cpp **** }
 159              		.loc 2 6 23 is_stmt 0
 160 0058 97000000 		call	__mem_alloc@plt
 160      E7800000 
 161              	.LVL6:
   7:src/syscall_cpp.cpp **** 
 162              		.loc 2 7 1
 163 0060 83308100 		ld	ra,8(sp)
 164              		.cfi_restore 1
 165 0064 03340100 		ld	s0,0(sp)
 166              		.cfi_restore 8
 167              		.cfi_def_cfa 2, 16
 168 0068 13010101 		addi	sp,sp,16
 169              		.cfi_def_cfa_offset 0
 170 006c 67800000 		jr	ra
 171              		.cfi_endproc
 172              	.LFE33:
 174              		.align	2
 175              		.globl	_Znam
 177              	_Znam:
 178              	.LFB34:
  10:src/syscall_cpp.cpp ****     return __mem_alloc(n);
 179              		.loc 2 10 1 is_stmt 1
 180              		.cfi_startproc
 181              	.LVL7:
 182 0070 130101FF 		addi	sp,sp,-16
 183              		.cfi_def_cfa_offset 16
GAS LISTING /tmp/ccrN5AO7.s 			page 6


 184 0074 23341100 		sd	ra,8(sp)
 185 0078 23308100 		sd	s0,0(sp)
 186              		.cfi_offset 1, -8
 187              		.cfi_offset 8, -16
 188 007c 13040101 		addi	s0,sp,16
 189              		.cfi_def_cfa 8, 0
  11:src/syscall_cpp.cpp **** }
 190              		.loc 2 11 5
  11:src/syscall_cpp.cpp **** }
 191              		.loc 2 11 23 is_stmt 0
 192 0080 97000000 		call	__mem_alloc@plt
 192      E7800000 
 193              	.LVL8:
  12:src/syscall_cpp.cpp **** 
 194              		.loc 2 12 1
 195 0088 83308100 		ld	ra,8(sp)
 196              		.cfi_restore 1
 197 008c 03340100 		ld	s0,0(sp)
 198              		.cfi_restore 8
 199              		.cfi_def_cfa 2, 16
 200 0090 13010101 		addi	sp,sp,16
 201              		.cfi_def_cfa_offset 0
 202 0094 67800000 		jr	ra
 203              		.cfi_endproc
 204              	.LFE34:
 206              		.align	2
 207              		.globl	_ZdlPv
 209              	_ZdlPv:
 210              	.LFB35:
  15:src/syscall_cpp.cpp ****     __mem_free(p);
 211              		.loc 2 15 1 is_stmt 1
 212              		.cfi_startproc
 213              	.LVL9:
 214 0098 130101FF 		addi	sp,sp,-16
 215              		.cfi_def_cfa_offset 16
 216 009c 23341100 		sd	ra,8(sp)
 217 00a0 23308100 		sd	s0,0(sp)
 218              		.cfi_offset 1, -8
 219              		.cfi_offset 8, -16
 220 00a4 13040101 		addi	s0,sp,16
 221              		.cfi_def_cfa 8, 0
  16:src/syscall_cpp.cpp **** }
 222              		.loc 2 16 5
  16:src/syscall_cpp.cpp **** }
 223              		.loc 2 16 15 is_stmt 0
 224 00a8 97000000 		call	__mem_free@plt
 224      E7800000 
 225              	.LVL10:
  17:src/syscall_cpp.cpp **** 
 226              		.loc 2 17 1
 227 00b0 83308100 		ld	ra,8(sp)
 228              		.cfi_restore 1
 229 00b4 03340100 		ld	s0,0(sp)
 230              		.cfi_restore 8
 231              		.cfi_def_cfa 2, 16
 232 00b8 13010101 		addi	sp,sp,16
 233              		.cfi_def_cfa_offset 0
GAS LISTING /tmp/ccrN5AO7.s 			page 7


 234 00bc 67800000 		jr	ra
 235              		.cfi_endproc
 236              	.LFE35:
 238              		.align	2
 239              		.globl	_ZN6ThreadD0Ev
 241              	_ZN6ThreadD0Ev:
 242              	.LFB45:
  42:src/syscall_cpp.cpp **** 
 243              		.loc 2 42 1 is_stmt 1
 244              		.cfi_startproc
 245              	.LVL11:
 246 00c0 130101FF 		addi	sp,sp,-16
 247              		.cfi_def_cfa_offset 16
 248 00c4 23341100 		sd	ra,8(sp)
 249 00c8 23308100 		sd	s0,0(sp)
 250              		.cfi_offset 1, -8
 251              		.cfi_offset 8, -16
 252 00cc 13040101 		addi	s0,sp,16
 253              		.cfi_def_cfa 8, 0
  44:src/syscall_cpp.cpp **** 
 254              		.loc 2 44 1 is_stmt 0
 255 00d0 97000000 		call	_ZdlPv
 255      E7800000 
 256              	.LVL12:
 257 00d8 83308100 		ld	ra,8(sp)
 258              		.cfi_restore 1
 259 00dc 03340100 		ld	s0,0(sp)
 260              		.cfi_restore 8
 261              		.cfi_def_cfa 2, 16
 262 00e0 13010101 		addi	sp,sp,16
 263              		.cfi_def_cfa_offset 0
 264 00e4 67800000 		jr	ra
 265              		.cfi_endproc
 266              	.LFE45:
 268              		.align	2
 269              		.globl	_ZN9SemaphoreD0Ev
 271              	_ZN9SemaphoreD0Ev:
 272              	.LFB51:
  54:src/syscall_cpp.cpp **** //    sem_close(myHandle);
 273              		.loc 2 54 1 is_stmt 1
 274              		.cfi_startproc
 275              	.LVL13:
 276 00e8 130101FF 		addi	sp,sp,-16
 277              		.cfi_def_cfa_offset 16
 278 00ec 23341100 		sd	ra,8(sp)
 279 00f0 23308100 		sd	s0,0(sp)
 280              		.cfi_offset 1, -8
 281              		.cfi_offset 8, -16
 282 00f4 13040101 		addi	s0,sp,16
 283              		.cfi_def_cfa 8, 0
 284              		.loc 2 56 1 is_stmt 0
 285 00f8 97000000 		call	_ZdlPv
 285      E7800000 
 286              	.LVL14:
 287 0100 83308100 		ld	ra,8(sp)
 288              		.cfi_restore 1
 289 0104 03340100 		ld	s0,0(sp)
GAS LISTING /tmp/ccrN5AO7.s 			page 8


 290              		.cfi_restore 8
 291              		.cfi_def_cfa 2, 16
 292 0108 13010101 		addi	sp,sp,16
 293              		.cfi_def_cfa_offset 0
 294 010c 67800000 		jr	ra
 295              		.cfi_endproc
 296              	.LFE51:
 298              		.section	.text._ZN14PeriodicThreadD0Ev,"axG",@progbits,_ZN14PeriodicThreadD5Ev,comdat
 299              		.align	2
 300              		.weak	_ZN14PeriodicThreadD0Ev
 302              	_ZN14PeriodicThreadD0Ev:
 303              	.LFB65:
  47:src/../h/syscall_cpp.hpp **** protected:
 304              		.loc 1 47 7 is_stmt 1
 305              		.cfi_startproc
 306              	.LVL15:
 307 0000 130101FF 		addi	sp,sp,-16
 308              		.cfi_def_cfa_offset 16
 309 0004 23341100 		sd	ra,8(sp)
 310 0008 23308100 		sd	s0,0(sp)
 311              		.cfi_offset 1, -8
 312              		.cfi_offset 8, -16
 313 000c 13040101 		addi	s0,sp,16
 314              		.cfi_def_cfa 8, 0
 315              	.LVL16:
 316              	.LBB10:
 317              	.LBB11:
  47:src/../h/syscall_cpp.hpp **** protected:
 318              		.loc 1 47 7 is_stmt 0
 319 0010 97070000 		lla	a5,_ZTV14PeriodicThread+16
 319      93870700 
 320 0018 2330F500 		sd	a5,0(a0)
 321              	.LVL17:
 322              	.LBE11:
 323              	.LBE10:
 324 001c 97000000 		call	_ZdlPv
 324      E7800000 
 325              	.LVL18:
 326 0024 83308100 		ld	ra,8(sp)
 327              		.cfi_restore 1
 328 0028 03340100 		ld	s0,0(sp)
 329              		.cfi_restore 8
 330              		.cfi_def_cfa 2, 16
 331 002c 13010101 		addi	sp,sp,16
 332              		.cfi_def_cfa_offset 0
 333 0030 67800000 		jr	ra
 334              		.cfi_endproc
 335              	.LFE65:
 337              		.text
 338              		.align	2
 339              		.globl	_ZdaPv
 341              	_ZdaPv:
 342              	.LFB36:
  20:src/syscall_cpp.cpp ****     __mem_free(p);
 343              		.loc 2 20 1 is_stmt 1
 344              		.cfi_startproc
 345              	.LVL19:
GAS LISTING /tmp/ccrN5AO7.s 			page 9


 346 0110 130101FF 		addi	sp,sp,-16
 347              		.cfi_def_cfa_offset 16
 348 0114 23341100 		sd	ra,8(sp)
 349 0118 23308100 		sd	s0,0(sp)
 350              		.cfi_offset 1, -8
 351              		.cfi_offset 8, -16
 352 011c 13040101 		addi	s0,sp,16
 353              		.cfi_def_cfa 8, 0
  21:src/syscall_cpp.cpp **** }
 354              		.loc 2 21 5
  21:src/syscall_cpp.cpp **** }
 355              		.loc 2 21 15 is_stmt 0
 356 0120 97000000 		call	__mem_free@plt
 356      E7800000 
 357              	.LVL20:
  22:src/syscall_cpp.cpp **** 
 358              		.loc 2 22 1
 359 0128 83308100 		ld	ra,8(sp)
 360              		.cfi_restore 1
 361 012c 03340100 		ld	s0,0(sp)
 362              		.cfi_restore 8
 363              		.cfi_def_cfa 2, 16
 364 0130 13010101 		addi	sp,sp,16
 365              		.cfi_def_cfa_offset 0
 366 0134 67800000 		jr	ra
 367              		.cfi_endproc
 368              	.LFE36:
 370              		.align	2
 371              		.globl	_ZN6Thread5startEv
 373              	_ZN6Thread5startEv:
 374              	.LFB37:
  30:src/syscall_cpp.cpp ****     int a = thread_create(&myHandle, myHandle->getBody(), myHandle->getArg());
 375              		.loc 2 30 21 is_stmt 1
 376              		.cfi_startproc
 377              	.LVL21:
 378 0138 130101FF 		addi	sp,sp,-16
 379              		.cfi_def_cfa_offset 16
 380 013c 23341100 		sd	ra,8(sp)
 381 0140 23308100 		sd	s0,0(sp)
 382              		.cfi_offset 1, -8
 383              		.cfi_offset 8, -16
 384 0144 13040101 		addi	s0,sp,16
 385              		.cfi_def_cfa 8, 0
  31:src/syscall_cpp.cpp ****     return a;
 386              		.loc 2 31 5
  31:src/syscall_cpp.cpp ****     return a;
 387              		.loc 2 31 38 is_stmt 0
 388 0148 83378500 		ld	a5,8(a0)
 389              	.LVL22:
 390              	.LBB12:
 391              	.LBB13:
 392              		.file 3 "src/../h/TCB.hpp"
   1:src/../h/TCB.hpp **** #ifndef PROJECT_BASE_TCB_HPP
   2:src/../h/TCB.hpp **** #define PROJECT_BASE_TCB_HPP
   3:src/../h/TCB.hpp **** 
   4:src/../h/TCB.hpp **** #include "../lib/hw.h"
   5:src/../h/TCB.hpp **** #include "scheduler.hpp"
GAS LISTING /tmp/ccrN5AO7.s 			page 10


   6:src/../h/TCB.hpp **** 
   7:src/../h/TCB.hpp **** typedef TCB* thread_t;
   8:src/../h/TCB.hpp **** 
   9:src/../h/TCB.hpp **** 
  10:src/../h/TCB.hpp **** class TCB
  11:src/../h/TCB.hpp **** {
  12:src/../h/TCB.hpp **** 
  13:src/../h/TCB.hpp **** public:
  14:src/../h/TCB.hpp ****     using Body = void (*)(void*);
  15:src/../h/TCB.hpp ****      TCB();
  16:src/../h/TCB.hpp **** 
  17:src/../h/TCB.hpp ****     ~TCB() { delete[] stack; }
  18:src/../h/TCB.hpp **** 
  19:src/../h/TCB.hpp ****     bool isFinished() const { return finished; }
  20:src/../h/TCB.hpp **** 
  21:src/../h/TCB.hpp **** 
  22:src/../h/TCB.hpp ****     void setFinished(bool value) { finished = value; }
  23:src/../h/TCB.hpp **** 
  24:src/../h/TCB.hpp ****     uint64 getTimeSlice() const { return timeSlice; }
  25:src/../h/TCB.hpp **** 
  26:src/../h/TCB.hpp ****     Body getBody() { return this->body;}
 393              		.loc 3 26 22 is_stmt 1
 394              	.LBE13:
 395              	.LBE12:
 396              	.LBB14:
 397              	.LBB15:
  27:src/../h/TCB.hpp ****     void* getArg() {return this->arg;}
 398              		.loc 3 27 21
 399              	.LBE15:
 400              	.LBE14:
  31:src/syscall_cpp.cpp ****     return a;
 401              		.loc 2 31 26 is_stmt 0
 402 014c 03B68700 		ld	a2,8(a5)
 403 0150 83B50700 		ld	a1,0(a5)
 404 0154 13058500 		addi	a0,a0,8
 405              	.LVL23:
 406 0158 97000000 		call	_Z13thread_createPP3TCBPFvPvES2_@plt
 406      E7800000 
 407              	.LVL24:
  32:src/syscall_cpp.cpp **** }
 408              		.loc 2 32 5 is_stmt 1
  33:src/syscall_cpp.cpp **** void Thread::dispatch (){
 409              		.loc 2 33 1 is_stmt 0
 410 0160 83308100 		ld	ra,8(sp)
 411              		.cfi_restore 1
 412 0164 03340100 		ld	s0,0(sp)
 413              		.cfi_restore 8
 414              		.cfi_def_cfa 2, 16
 415 0168 13010101 		addi	sp,sp,16
 416              		.cfi_def_cfa_offset 0
 417 016c 67800000 		jr	ra
 418              		.cfi_endproc
 419              	.LFE37:
 421              		.align	2
 422              		.globl	_ZN6Thread8dispatchEv
 424              	_ZN6Thread8dispatchEv:
 425              	.LFB38:
GAS LISTING /tmp/ccrN5AO7.s 			page 11


  34:src/syscall_cpp.cpp ****     thread_dispatch();
 426              		.loc 2 34 25 is_stmt 1
 427              		.cfi_startproc
 428 0170 130101FF 		addi	sp,sp,-16
 429              		.cfi_def_cfa_offset 16
 430 0174 23341100 		sd	ra,8(sp)
 431 0178 23308100 		sd	s0,0(sp)
 432              		.cfi_offset 1, -8
 433              		.cfi_offset 8, -16
 434 017c 13040101 		addi	s0,sp,16
 435              		.cfi_def_cfa 8, 0
  35:src/syscall_cpp.cpp **** }
 436              		.loc 2 35 5
  35:src/syscall_cpp.cpp **** }
 437              		.loc 2 35 20 is_stmt 0
 438 0180 97000000 		call	_Z15thread_dispatchv@plt
 438      E7800000 
 439              	.LVL25:
  36:src/syscall_cpp.cpp **** 
 440              		.loc 2 36 1
 441 0188 83308100 		ld	ra,8(sp)
 442              		.cfi_restore 1
 443 018c 03340100 		ld	s0,0(sp)
 444              		.cfi_restore 8
 445              		.cfi_def_cfa 2, 16
 446 0190 13010101 		addi	sp,sp,16
 447              		.cfi_def_cfa_offset 0
 448 0194 67800000 		jr	ra
 449              		.cfi_endproc
 450              	.LFE38:
 452              		.align	2
 453              		.globl	_ZN6ThreadC2Ev
 455              	_ZN6ThreadC2Ev:
 456              	.LFB40:
  38:src/syscall_cpp.cpp **** 
 457              		.loc 2 38 1 is_stmt 1
 458              		.cfi_startproc
 459              	.LVL26:
 460 0198 130101FF 		addi	sp,sp,-16
 461              		.cfi_def_cfa_offset 16
 462 019c 23348100 		sd	s0,8(sp)
 463              		.cfi_offset 8, -8
 464 01a0 13040101 		addi	s0,sp,16
 465              		.cfi_def_cfa 8, 0
 466              	.LBB16:
  38:src/syscall_cpp.cpp **** 
 467              		.loc 2 38 16 is_stmt 0
 468 01a4 97070000 		lla	a5,_ZTV6Thread+16
 468      93870700 
 469 01ac 2330F500 		sd	a5,0(a0)
 470              	.LBE16:
  40:src/syscall_cpp.cpp **** 
 471              		.loc 2 40 1
 472 01b0 03348100 		ld	s0,8(sp)
 473              		.cfi_restore 8
 474              		.cfi_def_cfa 2, 16
 475 01b4 13010101 		addi	sp,sp,16
GAS LISTING /tmp/ccrN5AO7.s 			page 12


 476              		.cfi_def_cfa_offset 0
 477 01b8 67800000 		jr	ra
 478              		.cfi_endproc
 479              	.LFE40:
 481              		.globl	_ZN6ThreadC1Ev
 482              		.set	_ZN6ThreadC1Ev,_ZN6ThreadC2Ev
 483              		.align	2
 484              		.globl	_ZN6Thread5sleepEm
 486              	_ZN6Thread5sleepEm:
 487              	.LFB47:
  50:src/syscall_cpp.cpp ****     return 0;
 488              		.loc 2 50 27 is_stmt 1
 489              		.cfi_startproc
 490 01bc 130101FF 		addi	sp,sp,-16
 491              		.cfi_def_cfa_offset 16
 492 01c0 23348100 		sd	s0,8(sp)
 493              		.cfi_offset 8, -8
 494 01c4 13040101 		addi	s0,sp,16
 495              		.cfi_def_cfa 8, 0
  51:src/syscall_cpp.cpp **** }
 496              		.loc 2 51 5
  52:src/syscall_cpp.cpp **** 
 497              		.loc 2 52 1 is_stmt 0
 498 01c8 13050000 		li	a0,0
 499 01cc 03348100 		ld	s0,8(sp)
 500              		.cfi_restore 8
 501              		.cfi_def_cfa 2, 16
 502 01d0 13010101 		addi	sp,sp,16
 503              		.cfi_def_cfa_offset 0
 504 01d4 67800000 		jr	ra
 505              		.cfi_endproc
 506              	.LFE47:
 508              		.align	2
 509              		.globl	_ZN9Semaphore4waitEv
 511              	_ZN9Semaphore4waitEv:
 512              	.LFB52:
  57:src/syscall_cpp.cpp **** 
  58:src/syscall_cpp.cpp **** int Semaphore::wait() {
 513              		.loc 2 58 23 is_stmt 1
 514              		.cfi_startproc
 515              	.LVL27:
 516 01d8 130101FF 		addi	sp,sp,-16
 517              		.cfi_def_cfa_offset 16
 518 01dc 23341100 		sd	ra,8(sp)
 519 01e0 23308100 		sd	s0,0(sp)
 520              		.cfi_offset 1, -8
 521              		.cfi_offset 8, -16
 522 01e4 13040101 		addi	s0,sp,16
 523              		.cfi_def_cfa 8, 0
  59:src/syscall_cpp.cpp ****     return sem_wait(myHandle);
 524              		.loc 2 59 5
 525              		.loc 2 59 20 is_stmt 0
 526 01e8 03358500 		ld	a0,8(a0)
 527              	.LVL28:
 528 01ec 97000000 		call	_Z8sem_waitP10Ksemaphore@plt
 528      E7800000 
 529              	.LVL29:
GAS LISTING /tmp/ccrN5AO7.s 			page 13


  60:src/syscall_cpp.cpp **** }
 530              		.loc 2 60 1
 531 01f4 83308100 		ld	ra,8(sp)
 532              		.cfi_restore 1
 533 01f8 03340100 		ld	s0,0(sp)
 534              		.cfi_restore 8
 535              		.cfi_def_cfa 2, 16
 536 01fc 13010101 		addi	sp,sp,16
 537              		.cfi_def_cfa_offset 0
 538 0200 67800000 		jr	ra
 539              		.cfi_endproc
 540              	.LFE52:
 542              		.align	2
 543              		.globl	_ZN9Semaphore6signalEv
 545              	_ZN9Semaphore6signalEv:
 546              	.LFB53:
  61:src/syscall_cpp.cpp **** 
  62:src/syscall_cpp.cpp **** int Semaphore::signal() {
 547              		.loc 2 62 25 is_stmt 1
 548              		.cfi_startproc
 549              	.LVL30:
 550 0204 130101FF 		addi	sp,sp,-16
 551              		.cfi_def_cfa_offset 16
 552 0208 23341100 		sd	ra,8(sp)
 553 020c 23308100 		sd	s0,0(sp)
 554              		.cfi_offset 1, -8
 555              		.cfi_offset 8, -16
 556 0210 13040101 		addi	s0,sp,16
 557              		.cfi_def_cfa 8, 0
  63:src/syscall_cpp.cpp ****     return sem_signal(myHandle);
 558              		.loc 2 63 5
 559              		.loc 2 63 22 is_stmt 0
 560 0214 03358500 		ld	a0,8(a0)
 561              	.LVL31:
 562 0218 97000000 		call	_Z10sem_signalP10Ksemaphore@plt
 562      E7800000 
 563              	.LVL32:
  64:src/syscall_cpp.cpp **** }
 564              		.loc 2 64 1
 565 0220 83308100 		ld	ra,8(sp)
 566              		.cfi_restore 1
 567 0224 03340100 		ld	s0,0(sp)
 568              		.cfi_restore 8
 569              		.cfi_def_cfa 2, 16
 570 0228 13010101 		addi	sp,sp,16
 571              		.cfi_def_cfa_offset 0
 572 022c 67800000 		jr	ra
 573              		.cfi_endproc
 574              	.LFE53:
 576              		.align	2
 577              		.globl	_ZN14PeriodicThreadC2Em
 579              	_ZN14PeriodicThreadC2Em:
 580              	.LFB55:
  65:src/syscall_cpp.cpp **** 
  66:src/syscall_cpp.cpp **** PeriodicThread::PeriodicThread(time_t period) {
 581              		.loc 2 66 1 is_stmt 1
 582              		.cfi_startproc
GAS LISTING /tmp/ccrN5AO7.s 			page 14


 583              	.LVL33:
 584 0230 130101FE 		addi	sp,sp,-32
 585              		.cfi_def_cfa_offset 32
 586 0234 233C1100 		sd	ra,24(sp)
 587 0238 23388100 		sd	s0,16(sp)
 588 023c 23349100 		sd	s1,8(sp)
 589              		.cfi_offset 1, -8
 590              		.cfi_offset 8, -16
 591              		.cfi_offset 9, -24
 592 0240 13040102 		addi	s0,sp,32
 593              		.cfi_def_cfa 8, 0
 594 0244 93040500 		mv	s1,a0
 595              	.LBB17:
 596              		.loc 2 66 45 is_stmt 0
 597 0248 97000000 		call	_ZN6ThreadC2Ev
 597      E7800000 
 598              	.LVL34:
 599 0250 97070000 		lla	a5,_ZTV14PeriodicThread+16
 599      93870700 
 600 0258 23B0F400 		sd	a5,0(s1)
 601              	.LBE17:
  67:src/syscall_cpp.cpp **** 
  68:src/syscall_cpp.cpp **** }
 602              		.loc 2 68 1
 603 025c 83308101 		ld	ra,24(sp)
 604              		.cfi_restore 1
 605 0260 03340101 		ld	s0,16(sp)
 606              		.cfi_restore 8
 607              		.cfi_def_cfa 2, 32
 608 0264 83348100 		ld	s1,8(sp)
 609              		.cfi_restore 9
 610              	.LVL35:
 611 0268 13010102 		addi	sp,sp,32
 612              		.cfi_def_cfa_offset 0
 613 026c 67800000 		jr	ra
 614              		.cfi_endproc
 615              	.LFE55:
 617              		.globl	_ZN14PeriodicThreadC1Em
 618              		.set	_ZN14PeriodicThreadC1Em,_ZN14PeriodicThreadC2Em
 619              		.align	2
 620              		.globl	_ZN7Console4getcEv
 622              	_ZN7Console4getcEv:
 623              	.LFB57:
  69:src/syscall_cpp.cpp **** 
  70:src/syscall_cpp.cpp **** char Console::getc() {
 624              		.loc 2 70 22 is_stmt 1
 625              		.cfi_startproc
 626 0270 130101FF 		addi	sp,sp,-16
 627              		.cfi_def_cfa_offset 16
 628 0274 23341100 		sd	ra,8(sp)
 629 0278 23308100 		sd	s0,0(sp)
 630              		.cfi_offset 1, -8
 631              		.cfi_offset 8, -16
 632 027c 13040101 		addi	s0,sp,16
 633              		.cfi_def_cfa 8, 0
  71:src/syscall_cpp.cpp ****     return __getc();
 634              		.loc 2 71 5
GAS LISTING /tmp/ccrN5AO7.s 			page 15


 635              		.loc 2 71 18 is_stmt 0
 636 0280 97000000 		call	__getc@plt
 636      E7800000 
 637              	.LVL36:
  72:src/syscall_cpp.cpp **** }
 638              		.loc 2 72 1
 639 0288 83308100 		ld	ra,8(sp)
 640              		.cfi_restore 1
 641 028c 03340100 		ld	s0,0(sp)
 642              		.cfi_restore 8
 643              		.cfi_def_cfa 2, 16
 644 0290 13010101 		addi	sp,sp,16
 645              		.cfi_def_cfa_offset 0
 646 0294 67800000 		jr	ra
 647              		.cfi_endproc
 648              	.LFE57:
 650              		.align	2
 651              		.globl	_ZN7Console4putcEc
 653              	_ZN7Console4putcEc:
 654              	.LFB58:
  73:src/syscall_cpp.cpp **** 
  74:src/syscall_cpp.cpp **** void Console::putc(char c) {
 655              		.loc 2 74 28 is_stmt 1
 656              		.cfi_startproc
 657              	.LVL37:
 658 0298 130101FF 		addi	sp,sp,-16
 659              		.cfi_def_cfa_offset 16
 660 029c 23341100 		sd	ra,8(sp)
 661 02a0 23308100 		sd	s0,0(sp)
 662              		.cfi_offset 1, -8
 663              		.cfi_offset 8, -16
 664 02a4 13040101 		addi	s0,sp,16
 665              		.cfi_def_cfa 8, 0
  75:src/syscall_cpp.cpp ****     __putc(c);
 666              		.loc 2 75 5
 667              		.loc 2 75 11 is_stmt 0
 668 02a8 97000000 		call	__putc@plt
 668      E7800000 
 669              	.LVL38:
  76:src/syscall_cpp.cpp **** }
 670              		.loc 2 76 1
 671 02b0 83308100 		ld	ra,8(sp)
 672              		.cfi_restore 1
 673 02b4 03340100 		ld	s0,0(sp)
 674              		.cfi_restore 8
 675              		.cfi_def_cfa 2, 16
 676 02b8 13010101 		addi	sp,sp,16
 677              		.cfi_def_cfa_offset 0
 678 02bc 67800000 		jr	ra
 679              		.cfi_endproc
 680              	.LFE58:
 682              		.weak	_ZTV14PeriodicThread
 683              		.section	.data.rel.ro.local._ZTV14PeriodicThread,"awG",@progbits,_ZTV14PeriodicThread,comdat
 684              		.align	3
 687              	_ZTV14PeriodicThread:
 688 0000 00000000 		.dword	0
 688      00000000 
GAS LISTING /tmp/ccrN5AO7.s 			page 16


 689 0008 00000000 		.dword	0
 689      00000000 
 690 0010 00000000 		.dword	_ZN14PeriodicThreadD1Ev
 690      00000000 
 691 0018 00000000 		.dword	_ZN14PeriodicThreadD0Ev
 691      00000000 
 692 0020 00000000 		.dword	_ZN6Thread3runEv
 692      00000000 
 693 0028 00000000 		.dword	_ZN14PeriodicThread18periodicActivationEv
 693      00000000 
 694              		.weak	_ZTV6Thread
 695              		.section	.data.rel.ro.local._ZTV6Thread,"awG",@progbits,_ZTV6Thread,comdat
 696              		.align	3
 699              	_ZTV6Thread:
 700 0000 00000000 		.dword	0
 700      00000000 
 701 0008 00000000 		.dword	0
 701      00000000 
 702 0010 00000000 		.dword	_ZN6ThreadD1Ev
 702      00000000 
 703 0018 00000000 		.dword	_ZN6ThreadD0Ev
 703      00000000 
 704 0020 00000000 		.dword	_ZN6Thread3runEv
 704      00000000 
 705              		.weak	_ZTV9Semaphore
 706              		.section	.data.rel.ro.local._ZTV9Semaphore,"awG",@progbits,_ZTV9Semaphore,comdat
 707              		.align	3
 710              	_ZTV9Semaphore:
 711 0000 00000000 		.dword	0
 711      00000000 
 712 0008 00000000 		.dword	0
 712      00000000 
 713 0010 00000000 		.dword	_ZN9SemaphoreD1Ev
 713      00000000 
 714 0018 00000000 		.dword	_ZN9SemaphoreD0Ev
 714      00000000 
 715              		.text
 716              	.Letext0:
 717              		.file 4 "src/../h/../lib/hw.h"
 718              		.file 5 "src/../h/list.hpp"
 719              		.file 6 "src/../h/Ksemaphore.hpp"
 720              		.file 7 "src/../h/../lib/console.h"
 721              		.file 8 "src/../h/syscall_c.h"
 722              		.file 9 "src/../h/../lib/mem.h"
GAS LISTING /tmp/ccrN5AO7.s 			page 17


DEFINED SYMBOLS
                            *ABS*:0000000000000000 syscall_cpp.cpp
     /tmp/ccrN5AO7.s:10     .text._ZN14PeriodicThread18periodicActivationEv:0000000000000000 _ZN14PeriodicThread18periodicActivationEv
     /tmp/ccrN5AO7.s:14     .text._ZN14PeriodicThread18periodicActivationEv:0000000000000000 .L0 
     /tmp/ccrN5AO7.s:16     .text._ZN14PeriodicThread18periodicActivationEv:0000000000000000 .L0 
     /tmp/ccrN5AO7.s:17     .text._ZN14PeriodicThread18periodicActivationEv:0000000000000004 .L0 
     /tmp/ccrN5AO7.s:19     .text._ZN14PeriodicThread18periodicActivationEv:0000000000000008 .L0 
     /tmp/ccrN5AO7.s:21     .text._ZN14PeriodicThread18periodicActivationEv:000000000000000c .L0 
     /tmp/ccrN5AO7.s:23     .text._ZN14PeriodicThread18periodicActivationEv:000000000000000c .L0 
     /tmp/ccrN5AO7.s:24     .text._ZN14PeriodicThread18periodicActivationEv:0000000000000010 .L0 
     /tmp/ccrN5AO7.s:25     .text._ZN14PeriodicThread18periodicActivationEv:0000000000000010 .L0 
     /tmp/ccrN5AO7.s:27     .text._ZN14PeriodicThread18periodicActivationEv:0000000000000014 .L0 
     /tmp/ccrN5AO7.s:29     .text._ZN14PeriodicThread18periodicActivationEv:0000000000000018 .L0 
     /tmp/ccrN5AO7.s:36     .text:0000000000000000 _ZN6ThreadD2Ev
     /tmp/ccrN5AO7.s:40     .text:0000000000000000 .L0 
     /tmp/ccrN5AO7.s:42     .text:0000000000000000 .L0 
     /tmp/ccrN5AO7.s:43     .text:0000000000000004 .L0 
     /tmp/ccrN5AO7.s:45     .text:0000000000000008 .L0 
     /tmp/ccrN5AO7.s:47     .text:000000000000000c .L0 
     /tmp/ccrN5AO7.s:49     .text:000000000000000c .L0 
     /tmp/ccrN5AO7.s:50     .text:0000000000000010 .L0 
     /tmp/ccrN5AO7.s:51     .text:0000000000000010 .L0 
     /tmp/ccrN5AO7.s:53     .text:0000000000000014 .L0 
     /tmp/ccrN5AO7.s:55     .text:0000000000000018 .L0 
     /tmp/ccrN5AO7.s:36     .text:0000000000000000 _ZN6ThreadD1Ev
     /tmp/ccrN5AO7.s:63     .text:0000000000000018 _ZN6Thread3runEv
     /tmp/ccrN5AO7.s:66     .text:0000000000000018 .L0 
     /tmp/ccrN5AO7.s:68     .text:0000000000000018 .L0 
     /tmp/ccrN5AO7.s:69     .text:000000000000001c .L0 
     /tmp/ccrN5AO7.s:71     .text:0000000000000020 .L0 
     /tmp/ccrN5AO7.s:73     .text:0000000000000024 .L0 
     /tmp/ccrN5AO7.s:75     .text:0000000000000024 .L0 
     /tmp/ccrN5AO7.s:76     .text:0000000000000028 .L0 
     /tmp/ccrN5AO7.s:77     .text:0000000000000028 .L0 
     /tmp/ccrN5AO7.s:79     .text:000000000000002c .L0 
     /tmp/ccrN5AO7.s:81     .text:0000000000000030 .L0 
     /tmp/ccrN5AO7.s:87     .text:0000000000000030 _ZN9SemaphoreD2Ev
     /tmp/ccrN5AO7.s:90     .text:0000000000000030 .L0 
     /tmp/ccrN5AO7.s:92     .text:0000000000000030 .L0 
     /tmp/ccrN5AO7.s:93     .text:0000000000000034 .L0 
     /tmp/ccrN5AO7.s:95     .text:0000000000000038 .L0 
     /tmp/ccrN5AO7.s:97     .text:000000000000003c .L0 
     /tmp/ccrN5AO7.s:99     .text:000000000000003c .L0 
     /tmp/ccrN5AO7.s:100    .text:0000000000000040 .L0 
     /tmp/ccrN5AO7.s:101    .text:0000000000000040 .L0 
     /tmp/ccrN5AO7.s:103    .text:0000000000000044 .L0 
     /tmp/ccrN5AO7.s:105    .text:0000000000000048 .L0 
     /tmp/ccrN5AO7.s:87     .text:0000000000000030 _ZN9SemaphoreD1Ev
     /tmp/ccrN5AO7.s:114    .text._ZN14PeriodicThreadD2Ev:0000000000000000 _ZN14PeriodicThreadD2Ev
     /tmp/ccrN5AO7.s:117    .text._ZN14PeriodicThreadD2Ev:0000000000000000 .L0 
     /tmp/ccrN5AO7.s:119    .text._ZN14PeriodicThreadD2Ev:0000000000000000 .L0 
     /tmp/ccrN5AO7.s:120    .text._ZN14PeriodicThreadD2Ev:0000000000000004 .L0 
     /tmp/ccrN5AO7.s:122    .text._ZN14PeriodicThreadD2Ev:0000000000000008 .L0 
     /tmp/ccrN5AO7.s:124    .text._ZN14PeriodicThreadD2Ev:000000000000000c .L0 
     /tmp/ccrN5AO7.s:687    .data.rel.ro.local._ZTV14PeriodicThread:0000000000000000 _ZTV14PeriodicThread
     /tmp/ccrN5AO7.s:127    .text._ZN14PeriodicThreadD2Ev:000000000000000c .L0 
     /tmp/ccrN5AO7.s:131    .text._ZN14PeriodicThreadD2Ev:000000000000001c .L0 
GAS LISTING /tmp/ccrN5AO7.s 			page 18


     /tmp/ccrN5AO7.s:132    .text._ZN14PeriodicThreadD2Ev:000000000000001c .L0 
     /tmp/ccrN5AO7.s:134    .text._ZN14PeriodicThreadD2Ev:0000000000000020 .L0 
     /tmp/ccrN5AO7.s:136    .text._ZN14PeriodicThreadD2Ev:0000000000000024 .L0 
     /tmp/ccrN5AO7.s:114    .text._ZN14PeriodicThreadD2Ev:0000000000000000 _ZN14PeriodicThreadD1Ev
     /tmp/ccrN5AO7.s:145    .text:0000000000000048 _Znwm
     /tmp/ccrN5AO7.s:148    .text:0000000000000048 .L0 
     /tmp/ccrN5AO7.s:150    .text:0000000000000048 .L0 
     /tmp/ccrN5AO7.s:151    .text:000000000000004c .L0 
     /tmp/ccrN5AO7.s:154    .text:0000000000000054 .L0 
     /tmp/ccrN5AO7.s:155    .text:0000000000000054 .L0 
     /tmp/ccrN5AO7.s:157    .text:0000000000000058 .L0 
     /tmp/ccrN5AO7.s:159    .text:0000000000000058 .L0 
     /tmp/ccrN5AO7.s:160    .text:0000000000000058 .L0 
     /tmp/ccrN5AO7.s:163    .text:0000000000000060 .L0 
     /tmp/ccrN5AO7.s:164    .text:0000000000000064 .L0 
     /tmp/ccrN5AO7.s:166    .text:0000000000000068 .L0 
     /tmp/ccrN5AO7.s:167    .text:0000000000000068 .L0 
     /tmp/ccrN5AO7.s:169    .text:000000000000006c .L0 
     /tmp/ccrN5AO7.s:171    .text:0000000000000070 .L0 
     /tmp/ccrN5AO7.s:177    .text:0000000000000070 _Znam
     /tmp/ccrN5AO7.s:180    .text:0000000000000070 .L0 
     /tmp/ccrN5AO7.s:182    .text:0000000000000070 .L0 
     /tmp/ccrN5AO7.s:183    .text:0000000000000074 .L0 
     /tmp/ccrN5AO7.s:186    .text:000000000000007c .L0 
     /tmp/ccrN5AO7.s:187    .text:000000000000007c .L0 
     /tmp/ccrN5AO7.s:189    .text:0000000000000080 .L0 
     /tmp/ccrN5AO7.s:191    .text:0000000000000080 .L0 
     /tmp/ccrN5AO7.s:192    .text:0000000000000080 .L0 
     /tmp/ccrN5AO7.s:195    .text:0000000000000088 .L0 
     /tmp/ccrN5AO7.s:196    .text:000000000000008c .L0 
     /tmp/ccrN5AO7.s:198    .text:0000000000000090 .L0 
     /tmp/ccrN5AO7.s:199    .text:0000000000000090 .L0 
     /tmp/ccrN5AO7.s:201    .text:0000000000000094 .L0 
     /tmp/ccrN5AO7.s:203    .text:0000000000000098 .L0 
     /tmp/ccrN5AO7.s:209    .text:0000000000000098 _ZdlPv
     /tmp/ccrN5AO7.s:212    .text:0000000000000098 .L0 
     /tmp/ccrN5AO7.s:214    .text:0000000000000098 .L0 
     /tmp/ccrN5AO7.s:215    .text:000000000000009c .L0 
     /tmp/ccrN5AO7.s:218    .text:00000000000000a4 .L0 
     /tmp/ccrN5AO7.s:219    .text:00000000000000a4 .L0 
     /tmp/ccrN5AO7.s:221    .text:00000000000000a8 .L0 
     /tmp/ccrN5AO7.s:223    .text:00000000000000a8 .L0 
     /tmp/ccrN5AO7.s:224    .text:00000000000000a8 .L0 
     /tmp/ccrN5AO7.s:227    .text:00000000000000b0 .L0 
     /tmp/ccrN5AO7.s:228    .text:00000000000000b4 .L0 
     /tmp/ccrN5AO7.s:230    .text:00000000000000b8 .L0 
     /tmp/ccrN5AO7.s:231    .text:00000000000000b8 .L0 
     /tmp/ccrN5AO7.s:233    .text:00000000000000bc .L0 
     /tmp/ccrN5AO7.s:235    .text:00000000000000c0 .L0 
     /tmp/ccrN5AO7.s:241    .text:00000000000000c0 _ZN6ThreadD0Ev
     /tmp/ccrN5AO7.s:244    .text:00000000000000c0 .L0 
     /tmp/ccrN5AO7.s:246    .text:00000000000000c0 .L0 
     /tmp/ccrN5AO7.s:247    .text:00000000000000c4 .L0 
     /tmp/ccrN5AO7.s:250    .text:00000000000000cc .L0 
     /tmp/ccrN5AO7.s:251    .text:00000000000000cc .L0 
     /tmp/ccrN5AO7.s:253    .text:00000000000000d0 .L0 
     /tmp/ccrN5AO7.s:255    .text:00000000000000d0 .L0 
GAS LISTING /tmp/ccrN5AO7.s 			page 19


     /tmp/ccrN5AO7.s:258    .text:00000000000000dc .L0 
     /tmp/ccrN5AO7.s:260    .text:00000000000000e0 .L0 
     /tmp/ccrN5AO7.s:261    .text:00000000000000e0 .L0 
     /tmp/ccrN5AO7.s:263    .text:00000000000000e4 .L0 
     /tmp/ccrN5AO7.s:265    .text:00000000000000e8 .L0 
     /tmp/ccrN5AO7.s:271    .text:00000000000000e8 _ZN9SemaphoreD0Ev
     /tmp/ccrN5AO7.s:274    .text:00000000000000e8 .L0 
     /tmp/ccrN5AO7.s:276    .text:00000000000000e8 .L0 
     /tmp/ccrN5AO7.s:277    .text:00000000000000ec .L0 
     /tmp/ccrN5AO7.s:280    .text:00000000000000f4 .L0 
     /tmp/ccrN5AO7.s:281    .text:00000000000000f4 .L0 
     /tmp/ccrN5AO7.s:283    .text:00000000000000f8 .L0 
     /tmp/ccrN5AO7.s:285    .text:00000000000000f8 .L0 
     /tmp/ccrN5AO7.s:288    .text:0000000000000104 .L0 
     /tmp/ccrN5AO7.s:290    .text:0000000000000108 .L0 
     /tmp/ccrN5AO7.s:291    .text:0000000000000108 .L0 
     /tmp/ccrN5AO7.s:293    .text:000000000000010c .L0 
     /tmp/ccrN5AO7.s:295    .text:0000000000000110 .L0 
     /tmp/ccrN5AO7.s:302    .text._ZN14PeriodicThreadD0Ev:0000000000000000 _ZN14PeriodicThreadD0Ev
     /tmp/ccrN5AO7.s:305    .text._ZN14PeriodicThreadD0Ev:0000000000000000 .L0 
     /tmp/ccrN5AO7.s:307    .text._ZN14PeriodicThreadD0Ev:0000000000000000 .L0 
     /tmp/ccrN5AO7.s:308    .text._ZN14PeriodicThreadD0Ev:0000000000000004 .L0 
     /tmp/ccrN5AO7.s:311    .text._ZN14PeriodicThreadD0Ev:000000000000000c .L0 
     /tmp/ccrN5AO7.s:312    .text._ZN14PeriodicThreadD0Ev:000000000000000c .L0 
     /tmp/ccrN5AO7.s:314    .text._ZN14PeriodicThreadD0Ev:0000000000000010 .L0 
     /tmp/ccrN5AO7.s:319    .text._ZN14PeriodicThreadD0Ev:0000000000000010 .L0 
     /tmp/ccrN5AO7.s:327    .text._ZN14PeriodicThreadD0Ev:0000000000000028 .L0 
     /tmp/ccrN5AO7.s:329    .text._ZN14PeriodicThreadD0Ev:000000000000002c .L0 
     /tmp/ccrN5AO7.s:330    .text._ZN14PeriodicThreadD0Ev:000000000000002c .L0 
     /tmp/ccrN5AO7.s:332    .text._ZN14PeriodicThreadD0Ev:0000000000000030 .L0 
     /tmp/ccrN5AO7.s:334    .text._ZN14PeriodicThreadD0Ev:0000000000000034 .L0 
     /tmp/ccrN5AO7.s:341    .text:0000000000000110 _ZdaPv
     /tmp/ccrN5AO7.s:344    .text:0000000000000110 .L0 
     /tmp/ccrN5AO7.s:346    .text:0000000000000110 .L0 
     /tmp/ccrN5AO7.s:347    .text:0000000000000114 .L0 
     /tmp/ccrN5AO7.s:350    .text:000000000000011c .L0 
     /tmp/ccrN5AO7.s:351    .text:000000000000011c .L0 
     /tmp/ccrN5AO7.s:353    .text:0000000000000120 .L0 
     /tmp/ccrN5AO7.s:355    .text:0000000000000120 .L0 
     /tmp/ccrN5AO7.s:356    .text:0000000000000120 .L0 
     /tmp/ccrN5AO7.s:359    .text:0000000000000128 .L0 
     /tmp/ccrN5AO7.s:360    .text:000000000000012c .L0 
     /tmp/ccrN5AO7.s:362    .text:0000000000000130 .L0 
     /tmp/ccrN5AO7.s:363    .text:0000000000000130 .L0 
     /tmp/ccrN5AO7.s:365    .text:0000000000000134 .L0 
     /tmp/ccrN5AO7.s:367    .text:0000000000000138 .L0 
     /tmp/ccrN5AO7.s:373    .text:0000000000000138 _ZN6Thread5startEv
     /tmp/ccrN5AO7.s:376    .text:0000000000000138 .L0 
     /tmp/ccrN5AO7.s:378    .text:0000000000000138 .L0 
     /tmp/ccrN5AO7.s:379    .text:000000000000013c .L0 
     /tmp/ccrN5AO7.s:382    .text:0000000000000144 .L0 
     /tmp/ccrN5AO7.s:383    .text:0000000000000144 .L0 
     /tmp/ccrN5AO7.s:385    .text:0000000000000148 .L0 
     /tmp/ccrN5AO7.s:387    .text:0000000000000148 .L0 
     /tmp/ccrN5AO7.s:388    .text:0000000000000148 .L0 
     /tmp/ccrN5AO7.s:398    .text:000000000000014c .L0 
     /tmp/ccrN5AO7.s:401    .text:000000000000014c .L0 
GAS LISTING /tmp/ccrN5AO7.s 			page 20


     /tmp/ccrN5AO7.s:402    .text:000000000000014c .L0 
     /tmp/ccrN5AO7.s:409    .text:0000000000000160 .L0 
     /tmp/ccrN5AO7.s:410    .text:0000000000000160 .L0 
     /tmp/ccrN5AO7.s:411    .text:0000000000000164 .L0 
     /tmp/ccrN5AO7.s:413    .text:0000000000000168 .L0 
     /tmp/ccrN5AO7.s:414    .text:0000000000000168 .L0 
     /tmp/ccrN5AO7.s:416    .text:000000000000016c .L0 
     /tmp/ccrN5AO7.s:418    .text:0000000000000170 .L0 
     /tmp/ccrN5AO7.s:424    .text:0000000000000170 _ZN6Thread8dispatchEv
     /tmp/ccrN5AO7.s:427    .text:0000000000000170 .L0 
     /tmp/ccrN5AO7.s:428    .text:0000000000000170 .L0 
     /tmp/ccrN5AO7.s:429    .text:0000000000000174 .L0 
     /tmp/ccrN5AO7.s:432    .text:000000000000017c .L0 
     /tmp/ccrN5AO7.s:433    .text:000000000000017c .L0 
     /tmp/ccrN5AO7.s:435    .text:0000000000000180 .L0 
     /tmp/ccrN5AO7.s:437    .text:0000000000000180 .L0 
     /tmp/ccrN5AO7.s:438    .text:0000000000000180 .L0 
     /tmp/ccrN5AO7.s:441    .text:0000000000000188 .L0 
     /tmp/ccrN5AO7.s:442    .text:000000000000018c .L0 
     /tmp/ccrN5AO7.s:444    .text:0000000000000190 .L0 
     /tmp/ccrN5AO7.s:445    .text:0000000000000190 .L0 
     /tmp/ccrN5AO7.s:447    .text:0000000000000194 .L0 
     /tmp/ccrN5AO7.s:449    .text:0000000000000198 .L0 
     /tmp/ccrN5AO7.s:455    .text:0000000000000198 _ZN6ThreadC2Ev
     /tmp/ccrN5AO7.s:458    .text:0000000000000198 .L0 
     /tmp/ccrN5AO7.s:460    .text:0000000000000198 .L0 
     /tmp/ccrN5AO7.s:461    .text:000000000000019c .L0 
     /tmp/ccrN5AO7.s:463    .text:00000000000001a0 .L0 
     /tmp/ccrN5AO7.s:465    .text:00000000000001a4 .L0 
     /tmp/ccrN5AO7.s:699    .data.rel.ro.local._ZTV6Thread:0000000000000000 _ZTV6Thread
     /tmp/ccrN5AO7.s:468    .text:00000000000001a4 .L0 
     /tmp/ccrN5AO7.s:472    .text:00000000000001b0 .L0 
     /tmp/ccrN5AO7.s:473    .text:00000000000001b4 .L0 
     /tmp/ccrN5AO7.s:474    .text:00000000000001b4 .L0 
     /tmp/ccrN5AO7.s:476    .text:00000000000001b8 .L0 
     /tmp/ccrN5AO7.s:478    .text:00000000000001bc .L0 
     /tmp/ccrN5AO7.s:455    .text:0000000000000198 _ZN6ThreadC1Ev
     /tmp/ccrN5AO7.s:486    .text:00000000000001bc _ZN6Thread5sleepEm
     /tmp/ccrN5AO7.s:489    .text:00000000000001bc .L0 
     /tmp/ccrN5AO7.s:490    .text:00000000000001bc .L0 
     /tmp/ccrN5AO7.s:491    .text:00000000000001c0 .L0 
     /tmp/ccrN5AO7.s:493    .text:00000000000001c4 .L0 
     /tmp/ccrN5AO7.s:495    .text:00000000000001c8 .L0 
     /tmp/ccrN5AO7.s:497    .text:00000000000001c8 .L0 
     /tmp/ccrN5AO7.s:498    .text:00000000000001c8 .L0 
     /tmp/ccrN5AO7.s:500    .text:00000000000001d0 .L0 
     /tmp/ccrN5AO7.s:501    .text:00000000000001d0 .L0 
     /tmp/ccrN5AO7.s:503    .text:00000000000001d4 .L0 
     /tmp/ccrN5AO7.s:505    .text:00000000000001d8 .L0 
     /tmp/ccrN5AO7.s:511    .text:00000000000001d8 _ZN9Semaphore4waitEv
     /tmp/ccrN5AO7.s:514    .text:00000000000001d8 .L0 
     /tmp/ccrN5AO7.s:516    .text:00000000000001d8 .L0 
     /tmp/ccrN5AO7.s:517    .text:00000000000001dc .L0 
     /tmp/ccrN5AO7.s:520    .text:00000000000001e4 .L0 
     /tmp/ccrN5AO7.s:521    .text:00000000000001e4 .L0 
     /tmp/ccrN5AO7.s:523    .text:00000000000001e8 .L0 
     /tmp/ccrN5AO7.s:525    .text:00000000000001e8 .L0 
GAS LISTING /tmp/ccrN5AO7.s 			page 21


     /tmp/ccrN5AO7.s:526    .text:00000000000001e8 .L0 
     /tmp/ccrN5AO7.s:531    .text:00000000000001f4 .L0 
     /tmp/ccrN5AO7.s:532    .text:00000000000001f8 .L0 
     /tmp/ccrN5AO7.s:534    .text:00000000000001fc .L0 
     /tmp/ccrN5AO7.s:535    .text:00000000000001fc .L0 
     /tmp/ccrN5AO7.s:537    .text:0000000000000200 .L0 
     /tmp/ccrN5AO7.s:539    .text:0000000000000204 .L0 
     /tmp/ccrN5AO7.s:545    .text:0000000000000204 _ZN9Semaphore6signalEv
     /tmp/ccrN5AO7.s:548    .text:0000000000000204 .L0 
     /tmp/ccrN5AO7.s:550    .text:0000000000000204 .L0 
     /tmp/ccrN5AO7.s:551    .text:0000000000000208 .L0 
     /tmp/ccrN5AO7.s:554    .text:0000000000000210 .L0 
     /tmp/ccrN5AO7.s:555    .text:0000000000000210 .L0 
     /tmp/ccrN5AO7.s:557    .text:0000000000000214 .L0 
     /tmp/ccrN5AO7.s:559    .text:0000000000000214 .L0 
     /tmp/ccrN5AO7.s:560    .text:0000000000000214 .L0 
     /tmp/ccrN5AO7.s:565    .text:0000000000000220 .L0 
     /tmp/ccrN5AO7.s:566    .text:0000000000000224 .L0 
     /tmp/ccrN5AO7.s:568    .text:0000000000000228 .L0 
     /tmp/ccrN5AO7.s:569    .text:0000000000000228 .L0 
     /tmp/ccrN5AO7.s:571    .text:000000000000022c .L0 
     /tmp/ccrN5AO7.s:573    .text:0000000000000230 .L0 
     /tmp/ccrN5AO7.s:579    .text:0000000000000230 _ZN14PeriodicThreadC2Em
     /tmp/ccrN5AO7.s:582    .text:0000000000000230 .L0 
     /tmp/ccrN5AO7.s:584    .text:0000000000000230 .L0 
     /tmp/ccrN5AO7.s:585    .text:0000000000000234 .L0 
     /tmp/ccrN5AO7.s:589    .text:0000000000000240 .L0 
     /tmp/ccrN5AO7.s:590    .text:0000000000000240 .L0 
     /tmp/ccrN5AO7.s:591    .text:0000000000000240 .L0 
     /tmp/ccrN5AO7.s:593    .text:0000000000000244 .L0 
     /tmp/ccrN5AO7.s:597    .text:0000000000000248 .L0 
     /tmp/ccrN5AO7.s:603    .text:000000000000025c .L0 
     /tmp/ccrN5AO7.s:604    .text:0000000000000260 .L0 
     /tmp/ccrN5AO7.s:606    .text:0000000000000264 .L0 
     /tmp/ccrN5AO7.s:607    .text:0000000000000264 .L0 
     /tmp/ccrN5AO7.s:609    .text:0000000000000268 .L0 
     /tmp/ccrN5AO7.s:612    .text:000000000000026c .L0 
     /tmp/ccrN5AO7.s:614    .text:0000000000000270 .L0 
     /tmp/ccrN5AO7.s:579    .text:0000000000000230 _ZN14PeriodicThreadC1Em
     /tmp/ccrN5AO7.s:622    .text:0000000000000270 _ZN7Console4getcEv
     /tmp/ccrN5AO7.s:625    .text:0000000000000270 .L0 
     /tmp/ccrN5AO7.s:626    .text:0000000000000270 .L0 
     /tmp/ccrN5AO7.s:627    .text:0000000000000274 .L0 
     /tmp/ccrN5AO7.s:630    .text:000000000000027c .L0 
     /tmp/ccrN5AO7.s:631    .text:000000000000027c .L0 
     /tmp/ccrN5AO7.s:633    .text:0000000000000280 .L0 
     /tmp/ccrN5AO7.s:635    .text:0000000000000280 .L0 
     /tmp/ccrN5AO7.s:636    .text:0000000000000280 .L0 
     /tmp/ccrN5AO7.s:639    .text:0000000000000288 .L0 
     /tmp/ccrN5AO7.s:640    .text:000000000000028c .L0 
     /tmp/ccrN5AO7.s:642    .text:0000000000000290 .L0 
     /tmp/ccrN5AO7.s:643    .text:0000000000000290 .L0 
     /tmp/ccrN5AO7.s:645    .text:0000000000000294 .L0 
     /tmp/ccrN5AO7.s:647    .text:0000000000000298 .L0 
     /tmp/ccrN5AO7.s:653    .text:0000000000000298 _ZN7Console4putcEc
     /tmp/ccrN5AO7.s:656    .text:0000000000000298 .L0 
     /tmp/ccrN5AO7.s:658    .text:0000000000000298 .L0 
GAS LISTING /tmp/ccrN5AO7.s 			page 22


     /tmp/ccrN5AO7.s:659    .text:000000000000029c .L0 
     /tmp/ccrN5AO7.s:662    .text:00000000000002a4 .L0 
     /tmp/ccrN5AO7.s:663    .text:00000000000002a4 .L0 
     /tmp/ccrN5AO7.s:665    .text:00000000000002a8 .L0 
     /tmp/ccrN5AO7.s:667    .text:00000000000002a8 .L0 
     /tmp/ccrN5AO7.s:668    .text:00000000000002a8 .L0 
     /tmp/ccrN5AO7.s:671    .text:00000000000002b0 .L0 
     /tmp/ccrN5AO7.s:672    .text:00000000000002b4 .L0 
     /tmp/ccrN5AO7.s:674    .text:00000000000002b8 .L0 
     /tmp/ccrN5AO7.s:675    .text:00000000000002b8 .L0 
     /tmp/ccrN5AO7.s:677    .text:00000000000002bc .L0 
     /tmp/ccrN5AO7.s:679    .text:00000000000002c0 .L0 
     /tmp/ccrN5AO7.s:710    .data.rel.ro.local._ZTV9Semaphore:0000000000000000 _ZTV9Semaphore
     /tmp/ccrN5AO7.s:32     .text._ZN14PeriodicThread18periodicActivationEv:0000000000000018 .L0 
     /tmp/ccrN5AO7.s:723    .text:00000000000002c0 .L0 
     /tmp/ccrN5AO7.s:141    .text._ZN14PeriodicThreadD2Ev:0000000000000024 .L0 
     /tmp/ccrN5AO7.s:337    .text._ZN14PeriodicThreadD0Ev:0000000000000034 .L0 
     /tmp/ccrN5AO7.s:468    .text:00000000000001a4 .L0 
     /tmp/ccrN5AO7.s:599    .text:0000000000000250 .L0 
     /tmp/ccrN5AO7.s:127    .text._ZN14PeriodicThreadD2Ev:000000000000000c .L0 
     /tmp/ccrN5AO7.s:319    .text._ZN14PeriodicThreadD0Ev:0000000000000010 .L0 
     /tmp/ccrN5AO7.s:2378   .debug_abbrev:0000000000000000 .Ldebug_abbrev0
     /tmp/ccrN5AO7.s:4083   .debug_str:000000000000084a .LASF146
     /tmp/ccrN5AO7.s:4057   .debug_str:000000000000079b .LASF147
     /tmp/ccrN5AO7.s:3903   .debug_str:00000000000002c0 .LASF148
     /tmp/ccrN5AO7.s:3795   .debug_ranges:0000000000000000 .Ldebug_ranges0
     /tmp/ccrN5AO7.s:3807   .debug_line:0000000000000000 .Ldebug_line0
     /tmp/ccrN5AO7.s:3999   .debug_str:00000000000005cb .LASF0
     /tmp/ccrN5AO7.s:4013   .debug_str:000000000000063e .LASF1
     /tmp/ccrN5AO7.s:3979   .debug_str:0000000000000522 .LASF2
     /tmp/ccrN5AO7.s:3941   .debug_str:0000000000000436 .LASF4
     /tmp/ccrN5AO7.s:4067   .debug_str:00000000000007d8 .LASF3
     /tmp/ccrN5AO7.s:3837   .debug_str:00000000000000de .LASF5
     /tmp/ccrN5AO7.s:3877   .debug_str:0000000000000205 .LASF6
     /tmp/ccrN5AO7.s:4019   .debug_str:0000000000000685 .LASF7
     /tmp/ccrN5AO7.s:3997   .debug_str:00000000000005b8 .LASF8
     /tmp/ccrN5AO7.s:4097   .debug_str:0000000000000969 .LASF9
     /tmp/ccrN5AO7.s:3921   .debug_str:000000000000036b .LASF10
     /tmp/ccrN5AO7.s:4033   .debug_str:00000000000006e1 .LASF11
     /tmp/ccrN5AO7.s:4087   .debug_str:000000000000091a .LASF12
     /tmp/ccrN5AO7.s:3843   .debug_str:00000000000000fc .LASF13
     /tmp/ccrN5AO7.s:3815   .debug_str:000000000000002f .LASF14
     /tmp/ccrN5AO7.s:3857   .debug_str:0000000000000161 .LASF15
     /tmp/ccrN5AO7.s:4061   .debug_str:00000000000007b5 .LASF16
     /tmp/ccrN5AO7.s:3869   .debug_str:00000000000001d9 .LASF17
     /tmp/ccrN5AO7.s:3967   .debug_str:00000000000004ee .LASF35
     /tmp/ccrN5AO7.s:3969   .debug_str:00000000000004f8 .LASF149
     /tmp/ccrN5AO7.s:3875   .debug_str:0000000000000200 .LASF18
     /tmp/ccrN5AO7.s:3975   .debug_str:0000000000000510 .LASF19
     /tmp/ccrN5AO7.s:3939   .debug_str:0000000000000431 .LASF20
     /tmp/ccrN5AO7.s:4079   .debug_str:000000000000082e .LASF22
     /tmp/ccrN5AO7.s:4053   .debug_str:0000000000000779 .LASF27
     /tmp/ccrN5AO7.s:3991   .debug_str:0000000000000591 .LASF91
     /tmp/ccrN5AO7.s:3927   .debug_str:000000000000039a .LASF93
     /tmp/ccrN5AO7.s:4081   .debug_str:0000000000000841 .LASF21
     /tmp/ccrN5AO7.s:3885   .debug_str:000000000000024d .LASF23
     /tmp/ccrN5AO7.s:3919   .debug_str:0000000000000363 .LASF24
GAS LISTING /tmp/ccrN5AO7.s 			page 23


     /tmp/ccrN5AO7.s:3881   .debug_str:0000000000000223 .LASF25
     /tmp/ccrN5AO7.s:4085   .debug_str:000000000000090e .LASF26
     /tmp/ccrN5AO7.s:3813   .debug_str:0000000000000011 .LASF28
     /tmp/ccrN5AO7.s:3853   .debug_str:0000000000000145 .LASF29
     /tmp/ccrN5AO7.s:3957   .debug_str:0000000000000495 .LASF30
     /tmp/ccrN5AO7.s:4005   .debug_str:00000000000005f9 .LASF31
     /tmp/ccrN5AO7.s:3827   .debug_str:0000000000000075 .LASF32
     /tmp/ccrN5AO7.s:3961   .debug_str:00000000000004c1 .LASF33
     /tmp/ccrN5AO7.s:4113   .debug_str:00000000000009cb .LASF34
     /tmp/ccrN5AO7.s:3819   .debug_str:0000000000000044 .LASF150
     /tmp/ccrN5AO7.s:3963   .debug_str:00000000000004ca .LASF50
     /tmp/ccrN5AO7.s:3887   .debug_str:000000000000026a .LASF36
     /tmp/ccrN5AO7.s:4043   .debug_str:0000000000000726 .LASF37
     /tmp/ccrN5AO7.s:4021   .debug_str:0000000000000698 .LASF38
     /tmp/ccrN5AO7.s:3863   .debug_str:000000000000017c .LASF39
     /tmp/ccrN5AO7.s:3981   .debug_str:0000000000000530 .LASF40
     /tmp/ccrN5AO7.s:3935   .debug_str:00000000000003f2 .LASF41
     /tmp/ccrN5AO7.s:3973   .debug_str:0000000000000503 .LASF42
     /tmp/ccrN5AO7.s:3833   .debug_str:00000000000000b5 .LASF43
     /tmp/ccrN5AO7.s:4045   .debug_str:0000000000000732 .LASF151
     /tmp/ccrN5AO7.s:3993   .debug_str:000000000000059b .LASF44
     /tmp/ccrN5AO7.s:3949   .debug_str:0000000000000456 .LASF45
     /tmp/ccrN5AO7.s:3823   .debug_str:0000000000000066 .LASF46
     /tmp/ccrN5AO7.s:3959   .debug_str:00000000000004b0 .LASF47
     /tmp/ccrN5AO7.s:3955   .debug_str:0000000000000488 .LASF48
     /tmp/ccrN5AO7.s:4011   .debug_str:000000000000061e .LASF49
     /tmp/ccrN5AO7.s:4059   .debug_str:00000000000007af .LASF61
     /tmp/ccrN5AO7.s:3985   .debug_str:0000000000000556 .LASF63
     /tmp/ccrN5AO7.s:3895   .debug_str:0000000000000294 .LASF152
     /tmp/ccrN5AO7.s:3995   .debug_str:00000000000005a3 .LASF51
     /tmp/ccrN5AO7.s:3947   .debug_str:0000000000000451 .LASF52
     /tmp/ccrN5AO7.s:3859   .debug_str:000000000000016d .LASF53
     /tmp/ccrN5AO7.s:3951   .debug_str:0000000000000468 .LASF54
     /tmp/ccrN5AO7.s:4009   .debug_str:0000000000000614 .LASF55
     /tmp/ccrN5AO7.s:3945   .debug_str:0000000000000448 .LASF56
     /tmp/ccrN5AO7.s:3925   .debug_str:000000000000038c .LASF57
     /tmp/ccrN5AO7.s:3929   .debug_str:00000000000003b1 .LASF59
     /tmp/ccrN5AO7.s:4107   .debug_str:00000000000009a9 .LASF84
     /tmp/ccrN5AO7.s:3937   .debug_str:0000000000000409 .LASF86
     /tmp/ccrN5AO7.s:4001   .debug_str:00000000000005d8 .LASF58
     /tmp/ccrN5AO7.s:3899   .debug_str:00000000000002a8 .LASF60
     /tmp/ccrN5AO7.s:4035   .debug_str:00000000000006f0 .LASF62
     /tmp/ccrN5AO7.s:4047   .debug_str:0000000000000737 .LASF64
     /tmp/ccrN5AO7.s:4069   .debug_str:00000000000007ea .LASF153
     /tmp/ccrN5AO7.s:3809   .debug_str:0000000000000000 .LASF65
     /tmp/ccrN5AO7.s:3901   .debug_str:00000000000002bb .LASF66
     /tmp/ccrN5AO7.s:3893   .debug_str:000000000000028e .LASF67
     /tmp/ccrN5AO7.s:3943   .debug_str:000000000000043d .LASF68
     /tmp/ccrN5AO7.s:3913   .debug_str:000000000000032c .LASF69
     /tmp/ccrN5AO7.s:4127   .debug_str:0000000000000a54 .LASF70
     /tmp/ccrN5AO7.s:3879   .debug_str:000000000000020c .LASF71
     /tmp/ccrN5AO7.s:4025   .debug_str:00000000000006bc .LASF72
     /tmp/ccrN5AO7.s:3987   .debug_str:0000000000000566 .LASF73
     /tmp/ccrN5AO7.s:3871   .debug_str:00000000000001ef .LASF74
     /tmp/ccrN5AO7.s:4023   .debug_str:00000000000006a3 .LASF75
     /tmp/ccrN5AO7.s:4115   .debug_str:00000000000009e5 .LASF76
     /tmp/ccrN5AO7.s:3933   .debug_str:00000000000003cf .LASF77
GAS LISTING /tmp/ccrN5AO7.s 			page 24


     /tmp/ccrN5AO7.s:3891   .debug_str:0000000000000288 .LASF78
     /tmp/ccrN5AO7.s:4121   .debug_str:0000000000000a23 .LASF79
     /tmp/ccrN5AO7.s:3839   .debug_str:00000000000000e5 .LASF80
     /tmp/ccrN5AO7.s:3983   .debug_str:000000000000053c .LASF81
     /tmp/ccrN5AO7.s:3811   .debug_str:0000000000000009 .LASF82
     /tmp/ccrN5AO7.s:4031   .debug_str:00000000000006d9 .LASF83
     /tmp/ccrN5AO7.s:3817   .debug_str:000000000000003f .LASF154
     /tmp/ccrN5AO7.s:3851   .debug_str:0000000000000132 .LASF155
     /tmp/ccrN5AO7.s:3849   .debug_str:000000000000012d .LASF85
     /tmp/ccrN5AO7.s:4015   .debug_str:0000000000000651 .LASF87
     /tmp/ccrN5AO7.s:3931   .debug_str:00000000000003ca .LASF88
     /tmp/ccrN5AO7.s:4105   .debug_str:000000000000099f .LASF89
     /tmp/ccrN5AO7.s:3835   .debug_str:00000000000000ce .LASF99
     /tmp/ccrN5AO7.s:4091   .debug_str:0000000000000941 .LASF90
     /tmp/ccrN5AO7.s:4055   .debug_str:0000000000000790 .LASF92
     /tmp/ccrN5AO7.s:3855   .debug_str:000000000000014f .LASF94
     /tmp/ccrN5AO7.s:4049   .debug_str:000000000000074d .LASF95
     /tmp/ccrN5AO7.s:4051   .debug_str:0000000000000762 .LASF96
     /tmp/ccrN5AO7.s:4125   .debug_str:0000000000000a4b .LASF97
     /tmp/ccrN5AO7.s:4099   .debug_str:0000000000000979 .LASF156
     /tmp/ccrN5AO7.s:4093   .debug_str:0000000000000953 .LASF98
     /tmp/ccrN5AO7.s:3989   .debug_str:000000000000057f .LASF111
     /tmp/ccrN5AO7.s:3977   .debug_str:0000000000000515 .LASF100
     /tmp/ccrN5AO7.s:4037   .debug_str:00000000000006fb .LASF101
     /tmp/ccrN5AO7.s:3825   .debug_str:000000000000006d .LASF102
     /tmp/ccrN5AO7.s:3847   .debug_str:000000000000011e .LASF103
     /tmp/ccrN5AO7.s:3971   .debug_str:00000000000004fd .LASF104
     /tmp/ccrN5AO7.s:3917   .debug_str:0000000000000350 .LASF105
     /tmp/ccrN5AO7.s:3909   .debug_str:0000000000000305 .LASF106
     /tmp/ccrN5AO7.s:4129   .debug_str:0000000000000a59 .LASF107
     /tmp/ccrN5AO7.s:3923   .debug_str:0000000000000379 .LASF108
     /tmp/ccrN5AO7.s:4095   .debug_str:000000000000095a .LASF109
     /tmp/ccrN5AO7.s:3911   .debug_str:000000000000031b .LASF157
     /tmp/ccrN5AO7.s:4027   .debug_str:00000000000006c3 .LASF110
     /tmp/ccrN5AO7.s:3821   .debug_str:000000000000004c .LASF112
     /tmp/ccrN5AO7.s:4119   .debug_str:0000000000000a08 .LASF113
     /tmp/ccrN5AO7.s:3829   .debug_str:0000000000000092 .LASF114
     /tmp/ccrN5AO7.s:4117   .debug_str:00000000000009f5 .LASF115
     /tmp/ccrN5AO7.s:3865   .debug_str:0000000000000193 .LASF158
     /tmp/ccrN5AO7.s:4123   .debug_str:0000000000000a3b .LASF159
     /tmp/ccrN5AO7.s:3953   .debug_str:0000000000000470 .LASF160
     /tmp/ccrN5AO7.s:4041   .debug_str:0000000000000721 .LASF116
     /tmp/ccrN5AO7.s:4071   .debug_str:00000000000007fb .LASF117
     /tmp/ccrN5AO7.s:4089   .debug_str:0000000000000929 .LASF118
     /tmp/ccrN5AO7.s:303    .text._ZN14PeriodicThreadD0Ev:0000000000000000 .LFB65
     /tmp/ccrN5AO7.s:335    .text._ZN14PeriodicThreadD0Ev:0000000000000034 .LFE65
     /tmp/ccrN5AO7.s:3577   .debug_loc:0000000000000000 .LLST5
     /tmp/ccrN5AO7.s:316    .text._ZN14PeriodicThreadD0Ev:0000000000000010 .LBB10
     /tmp/ccrN5AO7.s:323    .text._ZN14PeriodicThreadD0Ev:000000000000001c .LBE10
     /tmp/ccrN5AO7.s:3591   .debug_loc:0000000000000039 .LLST6
     /tmp/ccrN5AO7.s:325    .text._ZN14PeriodicThreadD0Ev:0000000000000024 .LVL18
     /tmp/ccrN5AO7.s:4003   .debug_str:00000000000005e1 .LASF119
     /tmp/ccrN5AO7.s:115    .text._ZN14PeriodicThreadD2Ev:0000000000000000 .LFB63
     /tmp/ccrN5AO7.s:137    .text._ZN14PeriodicThreadD2Ev:0000000000000024 .LFE63
     /tmp/ccrN5AO7.s:654    .text:0000000000000298 .LFB58
     /tmp/ccrN5AO7.s:680    .text:00000000000002c0 .LFE58
     /tmp/ccrN5AO7.s:3598   .debug_loc:000000000000005c .LLST13
GAS LISTING /tmp/ccrN5AO7.s 			page 25


     /tmp/ccrN5AO7.s:669    .text:00000000000002b0 .LVL38
     /tmp/ccrN5AO7.s:623    .text:0000000000000270 .LFB57
     /tmp/ccrN5AO7.s:648    .text:0000000000000298 .LFE57
     /tmp/ccrN5AO7.s:637    .text:0000000000000288 .LVL36
     /tmp/ccrN5AO7.s:4103   .debug_str:0000000000000998 .LASF161
     /tmp/ccrN5AO7.s:3965   .debug_str:00000000000004d6 .LASF120
     /tmp/ccrN5AO7.s:580    .text:0000000000000230 .LFB55
     /tmp/ccrN5AO7.s:615    .text:0000000000000270 .LFE55
     /tmp/ccrN5AO7.s:3612   .debug_loc:0000000000000095 .LLST11
     /tmp/ccrN5AO7.s:3630   .debug_loc:00000000000000e1 .LLST12
     /tmp/ccrN5AO7.s:598    .text:0000000000000250 .LVL34
     /tmp/ccrN5AO7.s:546    .text:0000000000000204 .LFB53
     /tmp/ccrN5AO7.s:574    .text:0000000000000230 .LFE53
     /tmp/ccrN5AO7.s:3644   .debug_loc:000000000000011a .LLST10
     /tmp/ccrN5AO7.s:563    .text:0000000000000220 .LVL32
     /tmp/ccrN5AO7.s:512    .text:00000000000001d8 .LFB52
     /tmp/ccrN5AO7.s:540    .text:0000000000000204 .LFE52
     /tmp/ccrN5AO7.s:3658   .debug_loc:0000000000000153 .LLST9
     /tmp/ccrN5AO7.s:529    .text:00000000000001f4 .LVL29
     /tmp/ccrN5AO7.s:3907   .debug_str:00000000000002f3 .LASF121
     /tmp/ccrN5AO7.s:272    .text:00000000000000e8 .LFB51
     /tmp/ccrN5AO7.s:296    .text:0000000000000110 .LFE51
     /tmp/ccrN5AO7.s:3672   .debug_loc:000000000000018c .LLST4
     /tmp/ccrN5AO7.s:286    .text:0000000000000100 .LVL14
     /tmp/ccrN5AO7.s:3845   .debug_str:000000000000010c .LASF122
     /tmp/ccrN5AO7.s:88     .text:0000000000000030 .LFB49
     /tmp/ccrN5AO7.s:106    .text:0000000000000048 .LFE49
     /tmp/ccrN5AO7.s:487    .text:00000000000001bc .LFB47
     /tmp/ccrN5AO7.s:506    .text:00000000000001d8 .LFE47
     /tmp/ccrN5AO7.s:64     .text:0000000000000018 .LFB46
     /tmp/ccrN5AO7.s:82     .text:0000000000000030 .LFE46
     /tmp/ccrN5AO7.s:4039   .debug_str:0000000000000712 .LASF123
     /tmp/ccrN5AO7.s:242    .text:00000000000000c0 .LFB45
     /tmp/ccrN5AO7.s:266    .text:00000000000000e8 .LFE45
     /tmp/ccrN5AO7.s:3686   .debug_loc:00000000000001c5 .LLST3
     /tmp/ccrN5AO7.s:256    .text:00000000000000d8 .LVL12
     /tmp/ccrN5AO7.s:3841   .debug_str:00000000000000ed .LASF124
     /tmp/ccrN5AO7.s:37     .text:0000000000000000 .LFB43
     /tmp/ccrN5AO7.s:56     .text:0000000000000018 .LFE43
     /tmp/ccrN5AO7.s:4101   .debug_str:0000000000000989 .LASF125
     /tmp/ccrN5AO7.s:456    .text:0000000000000198 .LFB40
     /tmp/ccrN5AO7.s:479    .text:00000000000001bc .LFE40
     /tmp/ccrN5AO7.s:425    .text:0000000000000170 .LFB38
     /tmp/ccrN5AO7.s:450    .text:0000000000000198 .LFE38
     /tmp/ccrN5AO7.s:439    .text:0000000000000188 .LVL25
     /tmp/ccrN5AO7.s:374    .text:0000000000000138 .LFB37
     /tmp/ccrN5AO7.s:419    .text:0000000000000170 .LFE37
     /tmp/ccrN5AO7.s:3700   .debug_loc:00000000000001fe .LLST8
     /tmp/ccrN5AO7.s:390    .text:000000000000014c .LBB12
     /tmp/ccrN5AO7.s:395    .text:000000000000014c .LBE12
     /tmp/ccrN5AO7.s:396    .text:000000000000014c .LBB14
     /tmp/ccrN5AO7.s:400    .text:000000000000014c .LBE14
     /tmp/ccrN5AO7.s:407    .text:0000000000000160 .LVL24
     /tmp/ccrN5AO7.s:4077   .debug_str:000000000000081b .LASF126
     /tmp/ccrN5AO7.s:4065   .debug_str:00000000000007d1 .LASF127
     /tmp/ccrN5AO7.s:342    .text:0000000000000110 .LFB36
     /tmp/ccrN5AO7.s:368    .text:0000000000000138 .LFE36
GAS LISTING /tmp/ccrN5AO7.s 			page 26


     /tmp/ccrN5AO7.s:3720   .debug_loc:000000000000024c .LLST7
     /tmp/ccrN5AO7.s:357    .text:0000000000000128 .LVL20
     /tmp/ccrN5AO7.s:4073   .debug_str:0000000000000805 .LASF128
     /tmp/ccrN5AO7.s:4131   .debug_str:0000000000000a5f .LASF129
     /tmp/ccrN5AO7.s:210    .text:0000000000000098 .LFB35
     /tmp/ccrN5AO7.s:236    .text:00000000000000c0 .LFE35
     /tmp/ccrN5AO7.s:3734   .debug_loc:0000000000000285 .LLST2
     /tmp/ccrN5AO7.s:225    .text:00000000000000b0 .LVL10
     /tmp/ccrN5AO7.s:3915   .debug_str:0000000000000340 .LASF130
     /tmp/ccrN5AO7.s:4075   .debug_str:0000000000000815 .LASF131
     /tmp/ccrN5AO7.s:178    .text:0000000000000070 .LFB34
     /tmp/ccrN5AO7.s:204    .text:0000000000000098 .LFE34
     /tmp/ccrN5AO7.s:3748   .debug_loc:00000000000002be .LLST1
     /tmp/ccrN5AO7.s:193    .text:0000000000000088 .LVL8
     /tmp/ccrN5AO7.s:4111   .debug_str:00000000000009be .LASF132
     /tmp/ccrN5AO7.s:4063   .debug_str:00000000000007cb .LASF133
     /tmp/ccrN5AO7.s:146    .text:0000000000000048 .LFB33
     /tmp/ccrN5AO7.s:172    .text:0000000000000070 .LFE33
     /tmp/ccrN5AO7.s:3762   .debug_loc:00000000000002f7 .LLST0
     /tmp/ccrN5AO7.s:161    .text:0000000000000060 .LVL6
     /tmp/ccrN5AO7.s:11     .text._ZN14PeriodicThread18periodicActivationEv:0000000000000000 .LFB32
     /tmp/ccrN5AO7.s:30     .text._ZN14PeriodicThread18periodicActivationEv:0000000000000018 .LFE32
     /tmp/ccrN5AO7.s:4029   .debug_str:00000000000006d2 .LASF134
     /tmp/ccrN5AO7.s:4109   .debug_str:00000000000009b7 .LASF135
     /tmp/ccrN5AO7.s:3867   .debug_str:00000000000001bd .LASF136
     /tmp/ccrN5AO7.s:3873   .debug_str:00000000000001f5 .LASF137
     /tmp/ccrN5AO7.s:3889   .debug_str:000000000000026f .LASF138
     /tmp/ccrN5AO7.s:3861   .debug_str:0000000000000173 .LASF139
     /tmp/ccrN5AO7.s:3905   .debug_str:00000000000002de .LASF140
     /tmp/ccrN5AO7.s:4007   .debug_str:0000000000000604 .LASF141
     /tmp/ccrN5AO7.s:4017   .debug_str:0000000000000664 .LASF142
     /tmp/ccrN5AO7.s:3883   .debug_str:000000000000023f .LASF143
     /tmp/ccrN5AO7.s:3831   .debug_str:00000000000000aa .LASF144
     /tmp/ccrN5AO7.s:3897   .debug_str:000000000000029c .LASF145
     /tmp/ccrN5AO7.s:306    .text._ZN14PeriodicThreadD0Ev:0000000000000000 .LVL15
     /tmp/ccrN5AO7.s:315    .text._ZN14PeriodicThreadD0Ev:0000000000000010 .LVL16
     /tmp/ccrN5AO7.s:321    .text._ZN14PeriodicThreadD0Ev:000000000000001c .LVL17
     /tmp/ccrN5AO7.s:657    .text:0000000000000298 .LVL37
     /tmp/ccrN5AO7.s:583    .text:0000000000000230 .LVL33
     /tmp/ccrN5AO7.s:610    .text:0000000000000268 .LVL35
     /tmp/ccrN5AO7.s:549    .text:0000000000000204 .LVL30
     /tmp/ccrN5AO7.s:561    .text:0000000000000218 .LVL31
     /tmp/ccrN5AO7.s:515    .text:00000000000001d8 .LVL27
     /tmp/ccrN5AO7.s:527    .text:00000000000001ec .LVL28
     /tmp/ccrN5AO7.s:275    .text:00000000000000e8 .LVL13
     /tmp/ccrN5AO7.s:245    .text:00000000000000c0 .LVL11
     /tmp/ccrN5AO7.s:377    .text:0000000000000138 .LVL21
     /tmp/ccrN5AO7.s:405    .text:0000000000000158 .LVL23
     /tmp/ccrN5AO7.s:345    .text:0000000000000110 .LVL19
     /tmp/ccrN5AO7.s:213    .text:0000000000000098 .LVL9
     /tmp/ccrN5AO7.s:181    .text:0000000000000070 .LVL7
     /tmp/ccrN5AO7.s:149    .text:0000000000000048 .LVL5
     /tmp/ccrN5AO7.s:724    .debug_info:0000000000000000 .Ldebug_info0
     /tmp/ccrN5AO7.s:5      .text:0000000000000000 .Ltext0
     /tmp/ccrN5AO7.s:716    .text:00000000000002c0 .Letext0
                           .group:0000000000000000 _ZN14PeriodicThreadD5Ev

GAS LISTING /tmp/ccrN5AO7.s 			page 27


UNDEFINED SYMBOLS
__mem_alloc
__mem_free
_Z13thread_createPP3TCBPFvPvES2_
_Z15thread_dispatchv
_Z8sem_waitP10Ksemaphore
_Z10sem_signalP10Ksemaphore
__getc
__putc
