GAS LISTING /tmp/cc8wPA1B.s 			page 1


   1              		.file	"TCB.cpp"
   2              		.option pic
   3              		.option norelax
   4              		.text
   5              	.Ltext0:
   6              		.align	2
   7              		.globl	_ZN3TCB14putInSchedulerEPS_
   9              	_ZN3TCB14putInSchedulerEPS_:
  10              	.LFB48:
  11              		.file 1 "src/TCB.cpp"
   1:src/TCB.cpp   **** 
   2:src/TCB.cpp   **** #include "../h/TCB.hpp"
   3:src/TCB.cpp   **** #include "../h/riscv.hpp"
   4:src/TCB.cpp   **** 
   5:src/TCB.cpp   **** TCB *TCB::running = nullptr;
   6:src/TCB.cpp   **** 
   7:src/TCB.cpp   **** uint64 TCB::timeSliceCounter = 0;
   8:src/TCB.cpp   **** 
   9:src/TCB.cpp   **** TCB *TCB::createThread(Body body, void* arg)
  10:src/TCB.cpp   **** {
  11:src/TCB.cpp   ****     TCB* t = (TCB*)new TCB(body, arg, DEFAULT_TIME_SLICE);
  12:src/TCB.cpp   ****     if (body != nullptr) {
  13:src/TCB.cpp   ****         Scheduler::put(t);
  14:src/TCB.cpp   ****     }
  15:src/TCB.cpp   ****     return t;
  16:src/TCB.cpp   **** }
  17:src/TCB.cpp   **** 
  18:src/TCB.cpp   **** void TCB::putInScheduler(TCB *tcb) {
  12              		.loc 1 18 36
  13              		.cfi_startproc
  14              	.LVL0:
  15 0000 130101FF 		addi	sp,sp,-16
  16              		.cfi_def_cfa_offset 16
  17 0004 23341100 		sd	ra,8(sp)
  18 0008 23308100 		sd	s0,0(sp)
  19              		.cfi_offset 1, -8
  20              		.cfi_offset 8, -16
  21 000c 13040101 		addi	s0,sp,16
  22              		.cfi_def_cfa 8, 0
  19:src/TCB.cpp   ****     Scheduler::put(tcb);
  23              		.loc 1 19 5
  24              		.loc 1 19 19 is_stmt 0
  25 0010 97000000 		call	_ZN9Scheduler3putEP3TCB@plt
  25      E7800000 
  26              	.LVL1:
  20:src/TCB.cpp   **** }
  27              		.loc 1 20 1
  28 0018 83308100 		ld	ra,8(sp)
  29              		.cfi_restore 1
  30 001c 03340100 		ld	s0,0(sp)
  31              		.cfi_restore 8
  32              		.cfi_def_cfa 2, 16
  33 0020 13010101 		addi	sp,sp,16
  34              		.cfi_def_cfa_offset 0
  35 0024 67800000 		jr	ra
  36              		.cfi_endproc
  37              	.LFE48:
GAS LISTING /tmp/cc8wPA1B.s 			page 2


  39              		.align	2
  40              		.globl	_ZN3TCB8dispatchEv
  42              	_ZN3TCB8dispatchEv:
  43              	.LFB52:
  21:src/TCB.cpp   **** 
  22:src/TCB.cpp   **** TCB *TCB::createThreadWithoutPuttingInScheduler(Body body, void* arg)
  23:src/TCB.cpp   **** {
  24:src/TCB.cpp   ****     TCB* t = (TCB*)new TCB(body, arg, DEFAULT_TIME_SLICE);
  25:src/TCB.cpp   ****         return t;
  26:src/TCB.cpp   **** }
  27:src/TCB.cpp   **** 
  28:src/TCB.cpp   **** void TCB::yield()
  29:src/TCB.cpp   **** {
  30:src/TCB.cpp   ****     Riscv::pushRegisters();
  31:src/TCB.cpp   ****     TCB::dispatch();
  32:src/TCB.cpp   ****     Riscv::popRegisters();
  33:src/TCB.cpp   **** }
  34:src/TCB.cpp   **** void TCB::yieldWithoutScheduler()
  35:src/TCB.cpp   **** {
  36:src/TCB.cpp   ****     Riscv::pushRegisters();
  37:src/TCB.cpp   ****     TCB::dispatchWithoutScheduler();
  38:src/TCB.cpp   ****     Riscv::popRegisters();
  39:src/TCB.cpp   **** }
  40:src/TCB.cpp   **** 
  41:src/TCB.cpp   **** void TCB::dispatch()
  42:src/TCB.cpp   **** {
  44              		.loc 1 42 1 is_stmt 1
  45              		.cfi_startproc
  46 0028 130101FE 		addi	sp,sp,-32
  47              		.cfi_def_cfa_offset 32
  48 002c 233C1100 		sd	ra,24(sp)
  49 0030 23388100 		sd	s0,16(sp)
  50 0034 23349100 		sd	s1,8(sp)
  51              		.cfi_offset 1, -8
  52              		.cfi_offset 8, -16
  53              		.cfi_offset 9, -24
  54 0038 13040102 		addi	s0,sp,32
  55              		.cfi_def_cfa 8, 0
  43:src/TCB.cpp   **** //    TCB *old = running;
  44:src/TCB.cpp   **** //    if(old!= nullptr) {
  45:src/TCB.cpp   **** //        if (!old->isFinished()) { Scheduler::put(old); }
  46:src/TCB.cpp   **** //    }
  47:src/TCB.cpp   **** //    running = Scheduler::get();
  48:src/TCB.cpp   **** //    if(old== nullptr){
  49:src/TCB.cpp   **** //        old=running;
  50:src/TCB.cpp   **** //        return;
  51:src/TCB.cpp   **** //    }
  52:src/TCB.cpp   ****     TCB *old = running;
  56              		.loc 1 52 5
  57              		.loc 1 52 10 is_stmt 0
  58 003c 97040000 		ld	s1,.LANCHOR0
  58      83B40400 
  59              	.LVL2:
  53:src/TCB.cpp   ****     if (!old->isFinished()) { Scheduler::put(old); }
  60              		.loc 1 53 5 is_stmt 1
  61              	.LBB14:
  62              	.LBB15:
GAS LISTING /tmp/cc8wPA1B.s 			page 3


  63              		.file 2 "src/../h/TCB.hpp"
   1:src/../h/TCB.hpp **** #ifndef PROJECT_BASE_TCB_HPP
   2:src/../h/TCB.hpp **** #define PROJECT_BASE_TCB_HPP
   3:src/../h/TCB.hpp **** 
   4:src/../h/TCB.hpp **** #include "../lib/hw.h"
   5:src/../h/TCB.hpp **** #include "scheduler.hpp"
   6:src/../h/TCB.hpp **** #include "MemoryAllocator.hpp"
   7:src/../h/TCB.hpp **** 
   8:src/../h/TCB.hpp **** typedef TCB* thread_t;
   9:src/../h/TCB.hpp **** 
  10:src/../h/TCB.hpp **** 
  11:src/../h/TCB.hpp **** class TCB
  12:src/../h/TCB.hpp **** {
  13:src/../h/TCB.hpp **** 
  14:src/../h/TCB.hpp ****     static void threadWrapper();
  15:src/../h/TCB.hpp **** public:
  16:src/../h/TCB.hpp ****     using Body = void (*)(void*);
  17:src/../h/TCB.hpp ****     TCB();
  18:src/../h/TCB.hpp **** 
  19:src/../h/TCB.hpp ****     ~TCB() { delete[] stack; }
  20:src/../h/TCB.hpp **** 
  21:src/../h/TCB.hpp ****     bool isFinished() const { return finished; }
  64              		.loc 2 21 31
  65              		.loc 2 21 38 is_stmt 0
  66 0044 83C70403 		lbu	a5,48(s1)
  67              	.LVL3:
  68              	.LBE15:
  69              	.LBE14:
  70              		.loc 1 53 5
  71 0048 638C0702 		beqz	a5,.L6
  72              	.L4:
  54:src/TCB.cpp   ****     running = Scheduler::get();
  73              		.loc 1 54 5 is_stmt 1
  74              		.loc 1 54 29 is_stmt 0
  75 004c 97000000 		call	_ZN9Scheduler3getEv@plt
  75      E7800000 
  76              	.LVL4:
  77              		.loc 1 54 13
  78 0054 97070000 		sd	a0,.LANCHOR0,a5
  78      23B0A700 
  55:src/TCB.cpp   **** 
  56:src/TCB.cpp   ****     TCB::contextSwitch(&old->context, &running->context);
  79              		.loc 1 56 5 is_stmt 1
  80              		.loc 1 56 23 is_stmt 0
  81 005c 93058501 		addi	a1,a0,24
  82 0060 13858401 		addi	a0,s1,24
  83 0064 97000000 		call	_ZN3TCB13contextSwitchEPNS_7ContextES1_@plt
  83      E7800000 
  84              	.LVL5:
  57:src/TCB.cpp   **** }
  85              		.loc 1 57 1
  86 006c 83308101 		ld	ra,24(sp)
  87              		.cfi_remember_state
  88              		.cfi_restore 1
  89 0070 03340101 		ld	s0,16(sp)
  90              		.cfi_restore 8
  91              		.cfi_def_cfa 2, 32
GAS LISTING /tmp/cc8wPA1B.s 			page 4


  92 0074 83348100 		ld	s1,8(sp)
  93              		.cfi_restore 9
  94              	.LVL6:
  95 0078 13010102 		addi	sp,sp,32
  96              		.cfi_def_cfa_offset 0
  97 007c 67800000 		jr	ra
  98              	.LVL7:
  99              	.L6:
 100              		.cfi_restore_state
  53:src/TCB.cpp   ****     running = Scheduler::get();
 101              		.loc 1 53 31 is_stmt 1 discriminator 1
  53:src/TCB.cpp   ****     running = Scheduler::get();
 102              		.loc 1 53 45 is_stmt 0 discriminator 1
 103 0080 13850400 		mv	a0,s1
 104 0084 97000000 		call	_ZN9Scheduler3putEP3TCB@plt
 104      E7800000 
 105              	.LVL8:
 106 008c 6FF01FFC 		j	.L4
 107              		.cfi_endproc
 108              	.LFE52:
 110              		.align	2
 111              		.globl	_ZN3TCB5yieldEv
 113              	_ZN3TCB5yieldEv:
 114              	.LFB50:
  29:src/TCB.cpp   ****     Riscv::pushRegisters();
 115              		.loc 1 29 1 is_stmt 1
 116              		.cfi_startproc
 117 0090 130101FF 		addi	sp,sp,-16
 118              		.cfi_def_cfa_offset 16
 119 0094 23341100 		sd	ra,8(sp)
 120 0098 23308100 		sd	s0,0(sp)
 121              		.cfi_offset 1, -8
 122              		.cfi_offset 8, -16
 123 009c 13040101 		addi	s0,sp,16
 124              		.cfi_def_cfa 8, 0
  30:src/TCB.cpp   ****     TCB::dispatch();
 125              		.loc 1 30 5
  30:src/TCB.cpp   ****     TCB::dispatch();
 126              		.loc 1 30 25 is_stmt 0
 127 00a0 97000000 		call	_ZN5Riscv13pushRegistersEv@plt
 127      E7800000 
 128              	.LVL9:
  31:src/TCB.cpp   ****     Riscv::popRegisters();
 129              		.loc 1 31 5 is_stmt 1
  31:src/TCB.cpp   ****     Riscv::popRegisters();
 130              		.loc 1 31 18 is_stmt 0
 131 00a8 97000000 		call	_ZN3TCB8dispatchEv
 131      E7800000 
 132              	.LVL10:
  32:src/TCB.cpp   **** }
 133              		.loc 1 32 5 is_stmt 1
  32:src/TCB.cpp   **** }
 134              		.loc 1 32 24 is_stmt 0
 135 00b0 97000000 		call	_ZN5Riscv12popRegistersEv@plt
 135      E7800000 
 136              	.LVL11:
  33:src/TCB.cpp   **** void TCB::yieldWithoutScheduler()
GAS LISTING /tmp/cc8wPA1B.s 			page 5


 137              		.loc 1 33 1
 138 00b8 83308100 		ld	ra,8(sp)
 139              		.cfi_restore 1
 140 00bc 03340100 		ld	s0,0(sp)
 141              		.cfi_restore 8
 142              		.cfi_def_cfa 2, 16
 143 00c0 13010101 		addi	sp,sp,16
 144              		.cfi_def_cfa_offset 0
 145 00c4 67800000 		jr	ra
 146              		.cfi_endproc
 147              	.LFE50:
 149              		.align	2
 150              		.globl	_ZN3TCB13threadWrapperEv
 152              	_ZN3TCB13threadWrapperEv:
 153              	.LFB53:
  58:src/TCB.cpp   **** 
  59:src/TCB.cpp   **** void TCB::threadWrapper(){
 154              		.loc 1 59 26 is_stmt 1
 155              		.cfi_startproc
 156 00c8 130101FE 		addi	sp,sp,-32
 157              		.cfi_def_cfa_offset 32
 158 00cc 233C1100 		sd	ra,24(sp)
 159 00d0 23388100 		sd	s0,16(sp)
 160 00d4 23349100 		sd	s1,8(sp)
 161              		.cfi_offset 1, -8
 162              		.cfi_offset 8, -16
 163              		.cfi_offset 9, -24
 164 00d8 13040102 		addi	s0,sp,32
 165              		.cfi_def_cfa 8, 0
  60:src/TCB.cpp   ****     Riscv::popSppSpie();
 166              		.loc 1 60 5
 167              		.loc 1 60 22 is_stmt 0
 168 00dc 97000000 		call	_ZN5Riscv10popSppSpieEv@plt
 168      E7800000 
 169              	.LVL12:
  61:src/TCB.cpp   ****     running->body(running->arg);
 170              		.loc 1 61 5 is_stmt 1
 171              		.loc 1 61 14 is_stmt 0
 172 00e4 97040000 		lla	s1,.LANCHOR0
 172      93840400 
 173 00ec 83B70400 		ld	a5,0(s1)
 174 00f0 03B70700 		ld	a4,0(a5)
 175              		.loc 1 61 18
 176 00f4 03B58700 		ld	a0,8(a5)
 177 00f8 E7000700 		jalr	a4
 178              	.LVL13:
  62:src/TCB.cpp   ****     running->setFinished(true);
 179              		.loc 1 62 5 is_stmt 1
 180              		.loc 1 62 25 is_stmt 0
 181 00fc 83B70400 		ld	a5,0(s1)
 182              	.LVL14:
 183              	.LBB16:
 184              	.LBB17:
  22:src/../h/TCB.hpp **** 
  23:src/../h/TCB.hpp **** 
  24:src/../h/TCB.hpp ****     void setFinished(bool value) { finished = value; }
 185              		.loc 2 24 36 is_stmt 1
GAS LISTING /tmp/cc8wPA1B.s 			page 6


 186              		.loc 2 24 45 is_stmt 0
 187 0100 13071000 		li	a4,1
 188 0104 2388E702 		sb	a4,48(a5)
 189              	.LVL15:
 190              	.LBE17:
 191              	.LBE16:
  63:src/TCB.cpp   ****     TCB::yield();
 192              		.loc 1 63 5 is_stmt 1
 193              		.loc 1 63 15 is_stmt 0
 194 0108 97000000 		call	_ZN3TCB5yieldEv
 194      E7800000 
 195              	.LVL16:
  64:src/TCB.cpp   **** }
 196              		.loc 1 64 1
 197 0110 83308101 		ld	ra,24(sp)
 198              		.cfi_restore 1
 199 0114 03340101 		ld	s0,16(sp)
 200              		.cfi_restore 8
 201              		.cfi_def_cfa 2, 32
 202 0118 83348100 		ld	s1,8(sp)
 203              		.cfi_restore 9
 204 011c 13010102 		addi	sp,sp,32
 205              		.cfi_def_cfa_offset 0
 206 0120 67800000 		jr	ra
 207              		.cfi_endproc
 208              	.LFE53:
 210              		.align	2
 211              		.globl	_ZN3TCB10exitThreadEv
 213              	_ZN3TCB10exitThreadEv:
 214              	.LFB54:
  65:src/TCB.cpp   **** 
  66:src/TCB.cpp   **** int TCB::exitThread() {
 215              		.loc 1 66 23 is_stmt 1
 216              		.cfi_startproc
 217 0124 130101FF 		addi	sp,sp,-16
 218              		.cfi_def_cfa_offset 16
 219 0128 23341100 		sd	ra,8(sp)
 220 012c 23308100 		sd	s0,0(sp)
 221              		.cfi_offset 1, -8
 222              		.cfi_offset 8, -16
 223 0130 13040101 		addi	s0,sp,16
 224              		.cfi_def_cfa 8, 0
  67:src/TCB.cpp   ****     running->setFinished(true);
 225              		.loc 1 67 5
 226              	.LVL17:
 227              	.LBB18:
 228              	.LBB19:
 229              		.loc 2 24 36
 230              		.loc 2 24 45 is_stmt 0
 231 0134 97070000 		ld	a5,.LANCHOR0
 231      83B70700 
 232 013c 13071000 		li	a4,1
 233 0140 2388E702 		sb	a4,48(a5)
 234              	.LVL18:
 235              	.LBE19:
 236              	.LBE18:
  68:src/TCB.cpp   ****     dispatch();
GAS LISTING /tmp/cc8wPA1B.s 			page 7


 237              		.loc 1 68 5 is_stmt 1
 238              		.loc 1 68 13 is_stmt 0
 239 0144 97000000 		call	_ZN3TCB8dispatchEv
 239      E7800000 
 240              	.LVL19:
  69:src/TCB.cpp   **** //    TCB *old = running;
  70:src/TCB.cpp   **** //    running = Scheduler::get();
  71:src/TCB.cpp   **** //    timeSliceCounter=0;
  72:src/TCB.cpp   **** //    TCB::contextSwitch(&old->context, &running->context);
  73:src/TCB.cpp   **** //    if (running== nullptr)return -1;
  74:src/TCB.cpp   ****     return 0;
 241              		.loc 1 74 5 is_stmt 1
  75:src/TCB.cpp   **** }
 242              		.loc 1 75 1 is_stmt 0
 243 014c 13050000 		li	a0,0
 244 0150 83308100 		ld	ra,8(sp)
 245              		.cfi_restore 1
 246 0154 03340100 		ld	s0,0(sp)
 247              		.cfi_restore 8
 248              		.cfi_def_cfa 2, 16
 249 0158 13010101 		addi	sp,sp,16
 250              		.cfi_def_cfa_offset 0
 251 015c 67800000 		jr	ra
 252              		.cfi_endproc
 253              	.LFE54:
 255              		.align	2
 256              		.globl	_ZN3TCB24dispatchWithoutSchedulerEv
 258              	_ZN3TCB24dispatchWithoutSchedulerEv:
 259              	.LFB55:
  76:src/TCB.cpp   **** 
  77:src/TCB.cpp   **** 
  78:src/TCB.cpp   **** void TCB::dispatchWithoutScheduler(){
 260              		.loc 1 78 37 is_stmt 1
 261              		.cfi_startproc
 262 0160 130101FE 		addi	sp,sp,-32
 263              		.cfi_def_cfa_offset 32
 264 0164 233C1100 		sd	ra,24(sp)
 265 0168 23388100 		sd	s0,16(sp)
 266 016c 23349100 		sd	s1,8(sp)
 267 0170 23302101 		sd	s2,0(sp)
 268              		.cfi_offset 1, -8
 269              		.cfi_offset 8, -16
 270              		.cfi_offset 9, -24
 271              		.cfi_offset 18, -32
 272 0174 13040102 		addi	s0,sp,32
 273              		.cfi_def_cfa 8, 0
  79:src/TCB.cpp   ****     TCB *old = running;
 274              		.loc 1 79 5
 275              		.loc 1 79 10 is_stmt 0
 276 0178 97040000 		lla	s1,.LANCHOR0
 276      93840400 
 277 0180 03B90400 		ld	s2,0(s1)
 278              	.LVL20:
  80:src/TCB.cpp   ****     running = Scheduler::get();
 279              		.loc 1 80 5 is_stmt 1
 280              		.loc 1 80 29 is_stmt 0
 281 0184 97000000 		call	_ZN9Scheduler3getEv@plt
GAS LISTING /tmp/cc8wPA1B.s 			page 8


 281      E7800000 
 282              	.LVL21:
 283              		.loc 1 80 13
 284 018c 23B0A400 		sd	a0,0(s1)
  81:src/TCB.cpp   ****     TCB::contextSwitch(&old->context, &running->context);
 285              		.loc 1 81 5 is_stmt 1
 286              		.loc 1 81 23 is_stmt 0
 287 0190 93058501 		addi	a1,a0,24
 288 0194 13058901 		addi	a0,s2,24
 289 0198 97000000 		call	_ZN3TCB13contextSwitchEPNS_7ContextES1_@plt
 289      E7800000 
 290              	.LVL22:
  82:src/TCB.cpp   **** }
 291              		.loc 1 82 1
 292 01a0 83308101 		ld	ra,24(sp)
 293              		.cfi_restore 1
 294 01a4 03340101 		ld	s0,16(sp)
 295              		.cfi_restore 8
 296              		.cfi_def_cfa 2, 32
 297 01a8 83348100 		ld	s1,8(sp)
 298              		.cfi_restore 9
 299 01ac 03390100 		ld	s2,0(sp)
 300              		.cfi_restore 18
 301              	.LVL23:
 302 01b0 13010102 		addi	sp,sp,32
 303              		.cfi_def_cfa_offset 0
 304 01b4 67800000 		jr	ra
 305              		.cfi_endproc
 306              	.LFE55:
 308              		.align	2
 309              		.globl	_ZN3TCB21yieldWithoutSchedulerEv
 311              	_ZN3TCB21yieldWithoutSchedulerEv:
 312              	.LFB51:
  35:src/TCB.cpp   ****     Riscv::pushRegisters();
 313              		.loc 1 35 1 is_stmt 1
 314              		.cfi_startproc
 315 01b8 130101FF 		addi	sp,sp,-16
 316              		.cfi_def_cfa_offset 16
 317 01bc 23341100 		sd	ra,8(sp)
 318 01c0 23308100 		sd	s0,0(sp)
 319              		.cfi_offset 1, -8
 320              		.cfi_offset 8, -16
 321 01c4 13040101 		addi	s0,sp,16
 322              		.cfi_def_cfa 8, 0
  36:src/TCB.cpp   ****     TCB::dispatchWithoutScheduler();
 323              		.loc 1 36 5
  36:src/TCB.cpp   ****     TCB::dispatchWithoutScheduler();
 324              		.loc 1 36 25 is_stmt 0
 325 01c8 97000000 		call	_ZN5Riscv13pushRegistersEv@plt
 325      E7800000 
 326              	.LVL24:
  37:src/TCB.cpp   ****     Riscv::popRegisters();
 327              		.loc 1 37 5 is_stmt 1
  37:src/TCB.cpp   ****     Riscv::popRegisters();
 328              		.loc 1 37 34 is_stmt 0
 329 01d0 97000000 		call	_ZN3TCB24dispatchWithoutSchedulerEv
 329      E7800000 
GAS LISTING /tmp/cc8wPA1B.s 			page 9


 330              	.LVL25:
  38:src/TCB.cpp   **** }
 331              		.loc 1 38 5 is_stmt 1
  38:src/TCB.cpp   **** }
 332              		.loc 1 38 24 is_stmt 0
 333 01d8 97000000 		call	_ZN5Riscv12popRegistersEv@plt
 333      E7800000 
 334              	.LVL26:
  39:src/TCB.cpp   **** 
 335              		.loc 1 39 1
 336 01e0 83308100 		ld	ra,8(sp)
 337              		.cfi_restore 1
 338 01e4 03340100 		ld	s0,0(sp)
 339              		.cfi_restore 8
 340              		.cfi_def_cfa 2, 16
 341 01e8 13010101 		addi	sp,sp,16
 342              		.cfi_def_cfa_offset 0
 343 01ec 67800000 		jr	ra
 344              		.cfi_endproc
 345              	.LFE51:
 347              		.align	2
 348              		.globl	_ZN3TCBdlEPv
 350              	_ZN3TCBdlEPv:
 351              	.LFB56:
  83:src/TCB.cpp   **** 
  84:src/TCB.cpp   **** void TCB::operator delete(void *p) {
 352              		.loc 1 84 36 is_stmt 1
 353              		.cfi_startproc
 354              	.LVL27:
 355 01f0 130101FF 		addi	sp,sp,-16
 356              		.cfi_def_cfa_offset 16
 357 01f4 23341100 		sd	ra,8(sp)
 358 01f8 23308100 		sd	s0,0(sp)
 359              		.cfi_offset 1, -8
 360              		.cfi_offset 8, -16
 361 01fc 13040101 		addi	s0,sp,16
 362              		.cfi_def_cfa 8, 0
  85:src/TCB.cpp   ****     MemoryAllocator::free(p);
 363              		.loc 1 85 5
 364              		.loc 1 85 26 is_stmt 0
 365 0200 97000000 		call	_ZN15MemoryAllocator4freeEPv@plt
 365      E7800000 
 366              	.LVL28:
  86:src/TCB.cpp   ****     return;
 367              		.loc 1 86 5 is_stmt 1
  87:src/TCB.cpp   **** 
  88:src/TCB.cpp   **** }
 368              		.loc 1 88 1 is_stmt 0
 369 0208 83308100 		ld	ra,8(sp)
 370              		.cfi_restore 1
 371 020c 03340100 		ld	s0,0(sp)
 372              		.cfi_restore 8
 373              		.cfi_def_cfa 2, 16
 374 0210 13010101 		addi	sp,sp,16
 375              		.cfi_def_cfa_offset 0
 376 0214 67800000 		jr	ra
 377              		.cfi_endproc
GAS LISTING /tmp/cc8wPA1B.s 			page 10


 378              	.LFE56:
 380              		.align	2
 381              		.globl	_ZN3TCBnwEm
 383              	_ZN3TCBnwEm:
 384              	.LFB57:
  89:src/TCB.cpp   **** 
  90:src/TCB.cpp   **** void *TCB::operator new(size_t n) {
 385              		.loc 1 90 35 is_stmt 1
 386              		.cfi_startproc
 387              	.LVL29:
 388 0218 130101FF 		addi	sp,sp,-16
 389              		.cfi_def_cfa_offset 16
 390 021c 23341100 		sd	ra,8(sp)
 391 0220 23308100 		sd	s0,0(sp)
 392              		.cfi_offset 1, -8
 393              		.cfi_offset 8, -16
 394 0224 13040101 		addi	s0,sp,16
 395              		.cfi_def_cfa 8, 0
  91:src/TCB.cpp   ****     return MemoryAllocator::malloc(sizeof (TCB));
 396              		.loc 1 91 5
 397              		.loc 1 91 35 is_stmt 0
 398 0228 13058003 		li	a0,56
 399              	.LVL30:
 400 022c 97000000 		call	_ZN15MemoryAllocator6mallocEm@plt
 400      E7800000 
 401              	.LVL31:
  92:src/TCB.cpp   **** 
  93:src/TCB.cpp   **** }
 402              		.loc 1 93 1
 403 0234 83308100 		ld	ra,8(sp)
 404              		.cfi_restore 1
 405 0238 03340100 		ld	s0,0(sp)
 406              		.cfi_restore 8
 407              		.cfi_def_cfa 2, 16
 408 023c 13010101 		addi	sp,sp,16
 409              		.cfi_def_cfa_offset 0
 410 0240 67800000 		jr	ra
 411              		.cfi_endproc
 412              	.LFE57:
 414              		.align	2
 415              		.globl	_ZN3TCB12createThreadEPFvPvES0_
 417              	_ZN3TCB12createThreadEPFvPvES0_:
 418              	.LFB47:
  10:src/TCB.cpp   ****     TCB* t = (TCB*)new TCB(body, arg, DEFAULT_TIME_SLICE);
 419              		.loc 1 10 1 is_stmt 1
 420              		.cfi_startproc
 421              		.cfi_personality 0x9b,DW.ref.__gxx_personality_v0
 422              		.cfi_lsda 0x1b,.LLSDA47
 423              	.LVL32:
 424 0244 130101FD 		addi	sp,sp,-48
 425              		.cfi_def_cfa_offset 48
 426 0248 23341102 		sd	ra,40(sp)
 427 024c 23308102 		sd	s0,32(sp)
 428 0250 233C9100 		sd	s1,24(sp)
 429 0254 23382101 		sd	s2,16(sp)
 430 0258 23343101 		sd	s3,8(sp)
 431              		.cfi_offset 1, -8
GAS LISTING /tmp/cc8wPA1B.s 			page 11


 432              		.cfi_offset 8, -16
 433              		.cfi_offset 9, -24
 434              		.cfi_offset 18, -32
 435              		.cfi_offset 19, -40
 436 025c 13040103 		addi	s0,sp,48
 437              		.cfi_def_cfa 8, 0
 438 0260 13090500 		mv	s2,a0
 439 0264 93890500 		mv	s3,a1
  11:src/TCB.cpp   ****     if (body != nullptr) {
 440              		.loc 1 11 5
  11:src/TCB.cpp   ****     if (body != nullptr) {
 441              		.loc 1 11 57 is_stmt 0
 442 0268 13058003 		li	a0,56
 443              	.LVL33:
 444              	.LEHB0:
 445 026c 97000000 		call	_ZN3TCBnwEm
 445      E7800000 
 446              	.LVL34:
 447              	.LEHE0:
 448 0274 93040500 		mv	s1,a0
 449              	.LVL35:
 450              	.LBB20:
 451              	.LBB21:
  25:src/../h/TCB.hpp **** 
  26:src/../h/TCB.hpp ****     uint64 getTimeSlice() const { return timeSlice; }
  27:src/../h/TCB.hpp **** 
  28:src/../h/TCB.hpp ****     Body getBody() { return this->body;}
  29:src/../h/TCB.hpp ****     void* getArg() {return this->arg;}
  30:src/../h/TCB.hpp **** 
  31:src/../h/TCB.hpp ****     static void* operator new (size_t n);
  32:src/../h/TCB.hpp ****     static void operator delete (void* p);
  33:src/../h/TCB.hpp **** 
  34:src/../h/TCB.hpp **** 
  35:src/../h/TCB.hpp ****     static TCB *createThread(Body body, void* arg);
  36:src/../h/TCB.hpp **** 
  37:src/../h/TCB.hpp ****     static TCB* createThreadWithoutPuttingInScheduler(Body body, void* arg);
  38:src/../h/TCB.hpp **** 
  39:src/../h/TCB.hpp ****     static void putInScheduler(TCB* tcb);
  40:src/../h/TCB.hpp **** 
  41:src/../h/TCB.hpp ****     static void yield();
  42:src/../h/TCB.hpp **** 
  43:src/../h/TCB.hpp ****     static void yieldWithoutScheduler();
  44:src/../h/TCB.hpp **** 
  45:src/../h/TCB.hpp ****     static TCB *running;
  46:src/../h/TCB.hpp **** 
  47:src/../h/TCB.hpp **** //    body(body),
  48:src/../h/TCB.hpp **** //            arg(arg),
  49:src/../h/TCB.hpp **** //            stack(body != nullptr ? (uint64*)MemoryAllocator::malloc(sizeof(uint64) * DEFAULT_STA
  50:src/../h/TCB.hpp **** //    context({(uint64) &threadWrapper,
  51:src/../h/TCB.hpp **** //                stack != nullptr ? (uint64) &stack[DEFAULT_STACK_SIZE] : 0
  52:src/../h/TCB.hpp **** //    }),
  53:src/../h/TCB.hpp **** //    timeSlice(timeSlice),
  54:src/../h/TCB.hpp **** //            finished(false)
  55:src/../h/TCB.hpp ****     TCB(Body bodyy, void* argg, uint64 timeSlicee)
  56:src/../h/TCB.hpp ****     {
  57:src/../h/TCB.hpp ****         body = bodyy;
 452              		.loc 2 57 9 is_stmt 1
GAS LISTING /tmp/cc8wPA1B.s 			page 12


 453              		.loc 2 57 14 is_stmt 0
 454 0278 23302501 		sd	s2,0(a0)
  58:src/../h/TCB.hpp ****         arg=argg;
 455              		.loc 2 58 9 is_stmt 1
 456              		.loc 2 58 12 is_stmt 0
 457 027c 23343501 		sd	s3,8(a0)
  59:src/../h/TCB.hpp ****         stack=(body != nullptr ? (uint64*)MemoryAllocator::malloc(sizeof(uint64) * DEFAULT_STACK_SI
 458              		.loc 2 59 9 is_stmt 1
 459              		.loc 2 59 32 is_stmt 0
 460 0280 630A0900 		beqz	s2,.L26
 461              		.loc 2 59 66
 462 0284 37850000 		li	a0,32768
 463              	.LEHB1:
 464 0288 97000000 		call	_ZN15MemoryAllocator6mallocEm@plt
 464      E7800000 
 465              	.LVL36:
 466              	.LEHE1:
 467 0290 6F008000 		j	.L22
 468              	.L26:
 469              		.loc 2 59 32
 470 0294 13050000 		li	a0,0
 471              	.L22:
 472              		.loc 2 59 14
 473 0298 23B8A400 		sd	a0,16(s1)
  60:src/../h/TCB.hpp ****         context.ra = (uint64) &threadWrapper;
 474              		.loc 2 60 9 is_stmt 1
 475              		.loc 2 60 20 is_stmt 0
 476 029c 97070000 		lla	a5,_ZN3TCB13threadWrapperEv
 476      93870700 
 477 02a4 23BCF400 		sd	a5,24(s1)
  61:src/../h/TCB.hpp ****         context.sp =(stack != nullptr ? (uint64) &stack[DEFAULT_STACK_SIZE] : 0);
 478              		.loc 2 61 9 is_stmt 1
 479              		.loc 2 61 39 is_stmt 0
 480 02a8 63060504 		beqz	a0,.L27
 481              		.loc 2 61 50
 482 02ac B7870000 		li	a5,32768
 483 02b0 B307F500 		add	a5,a0,a5
 484              	.L23:
 485              		.loc 2 61 20
 486 02b4 23B0F402 		sd	a5,32(s1)
  62:src/../h/TCB.hpp ****         timeSlice=timeSlicee;
 487              		.loc 2 62 9 is_stmt 1
 488              		.loc 2 62 18 is_stmt 0
 489 02b8 93072000 		li	a5,2
 490 02bc 23B4F402 		sd	a5,40(s1)
  63:src/../h/TCB.hpp ****         finished= false;
 491              		.loc 2 63 9 is_stmt 1
 492              		.loc 2 63 17 is_stmt 0
 493 02c0 23880402 		sb	zero,48(s1)
 494              	.LVL37:
 495              	.LBE21:
 496              	.LBE20:
  12:src/TCB.cpp   ****         Scheduler::put(t);
 497              		.loc 1 12 5 is_stmt 1
 498 02c4 63080900 		beqz	s2,.L21
  13:src/TCB.cpp   ****     }
 499              		.loc 1 13 9
GAS LISTING /tmp/cc8wPA1B.s 			page 13


  13:src/TCB.cpp   ****     }
 500              		.loc 1 13 23 is_stmt 0
 501 02c8 13850400 		mv	a0,s1
 502              	.LEHB2:
 503 02cc 97000000 		call	_ZN9Scheduler3putEP3TCB@plt
 503      E7800000 
 504              	.LVL38:
 505              	.LEHE2:
  15:src/TCB.cpp   **** }
 506              		.loc 1 15 5 is_stmt 1
 507              	.L21:
  16:src/TCB.cpp   **** 
 508              		.loc 1 16 1 is_stmt 0
 509 02d4 13850400 		mv	a0,s1
 510 02d8 83308102 		ld	ra,40(sp)
 511              		.cfi_remember_state
 512              		.cfi_restore 1
 513 02dc 03340102 		ld	s0,32(sp)
 514              		.cfi_restore 8
 515              		.cfi_def_cfa 2, 48
 516 02e0 83348101 		ld	s1,24(sp)
 517              		.cfi_restore 9
 518              	.LVL39:
 519 02e4 03390101 		ld	s2,16(sp)
 520              		.cfi_restore 18
 521              	.LVL40:
 522 02e8 83398100 		ld	s3,8(sp)
 523              		.cfi_restore 19
 524              	.LVL41:
 525 02ec 13010103 		addi	sp,sp,48
 526              		.cfi_def_cfa_offset 0
 527 02f0 67800000 		jr	ra
 528              	.LVL42:
 529              	.L27:
 530              		.cfi_restore_state
 531              	.LBB23:
 532              	.LBB22:
  61:src/../h/TCB.hpp ****         timeSlice=timeSlicee;
 533              		.loc 2 61 39
 534 02f4 93070000 		li	a5,0
 535 02f8 6FF0DFFB 		j	.L23
 536              	.L28:
 537 02fc 13090500 		mv	s2,a0
 538              	.LVL43:
 539              	.LBE22:
 540              	.LBE23:
  11:src/TCB.cpp   ****     if (body != nullptr) {
 541              		.loc 1 11 57
 542 0300 13850400 		mv	a0,s1
 543 0304 97000000 		call	_ZN3TCBdlEPv
 543      E7800000 
 544              	.LVL44:
 545 030c 13050900 		mv	a0,s2
 546              	.LEHB3:
 547 0310 97000000 		call	_Unwind_Resume@plt
 547      E7800000 
 548              	.LVL45:
GAS LISTING /tmp/cc8wPA1B.s 			page 14


 549              	.LEHE3:
 550              		.cfi_endproc
 551              	.LFE47:
 552              		.globl	__gxx_personality_v0
 553              		.section	.gcc_except_table,"a",@progbits
 554              	.LLSDA47:
 555 0000 FF       		.byte	0xff
 556 0001 FF       		.byte	0xff
 557 0002 03       		.byte	0x3
 558 0003 34       		.byte	0x34
 559 0004 00000000 		.4byte	.LEHB0-.LFB47
 560 0008 00000000 		.4byte	.LEHE0-.LEHB0
 561 000c 00000000 		.4byte	0
 562 0010 00       		.byte	0
 563 0011 00000000 		.4byte	.LEHB1-.LFB47
 564 0015 00000000 		.4byte	.LEHE1-.LEHB1
 565 0019 00000000 		.4byte	.L28-.LFB47
 566 001d 00       		.byte	0
 567 001e 00000000 		.4byte	.LEHB2-.LFB47
 568 0022 00000000 		.4byte	.LEHE2-.LEHB2
 569 0026 00000000 		.4byte	0
 570 002a 00       		.byte	0
 571 002b 00000000 		.4byte	.LEHB3-.LFB47
 572 002f 00000000 		.4byte	.LEHE3-.LEHB3
 573 0033 00000000 		.4byte	0
 574 0037 00       		.byte	0
 575              		.text
 577              		.align	2
 578              		.globl	_ZN3TCB37createThreadWithoutPuttingInSchedulerEPFvPvES0_
 580              	_ZN3TCB37createThreadWithoutPuttingInSchedulerEPFvPvES0_:
 581              	.LFB49:
  23:src/TCB.cpp   ****     TCB* t = (TCB*)new TCB(body, arg, DEFAULT_TIME_SLICE);
 582              		.loc 1 23 1 is_stmt 1
 583              		.cfi_startproc
 584              		.cfi_personality 0x9b,DW.ref.__gxx_personality_v0
 585              		.cfi_lsda 0x1b,.LLSDA49
 586              	.LVL46:
 587 0318 130101FD 		addi	sp,sp,-48
 588              		.cfi_def_cfa_offset 48
 589 031c 23341102 		sd	ra,40(sp)
 590 0320 23308102 		sd	s0,32(sp)
 591 0324 233C9100 		sd	s1,24(sp)
 592 0328 23382101 		sd	s2,16(sp)
 593 032c 23343101 		sd	s3,8(sp)
 594              		.cfi_offset 1, -8
 595              		.cfi_offset 8, -16
 596              		.cfi_offset 9, -24
 597              		.cfi_offset 18, -32
 598              		.cfi_offset 19, -40
 599 0330 13040103 		addi	s0,sp,48
 600              		.cfi_def_cfa 8, 0
 601 0334 13090500 		mv	s2,a0
 602 0338 93890500 		mv	s3,a1
  24:src/TCB.cpp   ****         return t;
 603              		.loc 1 24 5
  24:src/TCB.cpp   ****         return t;
 604              		.loc 1 24 57 is_stmt 0
GAS LISTING /tmp/cc8wPA1B.s 			page 15


 605 033c 13058003 		li	a0,56
 606              	.LVL47:
 607              	.LEHB4:
 608 0340 97000000 		call	_ZN3TCBnwEm
 608      E7800000 
 609              	.LVL48:
 610              	.LEHE4:
 611 0348 93040500 		mv	s1,a0
 612              	.LVL49:
 613              	.LBB24:
 614              	.LBB25:
  57:src/../h/TCB.hpp ****         arg=argg;
 615              		.loc 2 57 9 is_stmt 1
  57:src/../h/TCB.hpp ****         arg=argg;
 616              		.loc 2 57 14 is_stmt 0
 617 034c 23302501 		sd	s2,0(a0)
  58:src/../h/TCB.hpp ****         stack=(body != nullptr ? (uint64*)MemoryAllocator::malloc(sizeof(uint64) * DEFAULT_STACK_SI
 618              		.loc 2 58 9 is_stmt 1
  58:src/../h/TCB.hpp ****         stack=(body != nullptr ? (uint64*)MemoryAllocator::malloc(sizeof(uint64) * DEFAULT_STACK_SI
 619              		.loc 2 58 12 is_stmt 0
 620 0350 23343501 		sd	s3,8(a0)
  59:src/../h/TCB.hpp ****         context.ra = (uint64) &threadWrapper;
 621              		.loc 2 59 9 is_stmt 1
  59:src/../h/TCB.hpp ****         context.ra = (uint64) &threadWrapper;
 622              		.loc 2 59 32 is_stmt 0
 623 0354 630A0900 		beqz	s2,.L34
  59:src/../h/TCB.hpp ****         context.ra = (uint64) &threadWrapper;
 624              		.loc 2 59 66
 625 0358 37850000 		li	a0,32768
 626              	.LEHB5:
 627 035c 97000000 		call	_ZN15MemoryAllocator6mallocEm@plt
 627      E7800000 
 628              	.LVL50:
 629              	.LEHE5:
 630 0364 6F008000 		j	.L31
 631              	.L34:
  59:src/../h/TCB.hpp ****         context.ra = (uint64) &threadWrapper;
 632              		.loc 2 59 32
 633 0368 13050000 		li	a0,0
 634              	.L31:
  59:src/../h/TCB.hpp ****         context.ra = (uint64) &threadWrapper;
 635              		.loc 2 59 14
 636 036c 23B8A400 		sd	a0,16(s1)
  60:src/../h/TCB.hpp ****         context.sp =(stack != nullptr ? (uint64) &stack[DEFAULT_STACK_SIZE] : 0);
 637              		.loc 2 60 9 is_stmt 1
  60:src/../h/TCB.hpp ****         context.sp =(stack != nullptr ? (uint64) &stack[DEFAULT_STACK_SIZE] : 0);
 638              		.loc 2 60 20 is_stmt 0
 639 0370 97070000 		lla	a5,_ZN3TCB13threadWrapperEv
 639      93870700 
 640 0378 23BCF400 		sd	a5,24(s1)
  61:src/../h/TCB.hpp ****         timeSlice=timeSlicee;
 641              		.loc 2 61 9 is_stmt 1
  61:src/../h/TCB.hpp ****         timeSlice=timeSlicee;
 642              		.loc 2 61 39 is_stmt 0
 643 037c 630E0502 		beqz	a0,.L35
  61:src/../h/TCB.hpp ****         timeSlice=timeSlicee;
 644              		.loc 2 61 50
GAS LISTING /tmp/cc8wPA1B.s 			page 16


 645 0380 B7870000 		li	a5,32768
 646 0384 3305F500 		add	a0,a0,a5
 647              	.L32:
  61:src/../h/TCB.hpp ****         timeSlice=timeSlicee;
 648              		.loc 2 61 20
 649 0388 23B0A402 		sd	a0,32(s1)
  62:src/../h/TCB.hpp ****         finished= false;
 650              		.loc 2 62 9 is_stmt 1
  62:src/../h/TCB.hpp ****         finished= false;
 651              		.loc 2 62 18 is_stmt 0
 652 038c 93072000 		li	a5,2
 653 0390 23B4F402 		sd	a5,40(s1)
 654              		.loc 2 63 9 is_stmt 1
 655              		.loc 2 63 17 is_stmt 0
 656 0394 23880402 		sb	zero,48(s1)
 657              	.LVL51:
 658              	.LBE25:
 659              	.LBE24:
  25:src/TCB.cpp   **** }
 660              		.loc 1 25 9 is_stmt 1
  26:src/TCB.cpp   **** 
 661              		.loc 1 26 1 is_stmt 0
 662 0398 13850400 		mv	a0,s1
 663 039c 83308102 		ld	ra,40(sp)
 664              		.cfi_remember_state
 665              		.cfi_restore 1
 666 03a0 03340102 		ld	s0,32(sp)
 667              		.cfi_restore 8
 668              		.cfi_def_cfa 2, 48
 669 03a4 83348101 		ld	s1,24(sp)
 670              		.cfi_restore 9
 671              	.LVL52:
 672 03a8 03390101 		ld	s2,16(sp)
 673              		.cfi_restore 18
 674              	.LVL53:
 675 03ac 83398100 		ld	s3,8(sp)
 676              		.cfi_restore 19
 677              	.LVL54:
 678 03b0 13010103 		addi	sp,sp,48
 679              		.cfi_def_cfa_offset 0
 680 03b4 67800000 		jr	ra
 681              	.LVL55:
 682              	.L35:
 683              		.cfi_restore_state
 684              	.LBB27:
 685              	.LBB26:
  61:src/../h/TCB.hpp ****         timeSlice=timeSlicee;
 686              		.loc 2 61 39
 687 03b8 13050000 		li	a0,0
 688 03bc 6FF0DFFC 		j	.L32
 689              	.L36:
 690 03c0 13090500 		mv	s2,a0
 691              	.LVL56:
 692              	.LBE26:
 693              	.LBE27:
  24:src/TCB.cpp   ****         return t;
 694              		.loc 1 24 57
GAS LISTING /tmp/cc8wPA1B.s 			page 17


 695 03c4 13850400 		mv	a0,s1
 696 03c8 97000000 		call	_ZN3TCBdlEPv
 696      E7800000 
 697              	.LVL57:
 698 03d0 13050900 		mv	a0,s2
 699              	.LEHB6:
 700 03d4 97000000 		call	_Unwind_Resume@plt
 700      E7800000 
 701              	.LVL58:
 702              	.LEHE6:
 703              		.cfi_endproc
 704              	.LFE49:
 705              		.section	.gcc_except_table
 706              	.LLSDA49:
 707 0038 FF       		.byte	0xff
 708 0039 FF       		.byte	0xff
 709 003a 03       		.byte	0x3
 710 003b 27       		.byte	0x27
 711 003c 00000000 		.4byte	.LEHB4-.LFB49
 712 0040 00000000 		.4byte	.LEHE4-.LEHB4
 713 0044 00000000 		.4byte	0
 714 0048 00       		.byte	0
 715 0049 00000000 		.4byte	.LEHB5-.LFB49
 716 004d 00000000 		.4byte	.LEHE5-.LEHB5
 717 0051 00000000 		.4byte	.L36-.LFB49
 718 0055 00       		.byte	0
 719 0056 00000000 		.4byte	.LEHB6-.LFB49
 720 005a 00000000 		.4byte	.LEHE6-.LEHB6
 721 005e 00000000 		.4byte	0
 722 0062 00       		.byte	0
 723              		.text
 725              		.globl	_ZN3TCB16timeSliceCounterE
 726              		.globl	_ZN3TCB7runningE
 727              		.bss
 728              		.align	3
 729              		.set	.LANCHOR0,. + 0
 732              	_ZN3TCB7runningE:
 733 0000 00000000 		.zero	8
 733      00000000 
 736              	_ZN3TCB16timeSliceCounterE:
 737 0008 00000000 		.zero	8
 737      00000000 
 738              		.text
 739              	.Letext0:
 740              		.file 3 "src/../h/../lib/hw.h"
 741              		.file 4 "src/../h/MemoryAllocator.hpp"
 742              		.file 5 "src/../h/scheduler.hpp"
 743              		.file 6 "src/../h/list.hpp"
 744              		.file 7 "src/../h/riscv.hpp"
 4142              		.align	3
 4145              	DW.ref.__gxx_personality_v0:
 4146 0000 00000000 		.dword	__gxx_personality_v0
 4146      00000000 
 4147              		.ident	"GCC: (Ubuntu 9.4.0-1ubuntu1~20.04) 9.4.0"
 4148              		.section	.note.GNU-stack,"",@progbits
GAS LISTING /tmp/cc8wPA1B.s 			page 18


DEFINED SYMBOLS
                            *ABS*:0000000000000000 TCB.cpp
     /tmp/cc8wPA1B.s:9      .text:0000000000000000 _ZN3TCB14putInSchedulerEPS_
     /tmp/cc8wPA1B.s:13     .text:0000000000000000 .L0 
     /tmp/cc8wPA1B.s:15     .text:0000000000000000 .L0 
     /tmp/cc8wPA1B.s:16     .text:0000000000000004 .L0 
     /tmp/cc8wPA1B.s:19     .text:000000000000000c .L0 
     /tmp/cc8wPA1B.s:20     .text:000000000000000c .L0 
     /tmp/cc8wPA1B.s:22     .text:0000000000000010 .L0 
     /tmp/cc8wPA1B.s:24     .text:0000000000000010 .L0 
     /tmp/cc8wPA1B.s:25     .text:0000000000000010 .L0 
     /tmp/cc8wPA1B.s:28     .text:0000000000000018 .L0 
     /tmp/cc8wPA1B.s:29     .text:000000000000001c .L0 
     /tmp/cc8wPA1B.s:31     .text:0000000000000020 .L0 
     /tmp/cc8wPA1B.s:32     .text:0000000000000020 .L0 
     /tmp/cc8wPA1B.s:34     .text:0000000000000024 .L0 
     /tmp/cc8wPA1B.s:36     .text:0000000000000028 .L0 
     /tmp/cc8wPA1B.s:42     .text:0000000000000028 _ZN3TCB8dispatchEv
     /tmp/cc8wPA1B.s:45     .text:0000000000000028 .L0 
     /tmp/cc8wPA1B.s:46     .text:0000000000000028 .L0 
     /tmp/cc8wPA1B.s:47     .text:000000000000002c .L0 
     /tmp/cc8wPA1B.s:51     .text:0000000000000038 .L0 
     /tmp/cc8wPA1B.s:52     .text:0000000000000038 .L0 
     /tmp/cc8wPA1B.s:53     .text:0000000000000038 .L0 
     /tmp/cc8wPA1B.s:55     .text:000000000000003c .L0 
     /tmp/cc8wPA1B.s:57     .text:000000000000003c .L0 
     /tmp/cc8wPA1B.s:58     .text:000000000000003c .L0 
     /tmp/cc8wPA1B.s:64     .text:0000000000000044 .L0 
     /tmp/cc8wPA1B.s:65     .text:0000000000000044 .L0 
     /tmp/cc8wPA1B.s:66     .text:0000000000000044 .L0 
     /tmp/cc8wPA1B.s:71     .text:0000000000000048 .L0 
     /tmp/cc8wPA1B.s:74     .text:000000000000004c .L0 
     /tmp/cc8wPA1B.s:75     .text:000000000000004c .L0 
     /tmp/cc8wPA1B.s:78     .text:0000000000000054 .L0 
     /tmp/cc8wPA1B.s:80     .text:000000000000005c .L0 
     /tmp/cc8wPA1B.s:81     .text:000000000000005c .L0 
     /tmp/cc8wPA1B.s:86     .text:000000000000006c .L0 
     /tmp/cc8wPA1B.s:87     .text:0000000000000070 .L0 
     /tmp/cc8wPA1B.s:88     .text:0000000000000070 .L0 
     /tmp/cc8wPA1B.s:90     .text:0000000000000074 .L0 
     /tmp/cc8wPA1B.s:91     .text:0000000000000074 .L0 
     /tmp/cc8wPA1B.s:93     .text:0000000000000078 .L0 
     /tmp/cc8wPA1B.s:96     .text:000000000000007c .L0 
     /tmp/cc8wPA1B.s:100    .text:0000000000000080 .L0 
     /tmp/cc8wPA1B.s:102    .text:0000000000000080 .L0 
     /tmp/cc8wPA1B.s:103    .text:0000000000000080 .L0 
     /tmp/cc8wPA1B.s:107    .text:0000000000000090 .L0 
     /tmp/cc8wPA1B.s:113    .text:0000000000000090 _ZN3TCB5yieldEv
     /tmp/cc8wPA1B.s:116    .text:0000000000000090 .L0 
     /tmp/cc8wPA1B.s:117    .text:0000000000000090 .L0 
     /tmp/cc8wPA1B.s:118    .text:0000000000000094 .L0 
     /tmp/cc8wPA1B.s:121    .text:000000000000009c .L0 
     /tmp/cc8wPA1B.s:122    .text:000000000000009c .L0 
     /tmp/cc8wPA1B.s:124    .text:00000000000000a0 .L0 
     /tmp/cc8wPA1B.s:126    .text:00000000000000a0 .L0 
     /tmp/cc8wPA1B.s:127    .text:00000000000000a0 .L0 
     /tmp/cc8wPA1B.s:130    .text:00000000000000a8 .L0 
GAS LISTING /tmp/cc8wPA1B.s 			page 19


     /tmp/cc8wPA1B.s:131    .text:00000000000000a8 .L0 
     /tmp/cc8wPA1B.s:134    .text:00000000000000b0 .L0 
     /tmp/cc8wPA1B.s:135    .text:00000000000000b0 .L0 
     /tmp/cc8wPA1B.s:138    .text:00000000000000b8 .L0 
     /tmp/cc8wPA1B.s:139    .text:00000000000000bc .L0 
     /tmp/cc8wPA1B.s:141    .text:00000000000000c0 .L0 
     /tmp/cc8wPA1B.s:142    .text:00000000000000c0 .L0 
     /tmp/cc8wPA1B.s:144    .text:00000000000000c4 .L0 
     /tmp/cc8wPA1B.s:146    .text:00000000000000c8 .L0 
     /tmp/cc8wPA1B.s:152    .text:00000000000000c8 _ZN3TCB13threadWrapperEv
     /tmp/cc8wPA1B.s:155    .text:00000000000000c8 .L0 
     /tmp/cc8wPA1B.s:156    .text:00000000000000c8 .L0 
     /tmp/cc8wPA1B.s:157    .text:00000000000000cc .L0 
     /tmp/cc8wPA1B.s:161    .text:00000000000000d8 .L0 
     /tmp/cc8wPA1B.s:162    .text:00000000000000d8 .L0 
     /tmp/cc8wPA1B.s:163    .text:00000000000000d8 .L0 
     /tmp/cc8wPA1B.s:165    .text:00000000000000dc .L0 
     /tmp/cc8wPA1B.s:167    .text:00000000000000dc .L0 
     /tmp/cc8wPA1B.s:168    .text:00000000000000dc .L0 
     /tmp/cc8wPA1B.s:171    .text:00000000000000e4 .L0 
     /tmp/cc8wPA1B.s:172    .text:00000000000000e4 .L0 
     /tmp/cc8wPA1B.s:176    .text:00000000000000f4 .L0 
     /tmp/cc8wPA1B.s:180    .text:00000000000000fc .L0 
     /tmp/cc8wPA1B.s:181    .text:00000000000000fc .L0 
     /tmp/cc8wPA1B.s:186    .text:0000000000000100 .L0 
     /tmp/cc8wPA1B.s:187    .text:0000000000000100 .L0 
     /tmp/cc8wPA1B.s:193    .text:0000000000000108 .L0 
     /tmp/cc8wPA1B.s:194    .text:0000000000000108 .L0 
     /tmp/cc8wPA1B.s:197    .text:0000000000000110 .L0 
     /tmp/cc8wPA1B.s:198    .text:0000000000000114 .L0 
     /tmp/cc8wPA1B.s:200    .text:0000000000000118 .L0 
     /tmp/cc8wPA1B.s:201    .text:0000000000000118 .L0 
     /tmp/cc8wPA1B.s:203    .text:000000000000011c .L0 
     /tmp/cc8wPA1B.s:205    .text:0000000000000120 .L0 
     /tmp/cc8wPA1B.s:207    .text:0000000000000124 .L0 
     /tmp/cc8wPA1B.s:213    .text:0000000000000124 _ZN3TCB10exitThreadEv
     /tmp/cc8wPA1B.s:216    .text:0000000000000124 .L0 
     /tmp/cc8wPA1B.s:217    .text:0000000000000124 .L0 
     /tmp/cc8wPA1B.s:218    .text:0000000000000128 .L0 
     /tmp/cc8wPA1B.s:221    .text:0000000000000130 .L0 
     /tmp/cc8wPA1B.s:222    .text:0000000000000130 .L0 
     /tmp/cc8wPA1B.s:224    .text:0000000000000134 .L0 
     /tmp/cc8wPA1B.s:229    .text:0000000000000134 .L0 
     /tmp/cc8wPA1B.s:230    .text:0000000000000134 .L0 
     /tmp/cc8wPA1B.s:231    .text:0000000000000134 .L0 
     /tmp/cc8wPA1B.s:238    .text:0000000000000144 .L0 
     /tmp/cc8wPA1B.s:239    .text:0000000000000144 .L0 
     /tmp/cc8wPA1B.s:242    .text:000000000000014c .L0 
     /tmp/cc8wPA1B.s:243    .text:000000000000014c .L0 
     /tmp/cc8wPA1B.s:245    .text:0000000000000154 .L0 
     /tmp/cc8wPA1B.s:247    .text:0000000000000158 .L0 
     /tmp/cc8wPA1B.s:248    .text:0000000000000158 .L0 
     /tmp/cc8wPA1B.s:250    .text:000000000000015c .L0 
     /tmp/cc8wPA1B.s:252    .text:0000000000000160 .L0 
     /tmp/cc8wPA1B.s:258    .text:0000000000000160 _ZN3TCB24dispatchWithoutSchedulerEv
     /tmp/cc8wPA1B.s:261    .text:0000000000000160 .L0 
     /tmp/cc8wPA1B.s:262    .text:0000000000000160 .L0 
GAS LISTING /tmp/cc8wPA1B.s 			page 20


     /tmp/cc8wPA1B.s:263    .text:0000000000000164 .L0 
     /tmp/cc8wPA1B.s:268    .text:0000000000000174 .L0 
     /tmp/cc8wPA1B.s:269    .text:0000000000000174 .L0 
     /tmp/cc8wPA1B.s:270    .text:0000000000000174 .L0 
     /tmp/cc8wPA1B.s:271    .text:0000000000000174 .L0 
     /tmp/cc8wPA1B.s:273    .text:0000000000000178 .L0 
     /tmp/cc8wPA1B.s:275    .text:0000000000000178 .L0 
     /tmp/cc8wPA1B.s:276    .text:0000000000000178 .L0 
     /tmp/cc8wPA1B.s:280    .text:0000000000000184 .L0 
     /tmp/cc8wPA1B.s:281    .text:0000000000000184 .L0 
     /tmp/cc8wPA1B.s:284    .text:000000000000018c .L0 
     /tmp/cc8wPA1B.s:286    .text:0000000000000190 .L0 
     /tmp/cc8wPA1B.s:287    .text:0000000000000190 .L0 
     /tmp/cc8wPA1B.s:292    .text:00000000000001a0 .L0 
     /tmp/cc8wPA1B.s:293    .text:00000000000001a4 .L0 
     /tmp/cc8wPA1B.s:295    .text:00000000000001a8 .L0 
     /tmp/cc8wPA1B.s:296    .text:00000000000001a8 .L0 
     /tmp/cc8wPA1B.s:298    .text:00000000000001ac .L0 
     /tmp/cc8wPA1B.s:300    .text:00000000000001b0 .L0 
     /tmp/cc8wPA1B.s:303    .text:00000000000001b4 .L0 
     /tmp/cc8wPA1B.s:305    .text:00000000000001b8 .L0 
     /tmp/cc8wPA1B.s:311    .text:00000000000001b8 _ZN3TCB21yieldWithoutSchedulerEv
     /tmp/cc8wPA1B.s:314    .text:00000000000001b8 .L0 
     /tmp/cc8wPA1B.s:315    .text:00000000000001b8 .L0 
     /tmp/cc8wPA1B.s:316    .text:00000000000001bc .L0 
     /tmp/cc8wPA1B.s:319    .text:00000000000001c4 .L0 
     /tmp/cc8wPA1B.s:320    .text:00000000000001c4 .L0 
     /tmp/cc8wPA1B.s:322    .text:00000000000001c8 .L0 
     /tmp/cc8wPA1B.s:324    .text:00000000000001c8 .L0 
     /tmp/cc8wPA1B.s:325    .text:00000000000001c8 .L0 
     /tmp/cc8wPA1B.s:328    .text:00000000000001d0 .L0 
     /tmp/cc8wPA1B.s:329    .text:00000000000001d0 .L0 
     /tmp/cc8wPA1B.s:332    .text:00000000000001d8 .L0 
     /tmp/cc8wPA1B.s:333    .text:00000000000001d8 .L0 
     /tmp/cc8wPA1B.s:336    .text:00000000000001e0 .L0 
     /tmp/cc8wPA1B.s:337    .text:00000000000001e4 .L0 
     /tmp/cc8wPA1B.s:339    .text:00000000000001e8 .L0 
     /tmp/cc8wPA1B.s:340    .text:00000000000001e8 .L0 
     /tmp/cc8wPA1B.s:342    .text:00000000000001ec .L0 
     /tmp/cc8wPA1B.s:344    .text:00000000000001f0 .L0 
     /tmp/cc8wPA1B.s:350    .text:00000000000001f0 _ZN3TCBdlEPv
     /tmp/cc8wPA1B.s:353    .text:00000000000001f0 .L0 
     /tmp/cc8wPA1B.s:355    .text:00000000000001f0 .L0 
     /tmp/cc8wPA1B.s:356    .text:00000000000001f4 .L0 
     /tmp/cc8wPA1B.s:359    .text:00000000000001fc .L0 
     /tmp/cc8wPA1B.s:360    .text:00000000000001fc .L0 
     /tmp/cc8wPA1B.s:362    .text:0000000000000200 .L0 
     /tmp/cc8wPA1B.s:364    .text:0000000000000200 .L0 
     /tmp/cc8wPA1B.s:365    .text:0000000000000200 .L0 
     /tmp/cc8wPA1B.s:368    .text:0000000000000208 .L0 
     /tmp/cc8wPA1B.s:369    .text:0000000000000208 .L0 
     /tmp/cc8wPA1B.s:370    .text:000000000000020c .L0 
     /tmp/cc8wPA1B.s:372    .text:0000000000000210 .L0 
     /tmp/cc8wPA1B.s:373    .text:0000000000000210 .L0 
     /tmp/cc8wPA1B.s:375    .text:0000000000000214 .L0 
     /tmp/cc8wPA1B.s:377    .text:0000000000000218 .L0 
     /tmp/cc8wPA1B.s:383    .text:0000000000000218 _ZN3TCBnwEm
GAS LISTING /tmp/cc8wPA1B.s 			page 21


     /tmp/cc8wPA1B.s:386    .text:0000000000000218 .L0 
     /tmp/cc8wPA1B.s:388    .text:0000000000000218 .L0 
     /tmp/cc8wPA1B.s:389    .text:000000000000021c .L0 
     /tmp/cc8wPA1B.s:392    .text:0000000000000224 .L0 
     /tmp/cc8wPA1B.s:393    .text:0000000000000224 .L0 
     /tmp/cc8wPA1B.s:395    .text:0000000000000228 .L0 
     /tmp/cc8wPA1B.s:397    .text:0000000000000228 .L0 
     /tmp/cc8wPA1B.s:398    .text:0000000000000228 .L0 
     /tmp/cc8wPA1B.s:403    .text:0000000000000234 .L0 
     /tmp/cc8wPA1B.s:404    .text:0000000000000238 .L0 
     /tmp/cc8wPA1B.s:406    .text:000000000000023c .L0 
     /tmp/cc8wPA1B.s:407    .text:000000000000023c .L0 
     /tmp/cc8wPA1B.s:409    .text:0000000000000240 .L0 
     /tmp/cc8wPA1B.s:411    .text:0000000000000244 .L0 
     /tmp/cc8wPA1B.s:417    .text:0000000000000244 _ZN3TCB12createThreadEPFvPvES0_
     /tmp/cc8wPA1B.s:420    .text:0000000000000244 .L0 
     /tmp/cc8wPA1B.s:4145   .data.rel.local.DW.ref.__gxx_personality_v0:0000000000000000 DW.ref.__gxx_personality_v0
     /tmp/cc8wPA1B.s:424    .text:0000000000000244 .L0 
     /tmp/cc8wPA1B.s:425    .text:0000000000000248 .L0 
     /tmp/cc8wPA1B.s:431    .text:000000000000025c .L0 
     /tmp/cc8wPA1B.s:432    .text:000000000000025c .L0 
     /tmp/cc8wPA1B.s:433    .text:000000000000025c .L0 
     /tmp/cc8wPA1B.s:434    .text:000000000000025c .L0 
     /tmp/cc8wPA1B.s:435    .text:000000000000025c .L0 
     /tmp/cc8wPA1B.s:437    .text:0000000000000260 .L0 
     /tmp/cc8wPA1B.s:441    .text:0000000000000268 .L0 
     /tmp/cc8wPA1B.s:442    .text:0000000000000268 .L0 
     /tmp/cc8wPA1B.s:453    .text:0000000000000278 .L0 
     /tmp/cc8wPA1B.s:454    .text:0000000000000278 .L0 
     /tmp/cc8wPA1B.s:456    .text:000000000000027c .L0 
     /tmp/cc8wPA1B.s:457    .text:000000000000027c .L0 
     /tmp/cc8wPA1B.s:459    .text:0000000000000280 .L0 
     /tmp/cc8wPA1B.s:460    .text:0000000000000280 .L0 
     /tmp/cc8wPA1B.s:462    .text:0000000000000284 .L0 
     /tmp/cc8wPA1B.s:470    .text:0000000000000294 .L0 
     /tmp/cc8wPA1B.s:473    .text:0000000000000298 .L0 
     /tmp/cc8wPA1B.s:475    .text:000000000000029c .L0 
     /tmp/cc8wPA1B.s:476    .text:000000000000029c .L0 
     /tmp/cc8wPA1B.s:479    .text:00000000000002a8 .L0 
     /tmp/cc8wPA1B.s:480    .text:00000000000002a8 .L0 
     /tmp/cc8wPA1B.s:482    .text:00000000000002ac .L0 
     /tmp/cc8wPA1B.s:486    .text:00000000000002b4 .L0 
     /tmp/cc8wPA1B.s:488    .text:00000000000002b8 .L0 
     /tmp/cc8wPA1B.s:489    .text:00000000000002b8 .L0 
     /tmp/cc8wPA1B.s:492    .text:00000000000002c0 .L0 
     /tmp/cc8wPA1B.s:493    .text:00000000000002c0 .L0 
     /tmp/cc8wPA1B.s:498    .text:00000000000002c4 .L0 
     /tmp/cc8wPA1B.s:500    .text:00000000000002c8 .L0 
     /tmp/cc8wPA1B.s:501    .text:00000000000002c8 .L0 
     /tmp/cc8wPA1B.s:508    .text:00000000000002d4 .L0 
     /tmp/cc8wPA1B.s:509    .text:00000000000002d4 .L0 
     /tmp/cc8wPA1B.s:511    .text:00000000000002dc .L0 
     /tmp/cc8wPA1B.s:512    .text:00000000000002dc .L0 
     /tmp/cc8wPA1B.s:514    .text:00000000000002e0 .L0 
     /tmp/cc8wPA1B.s:515    .text:00000000000002e0 .L0 
     /tmp/cc8wPA1B.s:517    .text:00000000000002e4 .L0 
     /tmp/cc8wPA1B.s:520    .text:00000000000002e8 .L0 
GAS LISTING /tmp/cc8wPA1B.s 			page 22


     /tmp/cc8wPA1B.s:523    .text:00000000000002ec .L0 
     /tmp/cc8wPA1B.s:526    .text:00000000000002f0 .L0 
     /tmp/cc8wPA1B.s:530    .text:00000000000002f4 .L0 
     /tmp/cc8wPA1B.s:534    .text:00000000000002f4 .L0 
     /tmp/cc8wPA1B.s:542    .text:0000000000000300 .L0 
     /tmp/cc8wPA1B.s:550    .text:0000000000000318 .L0 
     /tmp/cc8wPA1B.s:580    .text:0000000000000318 _ZN3TCB37createThreadWithoutPuttingInSchedulerEPFvPvES0_
     /tmp/cc8wPA1B.s:583    .text:0000000000000318 .L0 
     /tmp/cc8wPA1B.s:587    .text:0000000000000318 .L0 
     /tmp/cc8wPA1B.s:588    .text:000000000000031c .L0 
     /tmp/cc8wPA1B.s:594    .text:0000000000000330 .L0 
     /tmp/cc8wPA1B.s:595    .text:0000000000000330 .L0 
     /tmp/cc8wPA1B.s:596    .text:0000000000000330 .L0 
     /tmp/cc8wPA1B.s:597    .text:0000000000000330 .L0 
     /tmp/cc8wPA1B.s:598    .text:0000000000000330 .L0 
     /tmp/cc8wPA1B.s:600    .text:0000000000000334 .L0 
     /tmp/cc8wPA1B.s:604    .text:000000000000033c .L0 
     /tmp/cc8wPA1B.s:605    .text:000000000000033c .L0 
     /tmp/cc8wPA1B.s:616    .text:000000000000034c .L0 
     /tmp/cc8wPA1B.s:617    .text:000000000000034c .L0 
     /tmp/cc8wPA1B.s:619    .text:0000000000000350 .L0 
     /tmp/cc8wPA1B.s:620    .text:0000000000000350 .L0 
     /tmp/cc8wPA1B.s:622    .text:0000000000000354 .L0 
     /tmp/cc8wPA1B.s:623    .text:0000000000000354 .L0 
     /tmp/cc8wPA1B.s:625    .text:0000000000000358 .L0 
     /tmp/cc8wPA1B.s:633    .text:0000000000000368 .L0 
     /tmp/cc8wPA1B.s:636    .text:000000000000036c .L0 
     /tmp/cc8wPA1B.s:638    .text:0000000000000370 .L0 
     /tmp/cc8wPA1B.s:639    .text:0000000000000370 .L0 
     /tmp/cc8wPA1B.s:642    .text:000000000000037c .L0 
     /tmp/cc8wPA1B.s:643    .text:000000000000037c .L0 
     /tmp/cc8wPA1B.s:645    .text:0000000000000380 .L0 
     /tmp/cc8wPA1B.s:649    .text:0000000000000388 .L0 
     /tmp/cc8wPA1B.s:651    .text:000000000000038c .L0 
     /tmp/cc8wPA1B.s:652    .text:000000000000038c .L0 
     /tmp/cc8wPA1B.s:655    .text:0000000000000394 .L0 
     /tmp/cc8wPA1B.s:656    .text:0000000000000394 .L0 
     /tmp/cc8wPA1B.s:661    .text:0000000000000398 .L0 
     /tmp/cc8wPA1B.s:662    .text:0000000000000398 .L0 
     /tmp/cc8wPA1B.s:664    .text:00000000000003a0 .L0 
     /tmp/cc8wPA1B.s:665    .text:00000000000003a0 .L0 
     /tmp/cc8wPA1B.s:667    .text:00000000000003a4 .L0 
     /tmp/cc8wPA1B.s:668    .text:00000000000003a4 .L0 
     /tmp/cc8wPA1B.s:670    .text:00000000000003a8 .L0 
     /tmp/cc8wPA1B.s:673    .text:00000000000003ac .L0 
     /tmp/cc8wPA1B.s:676    .text:00000000000003b0 .L0 
     /tmp/cc8wPA1B.s:679    .text:00000000000003b4 .L0 
     /tmp/cc8wPA1B.s:683    .text:00000000000003b8 .L0 
     /tmp/cc8wPA1B.s:687    .text:00000000000003b8 .L0 
     /tmp/cc8wPA1B.s:695    .text:00000000000003c4 .L0 
     /tmp/cc8wPA1B.s:703    .text:00000000000003dc .L0 
     /tmp/cc8wPA1B.s:736    .bss:0000000000000008 _ZN3TCB16timeSliceCounterE
     /tmp/cc8wPA1B.s:732    .bss:0000000000000000 _ZN3TCB7runningE
     /tmp/cc8wPA1B.s:729    .bss:0000000000000000 .LANCHOR0
     /tmp/cc8wPA1B.s:745    .text:00000000000003dc .L0 
     /tmp/cc8wPA1B.s:58     .text:000000000000003c .L0 
     /tmp/cc8wPA1B.s:78     .text:0000000000000054 .L0 
GAS LISTING /tmp/cc8wPA1B.s 			page 23


     /tmp/cc8wPA1B.s:172    .text:00000000000000e4 .L0 
     /tmp/cc8wPA1B.s:231    .text:0000000000000134 .L0 
     /tmp/cc8wPA1B.s:276    .text:0000000000000178 .L0 
     /tmp/cc8wPA1B.s:476    .text:000000000000029c .L0 
     /tmp/cc8wPA1B.s:639    .text:0000000000000370 .L0 
     /tmp/cc8wPA1B.s:99     .text:0000000000000080 .L6
     /tmp/cc8wPA1B.s:72     .text:000000000000004c .L4
     /tmp/cc8wPA1B.s:468    .text:0000000000000294 .L26
     /tmp/cc8wPA1B.s:471    .text:0000000000000298 .L22
     /tmp/cc8wPA1B.s:529    .text:00000000000002f4 .L27
     /tmp/cc8wPA1B.s:507    .text:00000000000002d4 .L21
     /tmp/cc8wPA1B.s:484    .text:00000000000002b4 .L23
     /tmp/cc8wPA1B.s:631    .text:0000000000000368 .L34
     /tmp/cc8wPA1B.s:634    .text:000000000000036c .L31
     /tmp/cc8wPA1B.s:682    .text:00000000000003b8 .L35
     /tmp/cc8wPA1B.s:647    .text:0000000000000388 .L32
     /tmp/cc8wPA1B.s:444    .text:000000000000026c .LEHB0
     /tmp/cc8wPA1B.s:418    .text:0000000000000244 .LFB47
     /tmp/cc8wPA1B.s:447    .text:0000000000000274 .LEHE0
     /tmp/cc8wPA1B.s:463    .text:0000000000000288 .LEHB1
     /tmp/cc8wPA1B.s:466    .text:0000000000000290 .LEHE1
     /tmp/cc8wPA1B.s:536    .text:00000000000002fc .L28
     /tmp/cc8wPA1B.s:502    .text:00000000000002cc .LEHB2
     /tmp/cc8wPA1B.s:505    .text:00000000000002d4 .LEHE2
     /tmp/cc8wPA1B.s:546    .text:0000000000000310 .LEHB3
     /tmp/cc8wPA1B.s:549    .text:0000000000000318 .LEHE3
     /tmp/cc8wPA1B.s:607    .text:0000000000000340 .LEHB4
     /tmp/cc8wPA1B.s:581    .text:0000000000000318 .LFB49
     /tmp/cc8wPA1B.s:610    .text:0000000000000348 .LEHE4
     /tmp/cc8wPA1B.s:626    .text:000000000000035c .LEHB5
     /tmp/cc8wPA1B.s:629    .text:0000000000000364 .LEHE5
     /tmp/cc8wPA1B.s:689    .text:00000000000003c0 .L36
     /tmp/cc8wPA1B.s:699    .text:00000000000003d4 .LEHB6
     /tmp/cc8wPA1B.s:702    .text:00000000000003dc .LEHE6
     /tmp/cc8wPA1B.s:2379   .debug_abbrev:0000000000000000 .Ldebug_abbrev0
     /tmp/cc8wPA1B.s:4063   .debug_str:000000000000088e .LASF159
     /tmp/cc8wPA1B.s:3855   .debug_str:00000000000001d3 .LASF160
     /tmp/cc8wPA1B.s:3877   .debug_str:00000000000002a5 .LASF161
     /tmp/cc8wPA1B.s:5      .text:0000000000000000 .Ltext0
     /tmp/cc8wPA1B.s:739    .text:00000000000003dc .Letext0
     /tmp/cc8wPA1B.s:3789   .debug_line:0000000000000000 .Ldebug_line0
     /tmp/cc8wPA1B.s:3899   .debug_str:0000000000000364 .LASF0
     /tmp/cc8wPA1B.s:3925   .debug_str:000000000000044d .LASF1
     /tmp/cc8wPA1B.s:4013   .debug_str:000000000000071c .LASF2
     /tmp/cc8wPA1B.s:4019   .debug_str:000000000000074c .LASF4
     /tmp/cc8wPA1B.s:3907   .debug_str:0000000000000398 .LASF3
     /tmp/cc8wPA1B.s:3803   .debug_str:000000000000006a .LASF5
     /tmp/cc8wPA1B.s:3983   .debug_str:000000000000062a .LASF6
     /tmp/cc8wPA1B.s:3917   .debug_str:0000000000000419 .LASF7
     /tmp/cc8wPA1B.s:3875   .debug_str:0000000000000295 .LASF8
     /tmp/cc8wPA1B.s:3883   .debug_str:00000000000002eb .LASF9
     /tmp/cc8wPA1B.s:3825   .debug_str:000000000000010c .LASF10
     /tmp/cc8wPA1B.s:3869   .debug_str:0000000000000277 .LASF11
     /tmp/cc8wPA1B.s:3839   .debug_str:0000000000000160 .LASF12
     /tmp/cc8wPA1B.s:3823   .debug_str:00000000000000fc .LASF13
     /tmp/cc8wPA1B.s:4051   .debug_str:000000000000084c .LASF14
     /tmp/cc8wPA1B.s:4053   .debug_str:0000000000000858 .LASF15
GAS LISTING /tmp/cc8wPA1B.s 			page 24


     /tmp/cc8wPA1B.s:4039   .debug_str:00000000000007c4 .LASF16
     /tmp/cc8wPA1B.s:3979   .debug_str:000000000000060e .LASF30
     /tmp/cc8wPA1B.s:3811   .debug_str:0000000000000092 .LASF62
     /tmp/cc8wPA1B.s:3827   .debug_str:000000000000011b .LASF17
     /tmp/cc8wPA1B.s:3809   .debug_str:000000000000008d .LASF18
     /tmp/cc8wPA1B.s:3923   .debug_str:0000000000000448 .LASF19
     /tmp/cc8wPA1B.s:3829   .debug_str:0000000000000120 .LASF20
     /tmp/cc8wPA1B.s:3961   .debug_str:0000000000000591 .LASF21
     /tmp/cc8wPA1B.s:4035   .debug_str:00000000000007ad .LASF22
     /tmp/cc8wPA1B.s:3891   .debug_str:000000000000031c .LASF23
     /tmp/cc8wPA1B.s:3985   .debug_str:000000000000063d .LASF25
     /tmp/cc8wPA1B.s:4069   .debug_str:000000000000096c .LASF24
     /tmp/cc8wPA1B.s:3853   .debug_str:00000000000001b2 .LASF26
     /tmp/cc8wPA1B.s:4107   .debug_str:0000000000000aa8 .LASF84
     /tmp/cc8wPA1B.s:3951   .debug_str:000000000000053a .LASF86
     /tmp/cc8wPA1B.s:3791   .debug_str:0000000000000000 .LASF32
     /tmp/cc8wPA1B.s:3929   .debug_str:0000000000000466 .LASF34
     /tmp/cc8wPA1B.s:4075   .debug_str:000000000000099a .LASF27
     /tmp/cc8wPA1B.s:3909   .debug_str:00000000000003aa .LASF28
     /tmp/cc8wPA1B.s:4059   .debug_str:0000000000000881 .LASF29
     /tmp/cc8wPA1B.s:3873   .debug_str:000000000000028b .LASF31
     /tmp/cc8wPA1B.s:4131   .debug_str:0000000000000b8a .LASF33
     /tmp/cc8wPA1B.s:3817   .debug_str:00000000000000bf .LASF35
     /tmp/cc8wPA1B.s:3795   .debug_str:000000000000000c .LASF36
     /tmp/cc8wPA1B.s:3977   .debug_str:00000000000005fb .LASF37
     /tmp/cc8wPA1B.s:4033   .debug_str:000000000000079c .LASF38
     /tmp/cc8wPA1B.s:3837   .debug_str:0000000000000157 .LASF39
     /tmp/cc8wPA1B.s:4117   .debug_str:0000000000000aeb .LASF40
     /tmp/cc8wPA1B.s:4123   .debug_str:0000000000000b2d .LASF162
     /tmp/cc8wPA1B.s:3893   .debug_str:0000000000000322 .LASF163
     /tmp/cc8wPA1B.s:4111   .debug_str:0000000000000ac4 .LASF41
     /tmp/cc8wPA1B.s:3915   .debug_str:00000000000003fc .LASF42
     /tmp/cc8wPA1B.s:4095   .debug_str:0000000000000a65 .LASF43
     /tmp/cc8wPA1B.s:4085   .debug_str:00000000000009e9 .LASF164
     /tmp/cc8wPA1B.s:4043   .debug_str:00000000000007ed .LASF44
     /tmp/cc8wPA1B.s:3953   .debug_str:0000000000000566 .LASF45
     /tmp/cc8wPA1B.s:4041   .debug_str:00000000000007da .LASF46
     /tmp/cc8wPA1B.s:3867   .debug_str:0000000000000260 .LASF54
     /tmp/cc8wPA1B.s:4015   .debug_str:000000000000072a .LASF165
     /tmp/cc8wPA1B.s:4007   .debug_str:00000000000006f1 .LASF166
     /tmp/cc8wPA1B.s:3991   .debug_str:0000000000000685 .LASF47
     /tmp/cc8wPA1B.s:3963   .debug_str:0000000000000596 .LASF48
     /tmp/cc8wPA1B.s:3921   .debug_str:000000000000043f .LASF49
     /tmp/cc8wPA1B.s:3821   .debug_str:00000000000000df .LASF50
     /tmp/cc8wPA1B.s:3939   .debug_str:00000000000004cb .LASF51
     /tmp/cc8wPA1B.s:3859   .debug_str:0000000000000205 .LASF52
     /tmp/cc8wPA1B.s:3981   .debug_str:000000000000061e .LASF53
     /tmp/cc8wPA1B.s:4097   .debug_str:0000000000000a6f .LASF55
     /tmp/cc8wPA1B.s:4137   .debug_str:0000000000000baa .LASF56
     /tmp/cc8wPA1B.s:4125   .debug_str:0000000000000b41 .LASF57
     /tmp/cc8wPA1B.s:4031   .debug_str:0000000000000791 .LASF58
     /tmp/cc8wPA1B.s:3949   .debug_str:000000000000051d .LASF59
     /tmp/cc8wPA1B.s:4003   .debug_str:00000000000006e3 .LASF60
     /tmp/cc8wPA1B.s:3797   .debug_str:000000000000001c .LASF61
     /tmp/cc8wPA1B.s:4055   .debug_str:000000000000086e .LASF63
     /tmp/cc8wPA1B.s:3819   .debug_str:00000000000000d1 .LASF97
     /tmp/cc8wPA1B.s:3933   .debug_str:0000000000000491 .LASF99
GAS LISTING /tmp/cc8wPA1B.s 			page 25


     /tmp/cc8wPA1B.s:3835   .debug_str:000000000000014b .LASF90
     /tmp/cc8wPA1B.s:4021   .debug_str:0000000000000753 .LASF64
     /tmp/cc8wPA1B.s:3801   .debug_str:000000000000005e .LASF65
     /tmp/cc8wPA1B.s:4057   .debug_str:0000000000000876 .LASF66
     /tmp/cc8wPA1B.s:3957   .debug_str:0000000000000572 .LASF67
     /tmp/cc8wPA1B.s:3815   .debug_str:00000000000000b3 .LASF68
     /tmp/cc8wPA1B.s:4077   .debug_str:000000000000099f .LASF69
     /tmp/cc8wPA1B.s:3931   .debug_str:0000000000000484 .LASF70
     /tmp/cc8wPA1B.s:4089   .debug_str:0000000000000a12 .LASF71
     /tmp/cc8wPA1B.s:3973   .debug_str:00000000000005e5 .LASF167
     /tmp/cc8wPA1B.s:3997   .debug_str:00000000000006b4 .LASF72
     /tmp/cc8wPA1B.s:3945   .debug_str:00000000000004f5 .LASF73
     /tmp/cc8wPA1B.s:3955   .debug_str:000000000000056b .LASF74
     /tmp/cc8wPA1B.s:3807   .debug_str:000000000000007c .LASF75
     /tmp/cc8wPA1B.s:3879   .debug_str:00000000000002c3 .LASF76
     /tmp/cc8wPA1B.s:3943   .debug_str:00000000000004e8 .LASF77
     /tmp/cc8wPA1B.s:4049   .debug_str:000000000000083f .LASF78
     /tmp/cc8wPA1B.s:4091   .debug_str:0000000000000a2b .LASF79
     /tmp/cc8wPA1B.s:3857   .debug_str:00000000000001df .LASF80
     /tmp/cc8wPA1B.s:4045   .debug_str:00000000000007f2 .LASF81
     /tmp/cc8wPA1B.s:3863   .debug_str:000000000000023c .LASF82
     /tmp/cc8wPA1B.s:4071   .debug_str:0000000000000976 .LASF83
     /tmp/cc8wPA1B.s:3927   .debug_str:0000000000000460 .LASF85
     /tmp/cc8wPA1B.s:4065   .debug_str:0000000000000952 .LASF87
     /tmp/cc8wPA1B.s:4127   .debug_str:0000000000000b5c .LASF88
     /tmp/cc8wPA1B.s:4119   .debug_str:0000000000000afd .LASF89
     /tmp/cc8wPA1B.s:4061   .debug_str:0000000000000886 .LASF168
     /tmp/cc8wPA1B.s:3993   .debug_str:0000000000000698 .LASF91
     /tmp/cc8wPA1B.s:3793   .debug_str:0000000000000007 .LASF92
     /tmp/cc8wPA1B.s:3847   .debug_str:000000000000019d .LASF93
     /tmp/cc8wPA1B.s:4073   .debug_str:0000000000000992 .LASF94
     /tmp/cc8wPA1B.s:4067   .debug_str:0000000000000962 .LASF95
     /tmp/cc8wPA1B.s:4037   .debug_str:00000000000007bb .LASF96
     /tmp/cc8wPA1B.s:3841   .debug_str:0000000000000170 .LASF169
     /tmp/cc8wPA1B.s:3799   .debug_str:0000000000000036 .LASF170
     /tmp/cc8wPA1B.s:3849   .debug_str:00000000000001a3 .LASF98
     /tmp/cc8wPA1B.s:3913   .debug_str:00000000000003e9 .LASF100
     /tmp/cc8wPA1B.s:3937   .debug_str:00000000000004b2 .LASF101
     /tmp/cc8wPA1B.s:4087   .debug_str:00000000000009ee .LASF102
     /tmp/cc8wPA1B.s:4133   .debug_str:0000000000000b97 .LASF103
     /tmp/cc8wPA1B.s:3989   .debug_str:000000000000066f .LASF104
     /tmp/cc8wPA1B.s:4029   .debug_str:0000000000000780 .LASF105
     /tmp/cc8wPA1B.s:4005   .debug_str:00000000000006ec .LASF106
     /tmp/cc8wPA1B.s:4099   .debug_str:0000000000000a8d .LASF107
     /tmp/cc8wPA1B.s:3887   .debug_str:000000000000030b .LASF108
     /tmp/cc8wPA1B.s:3897   .debug_str:000000000000034c .LASF109
     /tmp/cc8wPA1B.s:4027   .debug_str:0000000000000772 .LASF110
     /tmp/cc8wPA1B.s:3861   .debug_str:0000000000000221 .LASF111
     /tmp/cc8wPA1B.s:3901   .debug_str:0000000000000371 .LASF112
     /tmp/cc8wPA1B.s:4093   .debug_str:0000000000000a4b .LASF113
     /tmp/cc8wPA1B.s:4081   .debug_str:00000000000009c5 .LASF114
     /tmp/cc8wPA1B.s:3941   .debug_str:00000000000004d3 .LASF118
     /tmp/cc8wPA1B.s:4009   .debug_str:0000000000000708 .LASF115
     /tmp/cc8wPA1B.s:3969   .debug_str:00000000000005c5 .LASF116
     /tmp/cc8wPA1B.s:3995   .debug_str:00000000000006ad .LASF117
     /tmp/cc8wPA1B.s:3999   .debug_str:00000000000006bc .LASF119
     /tmp/cc8wPA1B.s:3965   .debug_str:00000000000005aa .LASF120
GAS LISTING /tmp/cc8wPA1B.s 			page 26


     /tmp/cc8wPA1B.s:3919   .debug_str:000000000000042c .LASF121
     /tmp/cc8wPA1B.s:4109   .debug_str:0000000000000abc .LASF122
     /tmp/cc8wPA1B.s:4047   .debug_str:000000000000082b .LASF123
     /tmp/cc8wPA1B.s:3959   .debug_str:0000000000000589 .LASF124
     /tmp/cc8wPA1B.s:3967   .debug_str:00000000000005b1 .LASF125
     /tmp/cc8wPA1B.s:3935   .debug_str:00000000000004aa .LASF126
     /tmp/cc8wPA1B.s:4001   .debug_str:00000000000006cf .LASF127
     /tmp/cc8wPA1B.s:4135   .debug_str:0000000000000ba2 .LASF128
     /tmp/cc8wPA1B.s:3905   .debug_str:0000000000000384 .LASF129
     /tmp/cc8wPA1B.s:3843   .debug_str:000000000000017e .LASF130
     /tmp/cc8wPA1B.s:4023   .debug_str:0000000000000758 .LASF131
     /tmp/cc8wPA1B.s:4025   .debug_str:000000000000076b .LASF132
     /tmp/cc8wPA1B.s:3833   .debug_str:0000000000000138 .LASF133
     /tmp/cc8wPA1B.s:3851   .debug_str:00000000000001ac .LASF134
     /tmp/cc8wPA1B.s:3895   .debug_str:000000000000033a .LASF135
     /tmp/cc8wPA1B.s:3903   .debug_str:000000000000037e .LASF136
     /tmp/cc8wPA1B.s:3885   .debug_str:00000000000002f9 .LASF137
     /tmp/cc8wPA1B.s:3805   .debug_str:0000000000000071 .LASF138
     /tmp/cc8wPA1B.s:4017   .debug_str:0000000000000734 .LASF139
     /tmp/cc8wPA1B.s:4011   .debug_str:0000000000000711 .LASF140
     /tmp/cc8wPA1B.s:4129   .debug_str:0000000000000b72 .LASF141
     /tmp/cc8wPA1B.s:4101   .debug_str:0000000000000a93 .LASF142
     /tmp/cc8wPA1B.s:4113   .debug_str:0000000000000ad0 .LASF143
     /tmp/cc8wPA1B.s:3831   .debug_str:000000000000012e .LASF144
     /tmp/cc8wPA1B.s:3947   .debug_str:0000000000000507 .LASF145
     /tmp/cc8wPA1B.s:4105   .debug_str:0000000000000aa3 .LASF146
     /tmp/cc8wPA1B.s:3975   .debug_str:00000000000005ea .LASF147
     /tmp/cc8wPA1B.s:4079   .debug_str:00000000000009b6 .LASF148
     /tmp/cc8wPA1B.s:3881   .debug_str:00000000000002cf .LASF149
     /tmp/cc8wPA1B.s:3987   .debug_str:000000000000065a .LASF150
     /tmp/cc8wPA1B.s:3911   .debug_str:00000000000003c7 .LASF151
     /tmp/cc8wPA1B.s:3813   .debug_str:00000000000000a2 .LASF152
     /tmp/cc8wPA1B.s:4083   .debug_str:00000000000009ce .LASF153
     /tmp/cc8wPA1B.s:384    .text:0000000000000218 .LFB57
     /tmp/cc8wPA1B.s:412    .text:0000000000000244 .LFE57
     /tmp/cc8wPA1B.s:3434   .debug_loc:0000000000000000 .LLST9
     /tmp/cc8wPA1B.s:401    .text:0000000000000234 .LVL31
     /tmp/cc8wPA1B.s:351    .text:00000000000001f0 .LFB56
     /tmp/cc8wPA1B.s:378    .text:0000000000000218 .LFE56
     /tmp/cc8wPA1B.s:3448   .debug_loc:0000000000000039 .LLST8
     /tmp/cc8wPA1B.s:366    .text:0000000000000208 .LVL28
     /tmp/cc8wPA1B.s:259    .text:0000000000000160 .LFB55
     /tmp/cc8wPA1B.s:306    .text:00000000000001b8 .LFE55
     /tmp/cc8wPA1B.s:3462   .debug_loc:0000000000000072 .LLST7
     /tmp/cc8wPA1B.s:282    .text:000000000000018c .LVL21
     /tmp/cc8wPA1B.s:290    .text:00000000000001a0 .LVL22
     /tmp/cc8wPA1B.s:214    .text:0000000000000124 .LFB54
     /tmp/cc8wPA1B.s:253    .text:0000000000000160 .LFE54
     /tmp/cc8wPA1B.s:227    .text:0000000000000134 .LBB18
     /tmp/cc8wPA1B.s:236    .text:0000000000000144 .LBE18
     /tmp/cc8wPA1B.s:3469   .debug_loc:0000000000000095 .LLST5
     /tmp/cc8wPA1B.s:3477   .debug_loc:00000000000000b9 .LLST6
     /tmp/cc8wPA1B.s:240    .text:000000000000014c .LVL19
     /tmp/cc8wPA1B.s:153    .text:00000000000000c8 .LFB53
     /tmp/cc8wPA1B.s:208    .text:0000000000000124 .LFE53
     /tmp/cc8wPA1B.s:183    .text:0000000000000100 .LBB16
     /tmp/cc8wPA1B.s:191    .text:0000000000000108 .LBE16
GAS LISTING /tmp/cc8wPA1B.s 			page 27


     /tmp/cc8wPA1B.s:3485   .debug_loc:00000000000000e4 .LLST3
     /tmp/cc8wPA1B.s:3493   .debug_loc:0000000000000108 .LLST4
     /tmp/cc8wPA1B.s:169    .text:00000000000000e4 .LVL12
     /tmp/cc8wPA1B.s:195    .text:0000000000000110 .LVL16
     /tmp/cc8wPA1B.s:43     .text:0000000000000028 .LFB52
     /tmp/cc8wPA1B.s:108    .text:0000000000000090 .LFE52
     /tmp/cc8wPA1B.s:3500   .debug_loc:000000000000012b .LLST1
     /tmp/cc8wPA1B.s:61     .text:0000000000000044 .LBB14
     /tmp/cc8wPA1B.s:69     .text:0000000000000048 .LBE14
     /tmp/cc8wPA1B.s:3511   .debug_loc:0000000000000161 .LLST2
     /tmp/cc8wPA1B.s:76     .text:0000000000000054 .LVL4
     /tmp/cc8wPA1B.s:84     .text:000000000000006c .LVL5
     /tmp/cc8wPA1B.s:105    .text:000000000000008c .LVL8
     /tmp/cc8wPA1B.s:312    .text:00000000000001b8 .LFB51
     /tmp/cc8wPA1B.s:345    .text:00000000000001f0 .LFE51
     /tmp/cc8wPA1B.s:326    .text:00000000000001d0 .LVL24
     /tmp/cc8wPA1B.s:330    .text:00000000000001d8 .LVL25
     /tmp/cc8wPA1B.s:334    .text:00000000000001e0 .LVL26
     /tmp/cc8wPA1B.s:114    .text:0000000000000090 .LFB50
     /tmp/cc8wPA1B.s:147    .text:00000000000000c8 .LFE50
     /tmp/cc8wPA1B.s:128    .text:00000000000000a8 .LVL9
     /tmp/cc8wPA1B.s:132    .text:00000000000000b0 .LVL10
     /tmp/cc8wPA1B.s:136    .text:00000000000000b8 .LVL11
     /tmp/cc8wPA1B.s:704    .text:00000000000003dc .LFE49
     /tmp/cc8wPA1B.s:3518   .debug_loc:0000000000000184 .LLST17
     /tmp/cc8wPA1B.s:3547   .debug_loc:00000000000001f9 .LLST18
     /tmp/cc8wPA1B.s:3569   .debug_loc:0000000000000258 .LLST19
     /tmp/cc8wPA1B.s:613    .text:000000000000034c .LBB24
     /tmp/cc8wPA1B.s:3775   .debug_ranges:0000000000000000 .Ldebug_ranges0
     /tmp/cc8wPA1B.s:3580   .debug_loc:000000000000028e .LLST20
     /tmp/cc8wPA1B.s:3593   .debug_loc:00000000000002c6 .LLST21
     /tmp/cc8wPA1B.s:3604   .debug_loc:00000000000002fc .LLST22
     /tmp/cc8wPA1B.s:3622   .debug_loc:0000000000000348 .LLST23
     /tmp/cc8wPA1B.s:628    .text:0000000000000364 .LVL50
     /tmp/cc8wPA1B.s:609    .text:0000000000000348 .LVL48
     /tmp/cc8wPA1B.s:697    .text:00000000000003d0 .LVL57
     /tmp/cc8wPA1B.s:701    .text:00000000000003dc .LVL58
     /tmp/cc8wPA1B.s:10     .text:0000000000000000 .LFB48
     /tmp/cc8wPA1B.s:37     .text:0000000000000028 .LFE48
     /tmp/cc8wPA1B.s:3633   .debug_loc:000000000000037e .LLST0
     /tmp/cc8wPA1B.s:26     .text:0000000000000018 .LVL1
     /tmp/cc8wPA1B.s:551    .text:0000000000000318 .LFE47
     /tmp/cc8wPA1B.s:3647   .debug_loc:00000000000003b7 .LLST10
     /tmp/cc8wPA1B.s:3676   .debug_loc:000000000000042c .LLST11
     /tmp/cc8wPA1B.s:3698   .debug_loc:000000000000048b .LLST12
     /tmp/cc8wPA1B.s:450    .text:0000000000000278 .LBB20
     /tmp/cc8wPA1B.s:3709   .debug_loc:00000000000004c1 .LLST13
     /tmp/cc8wPA1B.s:3722   .debug_loc:00000000000004f9 .LLST14
     /tmp/cc8wPA1B.s:3733   .debug_loc:000000000000052f .LLST15
     /tmp/cc8wPA1B.s:3751   .debug_loc:000000000000057b .LLST16
     /tmp/cc8wPA1B.s:465    .text:0000000000000290 .LVL36
     /tmp/cc8wPA1B.s:446    .text:0000000000000274 .LVL34
     /tmp/cc8wPA1B.s:504    .text:00000000000002d4 .LVL38
     /tmp/cc8wPA1B.s:544    .text:000000000000030c .LVL44
     /tmp/cc8wPA1B.s:548    .text:0000000000000318 .LVL45
     /tmp/cc8wPA1B.s:3871   .debug_str:0000000000000286 .LASF157
     /tmp/cc8wPA1B.s:4103   .debug_str:0000000000000a9d .LASF154
GAS LISTING /tmp/cc8wPA1B.s 			page 28


     /tmp/cc8wPA1B.s:4115   .debug_str:0000000000000ae6 .LASF155
     /tmp/cc8wPA1B.s:3971   .debug_str:00000000000005da .LASF156
     /tmp/cc8wPA1B.s:3865   .debug_str:000000000000024b .LASF171
     /tmp/cc8wPA1B.s:3889   .debug_str:0000000000000316 .LASF158
     /tmp/cc8wPA1B.s:4121   .debug_str:0000000000000b1e .LASF172
     /tmp/cc8wPA1B.s:3845   .debug_str:0000000000000185 .LASF173
     /tmp/cc8wPA1B.s:387    .text:0000000000000218 .LVL29
     /tmp/cc8wPA1B.s:399    .text:000000000000022c .LVL30
     /tmp/cc8wPA1B.s:354    .text:00000000000001f0 .LVL27
     /tmp/cc8wPA1B.s:278    .text:0000000000000184 .LVL20
     /tmp/cc8wPA1B.s:301    .text:00000000000001b0 .LVL23
     /tmp/cc8wPA1B.s:226    .text:0000000000000134 .LVL17
     /tmp/cc8wPA1B.s:234    .text:0000000000000144 .LVL18
     /tmp/cc8wPA1B.s:182    .text:0000000000000100 .LVL14
     /tmp/cc8wPA1B.s:189    .text:0000000000000108 .LVL15
     /tmp/cc8wPA1B.s:59     .text:0000000000000044 .LVL2
     /tmp/cc8wPA1B.s:94     .text:0000000000000078 .LVL6
     /tmp/cc8wPA1B.s:98     .text:0000000000000080 .LVL7
     /tmp/cc8wPA1B.s:67     .text:0000000000000048 .LVL3
     /tmp/cc8wPA1B.s:586    .text:0000000000000318 .LVL46
     /tmp/cc8wPA1B.s:606    .text:0000000000000340 .LVL47
     /tmp/cc8wPA1B.s:674    .text:00000000000003ac .LVL53
     /tmp/cc8wPA1B.s:681    .text:00000000000003b8 .LVL55
     /tmp/cc8wPA1B.s:691    .text:00000000000003c4 .LVL56
     /tmp/cc8wPA1B.s:677    .text:00000000000003b0 .LVL54
     /tmp/cc8wPA1B.s:657    .text:0000000000000398 .LVL51
     /tmp/cc8wPA1B.s:671    .text:00000000000003a8 .LVL52
     /tmp/cc8wPA1B.s:612    .text:000000000000034c .LVL49
     /tmp/cc8wPA1B.s:14     .text:0000000000000000 .LVL0
     /tmp/cc8wPA1B.s:423    .text:0000000000000244 .LVL32
     /tmp/cc8wPA1B.s:443    .text:000000000000026c .LVL33
     /tmp/cc8wPA1B.s:521    .text:00000000000002e8 .LVL40
     /tmp/cc8wPA1B.s:528    .text:00000000000002f4 .LVL42
     /tmp/cc8wPA1B.s:538    .text:0000000000000300 .LVL43
     /tmp/cc8wPA1B.s:524    .text:00000000000002ec .LVL41
     /tmp/cc8wPA1B.s:494    .text:00000000000002c4 .LVL37
     /tmp/cc8wPA1B.s:518    .text:00000000000002e4 .LVL39
     /tmp/cc8wPA1B.s:449    .text:0000000000000278 .LVL35
     /tmp/cc8wPA1B.s:746    .debug_info:0000000000000000 .Ldebug_info0
     /tmp/cc8wPA1B.s:496    .text:00000000000002c4 .LBE20
     /tmp/cc8wPA1B.s:531    .text:00000000000002f4 .LBB23
     /tmp/cc8wPA1B.s:540    .text:0000000000000300 .LBE23
     /tmp/cc8wPA1B.s:659    .text:0000000000000398 .LBE24
     /tmp/cc8wPA1B.s:684    .text:00000000000003b8 .LBB27
     /tmp/cc8wPA1B.s:693    .text:00000000000003c4 .LBE27
     /tmp/cc8wPA1B.s:554    .gcc_except_table:0000000000000000 .LLSDA47
     /tmp/cc8wPA1B.s:706    .gcc_except_table:0000000000000038 .LLSDA49

UNDEFINED SYMBOLS
_ZN9Scheduler3putEP3TCB
_ZN9Scheduler3getEv
_ZN3TCB13contextSwitchEPNS_7ContextES1_
_ZN5Riscv13pushRegistersEv
_ZN5Riscv12popRegistersEv
_ZN5Riscv10popSppSpieEv
_ZN15MemoryAllocator4freeEPv
_ZN15MemoryAllocator6mallocEm
GAS LISTING /tmp/cc8wPA1B.s 			page 29


_Unwind_Resume
__gxx_personality_v0
