GAS LISTING /tmp/ccKJN2oy.s 			page 1


   1              		.file	"TCB.cpp"
   2              		.option pic
   3              		.option norelax
   4              		.text
   5              	.Ltext0:
   6              		.align	2
   8              	_Z41__static_initialization_and_destruction_0ii:
   9              	.LFB67:
  10              		.file 1 "src/TCB.cpp"
   1:src/TCB.cpp   **** 
   2:src/TCB.cpp   **** #include "../h/TCB.hpp"
   3:src/TCB.cpp   **** #include "../h/riscv.hpp"
   4:src/TCB.cpp   **** 
   5:src/TCB.cpp   **** TCB *TCB::running = nullptr;
   6:src/TCB.cpp   **** Ksemaphore* TCB::semWaitAllThreads = Ksemaphore::createSemaphore(0);
   7:src/TCB.cpp   **** 
   8:src/TCB.cpp   **** uint64 TCB::timeSliceCounter = 0;
   9:src/TCB.cpp   **** 
  10:src/TCB.cpp   **** uint64 TCB::threadId=0;
  11:src/TCB.cpp   **** 
  12:src/TCB.cpp   **** TCB *TCB::createThread(Body body, void* arg)
  13:src/TCB.cpp   **** {
  14:src/TCB.cpp   ****     TCB* t = (TCB*)new TCB(body, arg, DEFAULT_TIME_SLICE);
  15:src/TCB.cpp   ****     t->sem = Ksemaphore::createSemaphore(0);
  16:src/TCB.cpp   **** 
  17:src/TCB.cpp   ****     if (body != nullptr) {
  18:src/TCB.cpp   ****         Scheduler::put(t);
  19:src/TCB.cpp   ****     }
  20:src/TCB.cpp   ****     return t;
  21:src/TCB.cpp   **** }
  22:src/TCB.cpp   **** 
  23:src/TCB.cpp   **** void TCB::putInScheduler(TCB *tcb) {
  24:src/TCB.cpp   ****     Scheduler::put(tcb);
  25:src/TCB.cpp   **** }
  26:src/TCB.cpp   **** 
  27:src/TCB.cpp   **** TCB *TCB::createThreadWithoutPuttingInScheduler(Body body, void* arg)
  28:src/TCB.cpp   **** {
  29:src/TCB.cpp   ****     TCB* t = (TCB*)new TCB(body, arg, DEFAULT_TIME_SLICE);
  30:src/TCB.cpp   ****         return t;
  31:src/TCB.cpp   **** }
  32:src/TCB.cpp   **** 
  33:src/TCB.cpp   **** void TCB::yield()
  34:src/TCB.cpp   **** {
  35:src/TCB.cpp   ****     Riscv::pushRegisters();
  36:src/TCB.cpp   ****     TCB::dispatch();
  37:src/TCB.cpp   ****     Riscv::popRegisters();
  38:src/TCB.cpp   **** }
  39:src/TCB.cpp   **** void TCB::yieldWithoutScheduler()
  40:src/TCB.cpp   **** {
  41:src/TCB.cpp   ****     Riscv::pushRegisters();
  42:src/TCB.cpp   ****     TCB::dispatchWithoutScheduler();
  43:src/TCB.cpp   ****     Riscv::popRegisters();
  44:src/TCB.cpp   **** }
  45:src/TCB.cpp   **** 
  46:src/TCB.cpp   **** void TCB::dispatch()
  47:src/TCB.cpp   **** {
  48:src/TCB.cpp   **** //    TCB *old = running;
GAS LISTING /tmp/ccKJN2oy.s 			page 2


  49:src/TCB.cpp   **** //    if(old!= nullptr) {
  50:src/TCB.cpp   **** //        if (!old->isFinished()) { Scheduler::put(old); }
  51:src/TCB.cpp   **** //    }
  52:src/TCB.cpp   **** //    running = Scheduler::get();
  53:src/TCB.cpp   **** //    if(old== nullptr){
  54:src/TCB.cpp   **** //        old=running;
  55:src/TCB.cpp   **** //        return;
  56:src/TCB.cpp   **** //    }
  57:src/TCB.cpp   ****     TCB *old = running;
  58:src/TCB.cpp   ****     if (!old->isFinished()) { Scheduler::put(old); }
  59:src/TCB.cpp   ****     running = Scheduler::get();
  60:src/TCB.cpp   **** 
  61:src/TCB.cpp   ****     TCB::contextSwitch(&old->context, &running->context);
  62:src/TCB.cpp   **** }
  63:src/TCB.cpp   **** 
  64:src/TCB.cpp   **** 
  65:src/TCB.cpp   **** void TCB::threadWrapper(){
  66:src/TCB.cpp   ****     Riscv::popSppSpie();
  67:src/TCB.cpp   ****     running->body(running->arg);
  68:src/TCB.cpp   ****     running->setFinished(true);
  69:src/TCB.cpp   **** //    while(!running->sem->semEmpty()) {
  70:src/TCB.cpp   **** //        running->sem->signal();
  71:src/TCB.cpp   **** //    }
  72:src/TCB.cpp   **** //    TCB::yield();
  73:src/TCB.cpp   **** //    TCB::dispatch();
  74:src/TCB.cpp   ****     __asm__ volatile ("li a0, 0x13");
  75:src/TCB.cpp   ****     __asm__ volatile ("ecall");
  76:src/TCB.cpp   **** 
  77:src/TCB.cpp   **** }
  78:src/TCB.cpp   **** 
  79:src/TCB.cpp   **** int TCB::exitThread() {
  80:src/TCB.cpp   ****     running->setFinished(true);
  81:src/TCB.cpp   ****     dispatch();
  82:src/TCB.cpp   **** //    TCB *old = running;
  83:src/TCB.cpp   **** //    running = Scheduler::get();
  84:src/TCB.cpp   **** //    timeSliceCounter=0;
  85:src/TCB.cpp   **** //    TCB::contextSwitch(&old->context, &running->context);
  86:src/TCB.cpp   **** //    if (running== nullptr)return -1;
  87:src/TCB.cpp   ****     return 0;
  88:src/TCB.cpp   **** }
  89:src/TCB.cpp   **** 
  90:src/TCB.cpp   **** 
  91:src/TCB.cpp   **** void TCB::dispatchWithoutScheduler(){
  92:src/TCB.cpp   ****     TCB *old = running;
  93:src/TCB.cpp   ****     running = Scheduler::get();
  94:src/TCB.cpp   ****     TCB::contextSwitch(&old->context, &running->context);
  95:src/TCB.cpp   **** }
  96:src/TCB.cpp   **** 
  97:src/TCB.cpp   **** void TCB::join() {
  98:src/TCB.cpp   ****     sem->wait();
  99:src/TCB.cpp   **** }
 100:src/TCB.cpp   **** 
 101:src/TCB.cpp   **** void TCB::operator delete(void *p) {
 102:src/TCB.cpp   ****     MemoryAllocator::free(p);
 103:src/TCB.cpp   ****     return;
 104:src/TCB.cpp   **** 
 105:src/TCB.cpp   **** }
GAS LISTING /tmp/ccKJN2oy.s 			page 3


 106:src/TCB.cpp   **** 
 107:src/TCB.cpp   **** void *TCB::operator new(size_t n) {
 108:src/TCB.cpp   ****     return MemoryAllocator::malloc(sizeof (TCB));
 109:src/TCB.cpp   **** 
 110:src/TCB.cpp   **** }
 111:src/TCB.cpp   **** 
 112:src/TCB.cpp   **** void TCB::kill(TCB* t) {
 113:src/TCB.cpp   ****     TCB* tmp;
 114:src/TCB.cpp   ****     while((tmp=Scheduler::get())!=t){
 115:src/TCB.cpp   ****         Scheduler::put(tmp);
 116:src/TCB.cpp   ****     }
 117:src/TCB.cpp   ****     tmp->setFinished(true);
 118:src/TCB.cpp   **** 
 119:src/TCB.cpp   **** 
 120:src/TCB.cpp   **** }
  11              		.loc 1 120 1
  12              		.cfi_startproc
  13              	.LVL0:
  14 0000 93071000 		li	a5,1
  15 0004 6304F500 		beq	a0,a5,.L7
  16              	.L4:
  17 0008 67800000 		ret
  18              	.L7:
  19              		.loc 1 120 1 is_stmt 0 discriminator 1
  20 000c B7070100 		li	a5,65536
  21 0010 9387F7FF 		addi	a5,a5,-1
  22 0014 E39AF5FE 		bne	a1,a5,.L4
  23              		.loc 1 120 1
  24 0018 130101FF 		addi	sp,sp,-16
  25              		.cfi_def_cfa_offset 16
  26 001c 23341100 		sd	ra,8(sp)
  27 0020 23308100 		sd	s0,0(sp)
  28              		.cfi_offset 1, -8
  29              		.cfi_offset 8, -16
  30 0024 13040101 		addi	s0,sp,16
  31              		.cfi_def_cfa 8, 0
   6:src/TCB.cpp   **** 
  32              		.loc 1 6 65
  33 0028 13050000 		li	a0,0
  34              	.LVL1:
  35 002c 97000000 		call	_ZN10Ksemaphore15createSemaphoreEj@plt
  35      E7800000 
  36              	.LVL2:
   6:src/TCB.cpp   **** 
  37              		.loc 1 6 13
  38 0034 97070000 		sd	a0,.LANCHOR0,a5
  38      23B0A700 
  39              		.loc 1 120 1
  40 003c 83308100 		ld	ra,8(sp)
  41              		.cfi_restore 1
  42 0040 03340100 		ld	s0,0(sp)
  43              		.cfi_restore 8
  44              		.cfi_def_cfa 2, 16
  45 0044 13010101 		addi	sp,sp,16
  46              		.cfi_def_cfa_offset 0
  47 0048 67800000 		jr	ra
  48              		.cfi_endproc
GAS LISTING /tmp/ccKJN2oy.s 			page 4


  49              	.LFE67:
  51              		.align	2
  52              		.globl	_ZN3TCB13threadWrapperEv
  54              	_ZN3TCB13threadWrapperEv:
  55              	.LFB56:
  65:src/TCB.cpp   ****     Riscv::popSppSpie();
  56              		.loc 1 65 26 is_stmt 1
  57              		.cfi_startproc
  58 004c 130101FE 		addi	sp,sp,-32
  59              		.cfi_def_cfa_offset 32
  60 0050 233C1100 		sd	ra,24(sp)
  61 0054 23388100 		sd	s0,16(sp)
  62 0058 23349100 		sd	s1,8(sp)
  63              		.cfi_offset 1, -8
  64              		.cfi_offset 8, -16
  65              		.cfi_offset 9, -24
  66 005c 13040102 		addi	s0,sp,32
  67              		.cfi_def_cfa 8, 0
  66:src/TCB.cpp   ****     running->body(running->arg);
  68              		.loc 1 66 5
  66:src/TCB.cpp   ****     running->body(running->arg);
  69              		.loc 1 66 22 is_stmt 0
  70 0060 97000000 		call	_ZN5Riscv10popSppSpieEv@plt
  70      E7800000 
  71              	.LVL3:
  67:src/TCB.cpp   ****     running->setFinished(true);
  72              		.loc 1 67 5 is_stmt 1
  67:src/TCB.cpp   ****     running->setFinished(true);
  73              		.loc 1 67 14 is_stmt 0
  74 0068 97040000 		lla	s1,.LANCHOR0
  74      93840400 
  75 0070 83B78400 		ld	a5,8(s1)
  76 0074 03B78700 		ld	a4,8(a5)
  67:src/TCB.cpp   ****     running->setFinished(true);
  77              		.loc 1 67 18
  78 0078 03B50701 		ld	a0,16(a5)
  79 007c E7000700 		jalr	a4
  80              	.LVL4:
  68:src/TCB.cpp   **** //    while(!running->sem->semEmpty()) {
  81              		.loc 1 68 5 is_stmt 1
  68:src/TCB.cpp   **** //    while(!running->sem->semEmpty()) {
  82              		.loc 1 68 25 is_stmt 0
  83 0080 83B78400 		ld	a5,8(s1)
  84              	.LVL5:
  85              	.LBB10:
  86              	.LBB11:
  87              		.file 2 "src/../h/TCB.hpp"
   1:src/../h/TCB.hpp **** #ifndef PROJECT_BASE_TCB_HPP
   2:src/../h/TCB.hpp **** #define PROJECT_BASE_TCB_HPP
   3:src/../h/TCB.hpp **** 
   4:src/../h/TCB.hpp **** #include "../lib/hw.h"
   5:src/../h/TCB.hpp **** #include "scheduler.hpp"
   6:src/../h/TCB.hpp **** #include "MemoryAllocator.hpp"
   7:src/../h/TCB.hpp **** 
   8:src/../h/TCB.hpp **** 
   9:src/../h/TCB.hpp **** 
  10:src/../h/TCB.hpp **** typedef TCB* thread_t;
GAS LISTING /tmp/ccKJN2oy.s 			page 5


  11:src/../h/TCB.hpp **** 
  12:src/../h/TCB.hpp **** 
  13:src/../h/TCB.hpp **** class TCB
  14:src/../h/TCB.hpp **** {
  15:src/../h/TCB.hpp **** 
  16:src/../h/TCB.hpp ****     static void threadWrapper();
  17:src/../h/TCB.hpp **** public:
  18:src/../h/TCB.hpp ****     using Body = void (*)(void*);
  19:src/../h/TCB.hpp ****     TCB();
  20:src/../h/TCB.hpp **** 
  21:src/../h/TCB.hpp ****     ~TCB() { delete[] stack; }
  22:src/../h/TCB.hpp **** 
  23:src/../h/TCB.hpp ****     bool isFinished() const { return finished; }
  24:src/../h/TCB.hpp **** 
  25:src/../h/TCB.hpp **** 
  26:src/../h/TCB.hpp ****     void setFinished(bool value) { finished = value; }
  88              		.loc 2 26 36 is_stmt 1
  89              		.loc 2 26 45 is_stmt 0
  90 0084 13071000 		li	a4,1
  91 0088 238CE702 		sb	a4,56(a5)
  92              	.LVL6:
  93              	.LBE11:
  94              	.LBE10:
  74:src/TCB.cpp   ****     __asm__ volatile ("ecall");
  95              		.loc 1 74 5 is_stmt 1
  74:src/TCB.cpp   ****     __asm__ volatile ("ecall");
  96              		.loc 1 74 37 is_stmt 0
  97              	#APP
  98              	# 74 "src/TCB.cpp" 1
  75:src/TCB.cpp   **** 
  99              		li a0, 0x13
 100              	# 0 "" 2
 101              		.loc 1 75 5 is_stmt 1
  75:src/TCB.cpp   **** 
 102              		.loc 1 75 31 is_stmt 0
 103              	# 75 "src/TCB.cpp" 1
  77:src/TCB.cpp   **** 
 104              		ecall
 105              	# 0 "" 2
 106              		.loc 1 77 1
 107              	#NO_APP
 108 0094 83308101 		ld	ra,24(sp)
 109              		.cfi_restore 1
 110 0098 03340101 		ld	s0,16(sp)
 111              		.cfi_restore 8
 112              		.cfi_def_cfa 2, 32
 113 009c 83348100 		ld	s1,8(sp)
 114              		.cfi_restore 9
 115 00a0 13010102 		addi	sp,sp,32
 116              		.cfi_def_cfa_offset 0
 117 00a4 67800000 		jr	ra
 118              		.cfi_endproc
 119              	.LFE56:
 121              		.align	2
 122              		.globl	_ZN3TCB14putInSchedulerEPS_
 124              	_ZN3TCB14putInSchedulerEPS_:
 125              	.LFB51:
GAS LISTING /tmp/ccKJN2oy.s 			page 6


  23:src/TCB.cpp   ****     Scheduler::put(tcb);
 126              		.loc 1 23 36 is_stmt 1
 127              		.cfi_startproc
 128              	.LVL7:
 129 00a8 130101FF 		addi	sp,sp,-16
 130              		.cfi_def_cfa_offset 16
 131 00ac 23341100 		sd	ra,8(sp)
 132 00b0 23308100 		sd	s0,0(sp)
 133              		.cfi_offset 1, -8
 134              		.cfi_offset 8, -16
 135 00b4 13040101 		addi	s0,sp,16
 136              		.cfi_def_cfa 8, 0
  24:src/TCB.cpp   **** }
 137              		.loc 1 24 5
  24:src/TCB.cpp   **** }
 138              		.loc 1 24 19 is_stmt 0
 139 00b8 97000000 		call	_ZN9Scheduler3putEP3TCB@plt
 139      E7800000 
 140              	.LVL8:
  25:src/TCB.cpp   **** 
 141              		.loc 1 25 1
 142 00c0 83308100 		ld	ra,8(sp)
 143              		.cfi_restore 1
 144 00c4 03340100 		ld	s0,0(sp)
 145              		.cfi_restore 8
 146              		.cfi_def_cfa 2, 16
 147 00c8 13010101 		addi	sp,sp,16
 148              		.cfi_def_cfa_offset 0
 149 00cc 67800000 		jr	ra
 150              		.cfi_endproc
 151              	.LFE51:
 153              		.align	2
 154              		.globl	_ZN3TCB8dispatchEv
 156              	_ZN3TCB8dispatchEv:
 157              	.LFB55:
  47:src/TCB.cpp   **** //    TCB *old = running;
 158              		.loc 1 47 1 is_stmt 1
 159              		.cfi_startproc
 160 00d0 130101FE 		addi	sp,sp,-32
 161              		.cfi_def_cfa_offset 32
 162 00d4 233C1100 		sd	ra,24(sp)
 163 00d8 23388100 		sd	s0,16(sp)
 164 00dc 23349100 		sd	s1,8(sp)
 165              		.cfi_offset 1, -8
 166              		.cfi_offset 8, -16
 167              		.cfi_offset 9, -24
 168 00e0 13040102 		addi	s0,sp,32
 169              		.cfi_def_cfa 8, 0
  57:src/TCB.cpp   ****     if (!old->isFinished()) { Scheduler::put(old); }
 170              		.loc 1 57 5
  57:src/TCB.cpp   ****     if (!old->isFinished()) { Scheduler::put(old); }
 171              		.loc 1 57 10 is_stmt 0
 172 00e4 97040000 		ld	s1,.LANCHOR0+8
 172      83B40400 
 173              	.LVL9:
  58:src/TCB.cpp   ****     running = Scheduler::get();
 174              		.loc 1 58 5 is_stmt 1
GAS LISTING /tmp/ccKJN2oy.s 			page 7


 175              	.LBB12:
 176              	.LBB13:
  23:src/../h/TCB.hpp **** 
 177              		.loc 2 23 31
  23:src/../h/TCB.hpp **** 
 178              		.loc 2 23 38 is_stmt 0
 179 00ec 83C78403 		lbu	a5,56(s1)
 180              	.LVL10:
 181              	.LBE13:
 182              	.LBE12:
  58:src/TCB.cpp   ****     running = Scheduler::get();
 183              		.loc 1 58 5
 184 00f0 638C0702 		beqz	a5,.L15
 185              	.L13:
  59:src/TCB.cpp   **** 
 186              		.loc 1 59 5 is_stmt 1
  59:src/TCB.cpp   **** 
 187              		.loc 1 59 29 is_stmt 0
 188 00f4 97000000 		call	_ZN9Scheduler3getEv@plt
 188      E7800000 
 189              	.LVL11:
  59:src/TCB.cpp   **** 
 190              		.loc 1 59 13
 191 00fc 97070000 		sd	a0,.LANCHOR0+8,a5
 191      23B0A700 
  61:src/TCB.cpp   **** }
 192              		.loc 1 61 5 is_stmt 1
  61:src/TCB.cpp   **** }
 193              		.loc 1 61 23 is_stmt 0
 194 0104 93050502 		addi	a1,a0,32
 195 0108 13850402 		addi	a0,s1,32
 196 010c 97000000 		call	_ZN3TCB13contextSwitchEPNS_7ContextES1_@plt
 196      E7800000 
 197              	.LVL12:
  62:src/TCB.cpp   **** 
 198              		.loc 1 62 1
 199 0114 83308101 		ld	ra,24(sp)
 200              		.cfi_remember_state
 201              		.cfi_restore 1
 202 0118 03340101 		ld	s0,16(sp)
 203              		.cfi_restore 8
 204              		.cfi_def_cfa 2, 32
 205 011c 83348100 		ld	s1,8(sp)
 206              		.cfi_restore 9
 207              	.LVL13:
 208 0120 13010102 		addi	sp,sp,32
 209              		.cfi_def_cfa_offset 0
 210 0124 67800000 		jr	ra
 211              	.LVL14:
 212              	.L15:
 213              		.cfi_restore_state
  58:src/TCB.cpp   ****     running = Scheduler::get();
 214              		.loc 1 58 31 is_stmt 1 discriminator 1
  58:src/TCB.cpp   ****     running = Scheduler::get();
 215              		.loc 1 58 45 is_stmt 0 discriminator 1
 216 0128 13850400 		mv	a0,s1
 217 012c 97000000 		call	_ZN9Scheduler3putEP3TCB@plt
GAS LISTING /tmp/ccKJN2oy.s 			page 8


 217      E7800000 
 218              	.LVL15:
 219 0134 6FF01FFC 		j	.L13
 220              		.cfi_endproc
 221              	.LFE55:
 223              		.align	2
 224              		.globl	_ZN3TCB5yieldEv
 226              	_ZN3TCB5yieldEv:
 227              	.LFB53:
  34:src/TCB.cpp   ****     Riscv::pushRegisters();
 228              		.loc 1 34 1 is_stmt 1
 229              		.cfi_startproc
 230 0138 130101FF 		addi	sp,sp,-16
 231              		.cfi_def_cfa_offset 16
 232 013c 23341100 		sd	ra,8(sp)
 233 0140 23308100 		sd	s0,0(sp)
 234              		.cfi_offset 1, -8
 235              		.cfi_offset 8, -16
 236 0144 13040101 		addi	s0,sp,16
 237              		.cfi_def_cfa 8, 0
  35:src/TCB.cpp   ****     TCB::dispatch();
 238              		.loc 1 35 5
  35:src/TCB.cpp   ****     TCB::dispatch();
 239              		.loc 1 35 25 is_stmt 0
 240 0148 97000000 		call	_ZN5Riscv13pushRegistersEv@plt
 240      E7800000 
 241              	.LVL16:
  36:src/TCB.cpp   ****     Riscv::popRegisters();
 242              		.loc 1 36 5 is_stmt 1
  36:src/TCB.cpp   ****     Riscv::popRegisters();
 243              		.loc 1 36 18 is_stmt 0
 244 0150 97000000 		call	_ZN3TCB8dispatchEv
 244      E7800000 
 245              	.LVL17:
  37:src/TCB.cpp   **** }
 246              		.loc 1 37 5 is_stmt 1
  37:src/TCB.cpp   **** }
 247              		.loc 1 37 24 is_stmt 0
 248 0158 97000000 		call	_ZN5Riscv12popRegistersEv@plt
 248      E7800000 
 249              	.LVL18:
  38:src/TCB.cpp   **** void TCB::yieldWithoutScheduler()
 250              		.loc 1 38 1
 251 0160 83308100 		ld	ra,8(sp)
 252              		.cfi_restore 1
 253 0164 03340100 		ld	s0,0(sp)
 254              		.cfi_restore 8
 255              		.cfi_def_cfa 2, 16
 256 0168 13010101 		addi	sp,sp,16
 257              		.cfi_def_cfa_offset 0
 258 016c 67800000 		jr	ra
 259              		.cfi_endproc
 260              	.LFE53:
 262              		.align	2
 263              		.globl	_ZN3TCB10exitThreadEv
 265              	_ZN3TCB10exitThreadEv:
 266              	.LFB57:
GAS LISTING /tmp/ccKJN2oy.s 			page 9


  79:src/TCB.cpp   ****     running->setFinished(true);
 267              		.loc 1 79 23 is_stmt 1
 268              		.cfi_startproc
 269 0170 130101FF 		addi	sp,sp,-16
 270              		.cfi_def_cfa_offset 16
 271 0174 23341100 		sd	ra,8(sp)
 272 0178 23308100 		sd	s0,0(sp)
 273              		.cfi_offset 1, -8
 274              		.cfi_offset 8, -16
 275 017c 13040101 		addi	s0,sp,16
 276              		.cfi_def_cfa 8, 0
  80:src/TCB.cpp   ****     dispatch();
 277              		.loc 1 80 5
 278              	.LVL19:
 279              	.LBB14:
 280              	.LBB15:
 281              		.loc 2 26 36
 282              		.loc 2 26 45 is_stmt 0
 283 0180 97070000 		ld	a5,.LANCHOR0+8
 283      83B70700 
 284 0188 13071000 		li	a4,1
 285 018c 238CE702 		sb	a4,56(a5)
 286              	.LVL20:
 287              	.LBE15:
 288              	.LBE14:
  81:src/TCB.cpp   **** //    TCB *old = running;
 289              		.loc 1 81 5 is_stmt 1
  81:src/TCB.cpp   **** //    TCB *old = running;
 290              		.loc 1 81 13 is_stmt 0
 291 0190 97000000 		call	_ZN3TCB8dispatchEv
 291      E7800000 
 292              	.LVL21:
  87:src/TCB.cpp   **** }
 293              		.loc 1 87 5 is_stmt 1
  88:src/TCB.cpp   **** 
 294              		.loc 1 88 1 is_stmt 0
 295 0198 13050000 		li	a0,0
 296 019c 83308100 		ld	ra,8(sp)
 297              		.cfi_restore 1
 298 01a0 03340100 		ld	s0,0(sp)
 299              		.cfi_restore 8
 300              		.cfi_def_cfa 2, 16
 301 01a4 13010101 		addi	sp,sp,16
 302              		.cfi_def_cfa_offset 0
 303 01a8 67800000 		jr	ra
 304              		.cfi_endproc
 305              	.LFE57:
 307              		.align	2
 308              		.globl	_ZN3TCB24dispatchWithoutSchedulerEv
 310              	_ZN3TCB24dispatchWithoutSchedulerEv:
 311              	.LFB58:
  91:src/TCB.cpp   ****     TCB *old = running;
 312              		.loc 1 91 37 is_stmt 1
 313              		.cfi_startproc
 314 01ac 130101FE 		addi	sp,sp,-32
 315              		.cfi_def_cfa_offset 32
 316 01b0 233C1100 		sd	ra,24(sp)
GAS LISTING /tmp/ccKJN2oy.s 			page 10


 317 01b4 23388100 		sd	s0,16(sp)
 318 01b8 23349100 		sd	s1,8(sp)
 319 01bc 23302101 		sd	s2,0(sp)
 320              		.cfi_offset 1, -8
 321              		.cfi_offset 8, -16
 322              		.cfi_offset 9, -24
 323              		.cfi_offset 18, -32
 324 01c0 13040102 		addi	s0,sp,32
 325              		.cfi_def_cfa 8, 0
  92:src/TCB.cpp   ****     running = Scheduler::get();
 326              		.loc 1 92 5
  92:src/TCB.cpp   ****     running = Scheduler::get();
 327              		.loc 1 92 10 is_stmt 0
 328 01c4 97040000 		lla	s1,.LANCHOR0
 328      93840400 
 329 01cc 03B98400 		ld	s2,8(s1)
 330              	.LVL22:
  93:src/TCB.cpp   ****     TCB::contextSwitch(&old->context, &running->context);
 331              		.loc 1 93 5 is_stmt 1
  93:src/TCB.cpp   ****     TCB::contextSwitch(&old->context, &running->context);
 332              		.loc 1 93 29 is_stmt 0
 333 01d0 97000000 		call	_ZN9Scheduler3getEv@plt
 333      E7800000 
 334              	.LVL23:
  93:src/TCB.cpp   ****     TCB::contextSwitch(&old->context, &running->context);
 335              		.loc 1 93 13
 336 01d8 23B4A400 		sd	a0,8(s1)
  94:src/TCB.cpp   **** }
 337              		.loc 1 94 5 is_stmt 1
  94:src/TCB.cpp   **** }
 338              		.loc 1 94 23 is_stmt 0
 339 01dc 93050502 		addi	a1,a0,32
 340 01e0 13050902 		addi	a0,s2,32
 341 01e4 97000000 		call	_ZN3TCB13contextSwitchEPNS_7ContextES1_@plt
 341      E7800000 
 342              	.LVL24:
  95:src/TCB.cpp   **** 
 343              		.loc 1 95 1
 344 01ec 83308101 		ld	ra,24(sp)
 345              		.cfi_restore 1
 346 01f0 03340101 		ld	s0,16(sp)
 347              		.cfi_restore 8
 348              		.cfi_def_cfa 2, 32
 349 01f4 83348100 		ld	s1,8(sp)
 350              		.cfi_restore 9
 351 01f8 03390100 		ld	s2,0(sp)
 352              		.cfi_restore 18
 353              	.LVL25:
 354 01fc 13010102 		addi	sp,sp,32
 355              		.cfi_def_cfa_offset 0
 356 0200 67800000 		jr	ra
 357              		.cfi_endproc
 358              	.LFE58:
 360              		.align	2
 361              		.globl	_ZN3TCB21yieldWithoutSchedulerEv
 363              	_ZN3TCB21yieldWithoutSchedulerEv:
 364              	.LFB54:
GAS LISTING /tmp/ccKJN2oy.s 			page 11


  40:src/TCB.cpp   ****     Riscv::pushRegisters();
 365              		.loc 1 40 1 is_stmt 1
 366              		.cfi_startproc
 367 0204 130101FF 		addi	sp,sp,-16
 368              		.cfi_def_cfa_offset 16
 369 0208 23341100 		sd	ra,8(sp)
 370 020c 23308100 		sd	s0,0(sp)
 371              		.cfi_offset 1, -8
 372              		.cfi_offset 8, -16
 373 0210 13040101 		addi	s0,sp,16
 374              		.cfi_def_cfa 8, 0
  41:src/TCB.cpp   ****     TCB::dispatchWithoutScheduler();
 375              		.loc 1 41 5
  41:src/TCB.cpp   ****     TCB::dispatchWithoutScheduler();
 376              		.loc 1 41 25 is_stmt 0
 377 0214 97000000 		call	_ZN5Riscv13pushRegistersEv@plt
 377      E7800000 
 378              	.LVL26:
  42:src/TCB.cpp   ****     Riscv::popRegisters();
 379              		.loc 1 42 5 is_stmt 1
  42:src/TCB.cpp   ****     Riscv::popRegisters();
 380              		.loc 1 42 34 is_stmt 0
 381 021c 97000000 		call	_ZN3TCB24dispatchWithoutSchedulerEv
 381      E7800000 
 382              	.LVL27:
  43:src/TCB.cpp   **** }
 383              		.loc 1 43 5 is_stmt 1
  43:src/TCB.cpp   **** }
 384              		.loc 1 43 24 is_stmt 0
 385 0224 97000000 		call	_ZN5Riscv12popRegistersEv@plt
 385      E7800000 
 386              	.LVL28:
  44:src/TCB.cpp   **** 
 387              		.loc 1 44 1
 388 022c 83308100 		ld	ra,8(sp)
 389              		.cfi_restore 1
 390 0230 03340100 		ld	s0,0(sp)
 391              		.cfi_restore 8
 392              		.cfi_def_cfa 2, 16
 393 0234 13010101 		addi	sp,sp,16
 394              		.cfi_def_cfa_offset 0
 395 0238 67800000 		jr	ra
 396              		.cfi_endproc
 397              	.LFE54:
 399              		.align	2
 400              		.globl	_ZN3TCB4joinEv
 402              	_ZN3TCB4joinEv:
 403              	.LFB59:
  97:src/TCB.cpp   ****     sem->wait();
 404              		.loc 1 97 18 is_stmt 1
 405              		.cfi_startproc
 406              	.LVL29:
 407 023c 130101FF 		addi	sp,sp,-16
 408              		.cfi_def_cfa_offset 16
 409 0240 23341100 		sd	ra,8(sp)
 410 0244 23308100 		sd	s0,0(sp)
 411              		.cfi_offset 1, -8
GAS LISTING /tmp/ccKJN2oy.s 			page 12


 412              		.cfi_offset 8, -16
 413 0248 13040101 		addi	s0,sp,16
 414              		.cfi_def_cfa 8, 0
  98:src/TCB.cpp   **** }
 415              		.loc 1 98 5
  98:src/TCB.cpp   **** }
 416              		.loc 1 98 14 is_stmt 0
 417 024c 03350500 		ld	a0,0(a0)
 418              	.LVL30:
 419 0250 97000000 		call	_ZN10Ksemaphore4waitEv@plt
 419      E7800000 
 420              	.LVL31:
  99:src/TCB.cpp   **** 
 421              		.loc 1 99 1
 422 0258 83308100 		ld	ra,8(sp)
 423              		.cfi_restore 1
 424 025c 03340100 		ld	s0,0(sp)
 425              		.cfi_restore 8
 426              		.cfi_def_cfa 2, 16
 427 0260 13010101 		addi	sp,sp,16
 428              		.cfi_def_cfa_offset 0
 429 0264 67800000 		jr	ra
 430              		.cfi_endproc
 431              	.LFE59:
 433              		.align	2
 434              		.globl	_ZN3TCBdlEPv
 436              	_ZN3TCBdlEPv:
 437              	.LFB60:
 101:src/TCB.cpp   ****     MemoryAllocator::free(p);
 438              		.loc 1 101 36 is_stmt 1
 439              		.cfi_startproc
 440              	.LVL32:
 441 0268 130101FF 		addi	sp,sp,-16
 442              		.cfi_def_cfa_offset 16
 443 026c 23341100 		sd	ra,8(sp)
 444 0270 23308100 		sd	s0,0(sp)
 445              		.cfi_offset 1, -8
 446              		.cfi_offset 8, -16
 447 0274 13040101 		addi	s0,sp,16
 448              		.cfi_def_cfa 8, 0
 102:src/TCB.cpp   ****     return;
 449              		.loc 1 102 5
 102:src/TCB.cpp   ****     return;
 450              		.loc 1 102 26 is_stmt 0
 451 0278 97000000 		call	_ZN15MemoryAllocator4freeEPv@plt
 451      E7800000 
 452              	.LVL33:
 103:src/TCB.cpp   **** 
 453              		.loc 1 103 5 is_stmt 1
 105:src/TCB.cpp   **** 
 454              		.loc 1 105 1 is_stmt 0
 455 0280 83308100 		ld	ra,8(sp)
 456              		.cfi_restore 1
 457 0284 03340100 		ld	s0,0(sp)
 458              		.cfi_restore 8
 459              		.cfi_def_cfa 2, 16
 460 0288 13010101 		addi	sp,sp,16
GAS LISTING /tmp/ccKJN2oy.s 			page 13


 461              		.cfi_def_cfa_offset 0
 462 028c 67800000 		jr	ra
 463              		.cfi_endproc
 464              	.LFE60:
 466              		.align	2
 467              		.globl	_ZN3TCBnwEm
 469              	_ZN3TCBnwEm:
 470              	.LFB61:
 107:src/TCB.cpp   ****     return MemoryAllocator::malloc(sizeof (TCB));
 471              		.loc 1 107 35 is_stmt 1
 472              		.cfi_startproc
 473              	.LVL34:
 474 0290 130101FF 		addi	sp,sp,-16
 475              		.cfi_def_cfa_offset 16
 476 0294 23341100 		sd	ra,8(sp)
 477 0298 23308100 		sd	s0,0(sp)
 478              		.cfi_offset 1, -8
 479              		.cfi_offset 8, -16
 480 029c 13040101 		addi	s0,sp,16
 481              		.cfi_def_cfa 8, 0
 108:src/TCB.cpp   **** 
 482              		.loc 1 108 5
 108:src/TCB.cpp   **** 
 483              		.loc 1 108 35 is_stmt 0
 484 02a0 13058004 		li	a0,72
 485              	.LVL35:
 486 02a4 97000000 		call	_ZN15MemoryAllocator6mallocEm@plt
 486      E7800000 
 487              	.LVL36:
 110:src/TCB.cpp   **** 
 488              		.loc 1 110 1
 489 02ac 83308100 		ld	ra,8(sp)
 490              		.cfi_restore 1
 491 02b0 03340100 		ld	s0,0(sp)
 492              		.cfi_restore 8
 493              		.cfi_def_cfa 2, 16
 494 02b4 13010101 		addi	sp,sp,16
 495              		.cfi_def_cfa_offset 0
 496 02b8 67800000 		jr	ra
 497              		.cfi_endproc
 498              	.LFE61:
 500              		.align	2
 501              		.globl	_ZN3TCB12createThreadEPFvPvES0_
 503              	_ZN3TCB12createThreadEPFvPvES0_:
 504              	.LFB50:
  13:src/TCB.cpp   ****     TCB* t = (TCB*)new TCB(body, arg, DEFAULT_TIME_SLICE);
 505              		.loc 1 13 1 is_stmt 1
 506              		.cfi_startproc
 507              		.cfi_personality 0x9b,DW.ref.__gxx_personality_v0
 508              		.cfi_lsda 0x1b,.LLSDA50
 509              	.LVL37:
 510 02bc 130101FD 		addi	sp,sp,-48
 511              		.cfi_def_cfa_offset 48
 512 02c0 23341102 		sd	ra,40(sp)
 513 02c4 23308102 		sd	s0,32(sp)
 514 02c8 233C9100 		sd	s1,24(sp)
 515 02cc 23382101 		sd	s2,16(sp)
GAS LISTING /tmp/ccKJN2oy.s 			page 14


 516 02d0 23343101 		sd	s3,8(sp)
 517              		.cfi_offset 1, -8
 518              		.cfi_offset 8, -16
 519              		.cfi_offset 9, -24
 520              		.cfi_offset 18, -32
 521              		.cfi_offset 19, -40
 522 02d4 13040103 		addi	s0,sp,48
 523              		.cfi_def_cfa 8, 0
 524 02d8 13090500 		mv	s2,a0
 525 02dc 93890500 		mv	s3,a1
  14:src/TCB.cpp   ****     t->sem = Ksemaphore::createSemaphore(0);
 526              		.loc 1 14 5
  14:src/TCB.cpp   ****     t->sem = Ksemaphore::createSemaphore(0);
 527              		.loc 1 14 57 is_stmt 0
 528 02e0 13058004 		li	a0,72
 529              	.LVL38:
 530              	.LEHB0:
 531 02e4 97000000 		call	_ZN3TCBnwEm
 531      E7800000 
 532              	.LVL39:
 533              	.LEHE0:
 534 02ec 93040500 		mv	s1,a0
 535              	.LVL40:
 536              	.LBB19:
 537              	.LBB20:
  27:src/../h/TCB.hpp **** 
  28:src/../h/TCB.hpp ****     uint64 getTimeSlice() const { return timeSlice; }
  29:src/../h/TCB.hpp **** 
  30:src/../h/TCB.hpp ****     Body getBody() { return this->body;}
  31:src/../h/TCB.hpp ****     void* getArg() {return this->arg;}
  32:src/../h/TCB.hpp ****     uint64 getId() {return this->id;}
  33:src/../h/TCB.hpp **** 
  34:src/../h/TCB.hpp ****     static void* operator new (size_t n);
  35:src/../h/TCB.hpp ****     static void operator delete (void* p);
  36:src/../h/TCB.hpp **** 
  37:src/../h/TCB.hpp **** 
  38:src/../h/TCB.hpp ****     static TCB *createThread(Body body, void* arg);
  39:src/../h/TCB.hpp **** 
  40:src/../h/TCB.hpp ****     static TCB* createThreadWithoutPuttingInScheduler(Body body, void* arg);
  41:src/../h/TCB.hpp **** 
  42:src/../h/TCB.hpp ****     static void putInScheduler(TCB* tcb);
  43:src/../h/TCB.hpp **** 
  44:src/../h/TCB.hpp ****     static void yield();
  45:src/../h/TCB.hpp ****     void kill(TCB* t);
  46:src/../h/TCB.hpp **** 
  47:src/../h/TCB.hpp ****     static void yieldWithoutScheduler();
  48:src/../h/TCB.hpp **** 
  49:src/../h/TCB.hpp ****     static TCB *running;
  50:src/../h/TCB.hpp ****     static Ksemaphore* semWaitAllThreads;
  51:src/../h/TCB.hpp ****     Ksemaphore* sem;
  52:src/../h/TCB.hpp **** 
  53:src/../h/TCB.hpp **** 
  54:src/../h/TCB.hpp ****     //    body(body),
  55:src/../h/TCB.hpp **** //            arg(arg),
  56:src/../h/TCB.hpp **** //            stack(body != nullptr ? (uint64*)MemoryAllocator::malloc(sizeof(uint64) * DEFAULT_STA
  57:src/../h/TCB.hpp **** //    context({(uint64) &threadWrapper,
  58:src/../h/TCB.hpp **** //                stack != nullptr ? (uint64) &stack[DEFAULT_STACK_SIZE] : 0
GAS LISTING /tmp/ccKJN2oy.s 			page 15


  59:src/../h/TCB.hpp **** //    }),
  60:src/../h/TCB.hpp **** //    timeSlice(timeSlice),
  61:src/../h/TCB.hpp **** //            finished(false)
  62:src/../h/TCB.hpp ****     TCB(Body bodyy, void* argg, uint64 timeSlicee)
  63:src/../h/TCB.hpp ****     {
  64:src/../h/TCB.hpp ****         body = bodyy;
 538              		.loc 2 64 9 is_stmt 1
 539              		.loc 2 64 14 is_stmt 0
 540 02f0 23342501 		sd	s2,8(a0)
  65:src/../h/TCB.hpp ****         arg=argg;
 541              		.loc 2 65 9 is_stmt 1
 542              		.loc 2 65 12 is_stmt 0
 543 02f4 23383501 		sd	s3,16(a0)
  66:src/../h/TCB.hpp ****         stack=(body != nullptr ? (uint64*)MemoryAllocator::malloc(sizeof(uint64) * DEFAULT_STACK_SI
 544              		.loc 2 66 9 is_stmt 1
 545              		.loc 2 66 32 is_stmt 0
 546 02f8 630A0900 		beqz	s2,.L35
 547              		.loc 2 66 66
 548 02fc 37850000 		li	a0,32768
 549              	.LEHB1:
 550 0300 97000000 		call	_ZN15MemoryAllocator6mallocEm@plt
 550      E7800000 
 551              	.LVL41:
 552              	.LEHE1:
 553 0308 6F008000 		j	.L31
 554              	.L35:
 555              		.loc 2 66 32
 556 030c 13050000 		li	a0,0
 557              	.L31:
 558              		.loc 2 66 14
 559 0310 23BCA400 		sd	a0,24(s1)
  67:src/../h/TCB.hpp ****         context.ra = (uint64) &threadWrapper;
 560              		.loc 2 67 9 is_stmt 1
 561              		.loc 2 67 20 is_stmt 0
 562 0314 97070000 		lla	a5,_ZN3TCB13threadWrapperEv
 562      93870700 
 563 031c 23B0F402 		sd	a5,32(s1)
  68:src/../h/TCB.hpp ****         context.sp =(stack != nullptr ? (uint64) &stack[DEFAULT_STACK_SIZE] : 0);
 564              		.loc 2 68 9 is_stmt 1
 565              		.loc 2 68 39 is_stmt 0
 566 0320 630A0506 		beqz	a0,.L36
 567              		.loc 2 68 50
 568 0324 B7870000 		li	a5,32768
 569 0328 B307F500 		add	a5,a0,a5
 570              	.L32:
 571              		.loc 2 68 20
 572 032c 23B4F402 		sd	a5,40(s1)
  69:src/../h/TCB.hpp ****         timeSlice=timeSlicee;
 573              		.loc 2 69 9 is_stmt 1
 574              		.loc 2 69 18 is_stmt 0
 575 0330 93072000 		li	a5,2
 576 0334 23B8F402 		sd	a5,48(s1)
  70:src/../h/TCB.hpp ****         finished= false;
 577              		.loc 2 70 9 is_stmt 1
 578              		.loc 2 70 17 is_stmt 0
 579 0338 238C0402 		sb	zero,56(s1)
  71:src/../h/TCB.hpp ****         id=threadId++;
GAS LISTING /tmp/ccKJN2oy.s 			page 16


 580              		.loc 2 71 9 is_stmt 1
 581              		.loc 2 71 20 is_stmt 0
 582 033c 17070000 		lla	a4,.LANCHOR0
 582      13070700 
 583 0344 83370701 		ld	a5,16(a4)
 584 0348 93861700 		addi	a3,a5,1
 585 034c 2338D700 		sd	a3,16(a4)
 586              		.loc 2 71 11
 587 0350 23B0F404 		sd	a5,64(s1)
 588              	.LVL42:
 589              	.LBE20:
 590              	.LBE19:
  15:src/TCB.cpp   **** 
 591              		.loc 1 15 5 is_stmt 1
  15:src/TCB.cpp   **** 
 592              		.loc 1 15 41 is_stmt 0
 593 0354 13050000 		li	a0,0
 594              	.LEHB2:
 595 0358 97000000 		call	_ZN10Ksemaphore15createSemaphoreEj@plt
 595      E7800000 
 596              	.LVL43:
  15:src/TCB.cpp   **** 
 597              		.loc 1 15 12
 598 0360 23B0A400 		sd	a0,0(s1)
  17:src/TCB.cpp   ****         Scheduler::put(t);
 599              		.loc 1 17 5 is_stmt 1
 600 0364 63080900 		beqz	s2,.L30
  18:src/TCB.cpp   ****     }
 601              		.loc 1 18 9
  18:src/TCB.cpp   ****     }
 602              		.loc 1 18 23 is_stmt 0
 603 0368 13850400 		mv	a0,s1
 604 036c 97000000 		call	_ZN9Scheduler3putEP3TCB@plt
 604      E7800000 
 605              	.LVL44:
 606              	.LEHE2:
  20:src/TCB.cpp   **** }
 607              		.loc 1 20 5 is_stmt 1
 608              	.L30:
  21:src/TCB.cpp   **** 
 609              		.loc 1 21 1 is_stmt 0
 610 0374 13850400 		mv	a0,s1
 611 0378 83308102 		ld	ra,40(sp)
 612              		.cfi_remember_state
 613              		.cfi_restore 1
 614 037c 03340102 		ld	s0,32(sp)
 615              		.cfi_restore 8
 616              		.cfi_def_cfa 2, 48
 617 0380 83348101 		ld	s1,24(sp)
 618              		.cfi_restore 9
 619              	.LVL45:
 620 0384 03390101 		ld	s2,16(sp)
 621              		.cfi_restore 18
 622              	.LVL46:
 623 0388 83398100 		ld	s3,8(sp)
 624              		.cfi_restore 19
 625              	.LVL47:
GAS LISTING /tmp/ccKJN2oy.s 			page 17


 626 038c 13010103 		addi	sp,sp,48
 627              		.cfi_def_cfa_offset 0
 628 0390 67800000 		jr	ra
 629              	.LVL48:
 630              	.L36:
 631              		.cfi_restore_state
 632              	.LBB22:
 633              	.LBB21:
  68:src/../h/TCB.hpp ****         timeSlice=timeSlicee;
 634              		.loc 2 68 39
 635 0394 93070000 		li	a5,0
 636 0398 6FF05FF9 		j	.L32
 637              	.L37:
 638 039c 13090500 		mv	s2,a0
 639              	.LVL49:
 640              	.LBE21:
 641              	.LBE22:
  14:src/TCB.cpp   ****     t->sem = Ksemaphore::createSemaphore(0);
 642              		.loc 1 14 57
 643 03a0 13850400 		mv	a0,s1
 644 03a4 97000000 		call	_ZN3TCBdlEPv
 644      E7800000 
 645              	.LVL50:
 646 03ac 13050900 		mv	a0,s2
 647              	.LEHB3:
 648 03b0 97000000 		call	_Unwind_Resume@plt
 648      E7800000 
 649              	.LVL51:
 650              	.LEHE3:
 651              		.cfi_endproc
 652              	.LFE50:
 653              		.globl	__gxx_personality_v0
 654              		.section	.gcc_except_table,"a",@progbits
 655              	.LLSDA50:
 656 0000 FF       		.byte	0xff
 657 0001 FF       		.byte	0xff
 658 0002 03       		.byte	0x3
 659 0003 34       		.byte	0x34
 660 0004 00000000 		.4byte	.LEHB0-.LFB50
 661 0008 00000000 		.4byte	.LEHE0-.LEHB0
 662 000c 00000000 		.4byte	0
 663 0010 00       		.byte	0
 664 0011 00000000 		.4byte	.LEHB1-.LFB50
 665 0015 00000000 		.4byte	.LEHE1-.LEHB1
 666 0019 00000000 		.4byte	.L37-.LFB50
 667 001d 00       		.byte	0
 668 001e 00000000 		.4byte	.LEHB2-.LFB50
 669 0022 00000000 		.4byte	.LEHE2-.LEHB2
 670 0026 00000000 		.4byte	0
 671 002a 00       		.byte	0
 672 002b 00000000 		.4byte	.LEHB3-.LFB50
 673 002f 00000000 		.4byte	.LEHE3-.LEHB3
 674 0033 00000000 		.4byte	0
 675 0037 00       		.byte	0
 676              		.text
 678              		.align	2
 679              		.globl	_ZN3TCB37createThreadWithoutPuttingInSchedulerEPFvPvES0_
GAS LISTING /tmp/ccKJN2oy.s 			page 18


 681              	_ZN3TCB37createThreadWithoutPuttingInSchedulerEPFvPvES0_:
 682              	.LFB52:
  28:src/TCB.cpp   ****     TCB* t = (TCB*)new TCB(body, arg, DEFAULT_TIME_SLICE);
 683              		.loc 1 28 1 is_stmt 1
 684              		.cfi_startproc
 685              		.cfi_personality 0x9b,DW.ref.__gxx_personality_v0
 686              		.cfi_lsda 0x1b,.LLSDA52
 687              	.LVL52:
 688 03b8 130101FD 		addi	sp,sp,-48
 689              		.cfi_def_cfa_offset 48
 690 03bc 23341102 		sd	ra,40(sp)
 691 03c0 23308102 		sd	s0,32(sp)
 692 03c4 233C9100 		sd	s1,24(sp)
 693 03c8 23382101 		sd	s2,16(sp)
 694 03cc 23343101 		sd	s3,8(sp)
 695              		.cfi_offset 1, -8
 696              		.cfi_offset 8, -16
 697              		.cfi_offset 9, -24
 698              		.cfi_offset 18, -32
 699              		.cfi_offset 19, -40
 700 03d0 13040103 		addi	s0,sp,48
 701              		.cfi_def_cfa 8, 0
 702 03d4 13090500 		mv	s2,a0
 703 03d8 93890500 		mv	s3,a1
  29:src/TCB.cpp   ****         return t;
 704              		.loc 1 29 5
  29:src/TCB.cpp   ****         return t;
 705              		.loc 1 29 57 is_stmt 0
 706 03dc 13058004 		li	a0,72
 707              	.LVL53:
 708              	.LEHB4:
 709 03e0 97000000 		call	_ZN3TCBnwEm
 709      E7800000 
 710              	.LVL54:
 711              	.LEHE4:
 712 03e8 93040500 		mv	s1,a0
 713              	.LVL55:
 714              	.LBB26:
 715              	.LBB27:
  64:src/../h/TCB.hpp ****         arg=argg;
 716              		.loc 2 64 9 is_stmt 1
  64:src/../h/TCB.hpp ****         arg=argg;
 717              		.loc 2 64 14 is_stmt 0
 718 03ec 23342501 		sd	s2,8(a0)
  65:src/../h/TCB.hpp ****         stack=(body != nullptr ? (uint64*)MemoryAllocator::malloc(sizeof(uint64) * DEFAULT_STACK_SI
 719              		.loc 2 65 9 is_stmt 1
  65:src/../h/TCB.hpp ****         stack=(body != nullptr ? (uint64*)MemoryAllocator::malloc(sizeof(uint64) * DEFAULT_STACK_SI
 720              		.loc 2 65 12 is_stmt 0
 721 03f0 23383501 		sd	s3,16(a0)
  66:src/../h/TCB.hpp ****         context.ra = (uint64) &threadWrapper;
 722              		.loc 2 66 9 is_stmt 1
  66:src/../h/TCB.hpp ****         context.ra = (uint64) &threadWrapper;
 723              		.loc 2 66 32 is_stmt 0
 724 03f4 630A0900 		beqz	s2,.L43
  66:src/../h/TCB.hpp ****         context.ra = (uint64) &threadWrapper;
 725              		.loc 2 66 66
 726 03f8 37850000 		li	a0,32768
GAS LISTING /tmp/ccKJN2oy.s 			page 19


 727              	.LEHB5:
 728 03fc 97000000 		call	_ZN15MemoryAllocator6mallocEm@plt
 728      E7800000 
 729              	.LVL56:
 730              	.LEHE5:
 731 0404 6F008000 		j	.L40
 732              	.L43:
  66:src/../h/TCB.hpp ****         context.ra = (uint64) &threadWrapper;
 733              		.loc 2 66 32
 734 0408 13050000 		li	a0,0
 735              	.L40:
  66:src/../h/TCB.hpp ****         context.ra = (uint64) &threadWrapper;
 736              		.loc 2 66 14
 737 040c 23BCA400 		sd	a0,24(s1)
  67:src/../h/TCB.hpp ****         context.sp =(stack != nullptr ? (uint64) &stack[DEFAULT_STACK_SIZE] : 0);
 738              		.loc 2 67 9 is_stmt 1
  67:src/../h/TCB.hpp ****         context.sp =(stack != nullptr ? (uint64) &stack[DEFAULT_STACK_SIZE] : 0);
 739              		.loc 2 67 20 is_stmt 0
 740 0410 97070000 		lla	a5,_ZN3TCB13threadWrapperEv
 740      93870700 
 741 0418 23B0F402 		sd	a5,32(s1)
  68:src/../h/TCB.hpp ****         timeSlice=timeSlicee;
 742              		.loc 2 68 9 is_stmt 1
  68:src/../h/TCB.hpp ****         timeSlice=timeSlicee;
 743              		.loc 2 68 39 is_stmt 0
 744 041c 630A0504 		beqz	a0,.L44
  68:src/../h/TCB.hpp ****         timeSlice=timeSlicee;
 745              		.loc 2 68 50
 746 0420 B7870000 		li	a5,32768
 747 0424 3305F500 		add	a0,a0,a5
 748              	.L41:
  68:src/../h/TCB.hpp ****         timeSlice=timeSlicee;
 749              		.loc 2 68 20
 750 0428 23B4A402 		sd	a0,40(s1)
  69:src/../h/TCB.hpp ****         finished= false;
 751              		.loc 2 69 9 is_stmt 1
  69:src/../h/TCB.hpp ****         finished= false;
 752              		.loc 2 69 18 is_stmt 0
 753 042c 93072000 		li	a5,2
 754 0430 23B8F402 		sd	a5,48(s1)
  70:src/../h/TCB.hpp ****         id=threadId++;
 755              		.loc 2 70 9 is_stmt 1
  70:src/../h/TCB.hpp ****         id=threadId++;
 756              		.loc 2 70 17 is_stmt 0
 757 0434 238C0402 		sb	zero,56(s1)
 758              		.loc 2 71 9 is_stmt 1
 759              		.loc 2 71 20 is_stmt 0
 760 0438 17070000 		lla	a4,.LANCHOR0
 760      13070700 
 761 0440 83370701 		ld	a5,16(a4)
 762 0444 93861700 		addi	a3,a5,1
 763 0448 2338D700 		sd	a3,16(a4)
 764              		.loc 2 71 11
 765 044c 23B0F404 		sd	a5,64(s1)
 766              	.LVL57:
 767              	.LBE27:
 768              	.LBE26:
GAS LISTING /tmp/ccKJN2oy.s 			page 20


  30:src/TCB.cpp   **** }
 769              		.loc 1 30 9 is_stmt 1
  31:src/TCB.cpp   **** 
 770              		.loc 1 31 1 is_stmt 0
 771 0450 13850400 		mv	a0,s1
 772 0454 83308102 		ld	ra,40(sp)
 773              		.cfi_remember_state
 774              		.cfi_restore 1
 775 0458 03340102 		ld	s0,32(sp)
 776              		.cfi_restore 8
 777              		.cfi_def_cfa 2, 48
 778 045c 83348101 		ld	s1,24(sp)
 779              		.cfi_restore 9
 780              	.LVL58:
 781 0460 03390101 		ld	s2,16(sp)
 782              		.cfi_restore 18
 783              	.LVL59:
 784 0464 83398100 		ld	s3,8(sp)
 785              		.cfi_restore 19
 786              	.LVL60:
 787 0468 13010103 		addi	sp,sp,48
 788              		.cfi_def_cfa_offset 0
 789 046c 67800000 		jr	ra
 790              	.LVL61:
 791              	.L44:
 792              		.cfi_restore_state
 793              	.LBB29:
 794              	.LBB28:
  68:src/../h/TCB.hpp ****         timeSlice=timeSlicee;
 795              		.loc 2 68 39
 796 0470 13050000 		li	a0,0
 797 0474 6FF05FFB 		j	.L41
 798              	.L45:
 799 0478 13090500 		mv	s2,a0
 800              	.LVL62:
 801              	.LBE28:
 802              	.LBE29:
  29:src/TCB.cpp   ****         return t;
 803              		.loc 1 29 57
 804 047c 13850400 		mv	a0,s1
 805 0480 97000000 		call	_ZN3TCBdlEPv
 805      E7800000 
 806              	.LVL63:
 807 0488 13050900 		mv	a0,s2
 808              	.LEHB6:
 809 048c 97000000 		call	_Unwind_Resume@plt
 809      E7800000 
 810              	.LVL64:
 811              	.LEHE6:
 812              		.cfi_endproc
 813              	.LFE52:
 814              		.section	.gcc_except_table
 815              	.LLSDA52:
 816 0038 FF       		.byte	0xff
 817 0039 FF       		.byte	0xff
 818 003a 03       		.byte	0x3
 819 003b 27       		.byte	0x27
GAS LISTING /tmp/ccKJN2oy.s 			page 21


 820 003c 00000000 		.4byte	.LEHB4-.LFB52
 821 0040 00000000 		.4byte	.LEHE4-.LEHB4
 822 0044 00000000 		.4byte	0
 823 0048 00       		.byte	0
 824 0049 00000000 		.4byte	.LEHB5-.LFB52
 825 004d 00000000 		.4byte	.LEHE5-.LEHB5
 826 0051 00000000 		.4byte	.L45-.LFB52
 827 0055 00       		.byte	0
 828 0056 00000000 		.4byte	.LEHB6-.LFB52
 829 005a 00000000 		.4byte	.LEHE6-.LEHB6
 830 005e 00000000 		.4byte	0
 831 0062 00       		.byte	0
 832              		.text
 834              		.align	2
 835              		.globl	_ZN3TCB4killEPS_
 837              	_ZN3TCB4killEPS_:
 838              	.LFB62:
 112:src/TCB.cpp   ****     TCB* tmp;
 839              		.loc 1 112 24 is_stmt 1
 840              		.cfi_startproc
 841              	.LVL65:
 842 0494 130101FE 		addi	sp,sp,-32
 843              		.cfi_def_cfa_offset 32
 844 0498 233C1100 		sd	ra,24(sp)
 845 049c 23388100 		sd	s0,16(sp)
 846 04a0 23349100 		sd	s1,8(sp)
 847              		.cfi_offset 1, -8
 848              		.cfi_offset 8, -16
 849              		.cfi_offset 9, -24
 850 04a4 13040102 		addi	s0,sp,32
 851              		.cfi_def_cfa 8, 0
 852 04a8 93840500 		mv	s1,a1
 853              	.LVL66:
 854              	.L50:
 113:src/TCB.cpp   ****     while((tmp=Scheduler::get())!=t){
 855              		.loc 1 113 5
 114:src/TCB.cpp   ****         Scheduler::put(tmp);
 856              		.loc 1 114 5
 114:src/TCB.cpp   ****         Scheduler::put(tmp);
 857              		.loc 1 114 33
 114:src/TCB.cpp   ****         Scheduler::put(tmp);
 858              		.loc 1 114 30 is_stmt 0
 859 04ac 97000000 		call	_ZN9Scheduler3getEv@plt
 859      E7800000 
 860              	.LVL67:
 114:src/TCB.cpp   ****         Scheduler::put(tmp);
 861              		.loc 1 114 33
 862 04b4 63089500 		beq	a0,s1,.L49
 115:src/TCB.cpp   ****     }
 863              		.loc 1 115 9 is_stmt 1
 115:src/TCB.cpp   ****     }
 864              		.loc 1 115 23 is_stmt 0
 865 04b8 97000000 		call	_ZN9Scheduler3putEP3TCB@plt
 865      E7800000 
 866              	.LVL68:
 114:src/TCB.cpp   ****         Scheduler::put(tmp);
 867              		.loc 1 114 5
GAS LISTING /tmp/ccKJN2oy.s 			page 22


 868 04c0 6FF0DFFE 		j	.L50
 869              	.LVL69:
 870              	.L49:
 117:src/TCB.cpp   **** 
 871              		.loc 1 117 5 is_stmt 1
 872              	.LBB30:
 873              	.LBB31:
  26:src/../h/TCB.hpp **** 
 874              		.loc 2 26 36
  26:src/../h/TCB.hpp **** 
 875              		.loc 2 26 45 is_stmt 0
 876 04c4 93071000 		li	a5,1
 877 04c8 230CF502 		sb	a5,56(a0)
 878              	.LVL70:
 879              	.LBE31:
 880              	.LBE30:
 881              		.loc 1 120 1
 882 04cc 83308101 		ld	ra,24(sp)
 883              		.cfi_restore 1
 884 04d0 03340101 		ld	s0,16(sp)
 885              		.cfi_restore 8
 886              		.cfi_def_cfa 2, 32
 887 04d4 83348100 		ld	s1,8(sp)
 888              		.cfi_restore 9
 889              	.LVL71:
 890 04d8 13010102 		addi	sp,sp,32
 891              		.cfi_def_cfa_offset 0
 892 04dc 67800000 		jr	ra
 893              		.cfi_endproc
 894              	.LFE62:
 896              		.align	2
 898              	_GLOBAL__sub_I__ZN3TCB7runningE:
 899              	.LFB68:
 900              		.loc 1 120 1 is_stmt 1
 901              		.cfi_startproc
 902 04e0 130101FF 		addi	sp,sp,-16
 903              		.cfi_def_cfa_offset 16
 904 04e4 23341100 		sd	ra,8(sp)
 905 04e8 23308100 		sd	s0,0(sp)
 906              		.cfi_offset 1, -8
 907              		.cfi_offset 8, -16
 908 04ec 13040101 		addi	s0,sp,16
 909              		.cfi_def_cfa 8, 0
 910              		.loc 1 120 1 is_stmt 0
 911 04f0 B7050100 		li	a1,65536
 912 04f4 9385F5FF 		addi	a1,a1,-1
 913 04f8 13051000 		li	a0,1
 914 04fc 97000000 		call	_Z41__static_initialization_and_destruction_0ii
 914      E7800000 
 915              	.LVL72:
 916 0504 83308100 		ld	ra,8(sp)
 917              		.cfi_restore 1
 918 0508 03340100 		ld	s0,0(sp)
 919              		.cfi_restore 8
 920              		.cfi_def_cfa 2, 16
 921 050c 13010101 		addi	sp,sp,16
 922              		.cfi_def_cfa_offset 0
GAS LISTING /tmp/ccKJN2oy.s 			page 23


 923 0510 67800000 		jr	ra
 924              		.cfi_endproc
 925              	.LFE68:
 927              		.section	.init_array,"aw"
 928              		.align	3
 929 0000 00000000 		.dword	_GLOBAL__sub_I__ZN3TCB7runningE
 929      00000000 
 930              		.globl	_ZN3TCB8threadIdE
 931              		.globl	_ZN3TCB16timeSliceCounterE
 932              		.globl	_ZN3TCB17semWaitAllThreadsE
 933              		.globl	_ZN3TCB7runningE
 934              		.bss
 935              		.align	3
 936              		.set	.LANCHOR0,. + 0
 939              	_ZN3TCB17semWaitAllThreadsE:
 940 0000 00000000 		.zero	8
 940      00000000 
 943              	_ZN3TCB7runningE:
 944 0008 00000000 		.zero	8
 944      00000000 
 947              	_ZN3TCB8threadIdE:
 948 0010 00000000 		.zero	8
 948      00000000 
 951              	_ZN3TCB16timeSliceCounterE:
 952 0018 00000000 		.zero	8
 952      00000000 
 953              		.text
 954              	.Letext0:
 955              		.file 3 "src/../h/../lib/hw.h"
 956              		.file 4 "src/../h/MemoryAllocator.hpp"
 957              		.file 5 "src/../h/scheduler.hpp"
 958              		.file 6 "src/../h/list.hpp"
 959              		.file 7 "src/../h/../h/Ksemaphore.hpp"
 960              		.file 8 "src/../h/riscv.hpp"
 5063              		.align	3
 5066              	DW.ref.__gxx_personality_v0:
 5067 0000 00000000 		.dword	__gxx_personality_v0
 5067      00000000 
 5068              		.ident	"GCC: (Ubuntu 9.4.0-1ubuntu1~20.04) 9.4.0"
 5069              		.section	.note.GNU-stack,"",@progbits
GAS LISTING /tmp/ccKJN2oy.s 			page 24

