GAS LISTING /tmp/ccI5aHYj.s 			page 1


   1              		.file	"TCB.cpp"
   2              		.option pic
   3              		.option norelax
   4              		.text
   5              	.Ltext0:
   6              		.align	2
   7              		.globl	_ZN3TCB12createThreadEPFvPvES0_
   9              	_ZN3TCB12createThreadEPFvPvES0_:
  10              	.LFB43:
  11              		.file 1 "src/TCB.cpp"
   1:src/TCB.cpp   **** 
   2:src/TCB.cpp   **** #include "../h/TCB.hpp"
   3:src/TCB.cpp   **** #include "../h/riscv.hpp"
   4:src/TCB.cpp   **** 
   5:src/TCB.cpp   **** TCB *TCB::running = nullptr;
   6:src/TCB.cpp   **** 
   7:src/TCB.cpp   **** uint64 TCB::timeSliceCounter = 0;
   8:src/TCB.cpp   **** 
   9:src/TCB.cpp   **** TCB *TCB::createThread(Body body, void* arg)
  10:src/TCB.cpp   **** {
  12              		.loc 1 10 1
  13              		.cfi_startproc
  14              		.cfi_personality 0x9b,DW.ref.__gxx_personality_v0
  15              		.cfi_lsda 0x1b,.LLSDA43
  16              	.LVL0:
  17 0000 130101FD 		addi	sp,sp,-48
  18              		.cfi_def_cfa_offset 48
  19 0004 23341102 		sd	ra,40(sp)
  20 0008 23308102 		sd	s0,32(sp)
  21 000c 233C9100 		sd	s1,24(sp)
  22 0010 23382101 		sd	s2,16(sp)
  23 0014 23343101 		sd	s3,8(sp)
  24              		.cfi_offset 1, -8
  25              		.cfi_offset 8, -16
  26              		.cfi_offset 9, -24
  27              		.cfi_offset 18, -32
  28              		.cfi_offset 19, -40
  29 0018 13040103 		addi	s0,sp,48
  30              		.cfi_def_cfa 8, 0
  31 001c 13090500 		mv	s2,a0
  32 0020 93890500 		mv	s3,a1
  11:src/TCB.cpp   **** //    TCB* tcb = (TCB*)__mem_alloc(sizeof (TCB));
  12:src/TCB.cpp   **** //    tcb->body=body;
  13:src/TCB.cpp   **** //    tcb->arg=arg;
  14:src/TCB.cpp   **** //    tcb->stack= (body!=nullptr? (uint64*) __mem_alloc(DEFAULT_STACK_SIZE) : nullptr);
  15:src/TCB.cpp   **** //    tcb->context={(uint64) &threadWrapper,
  16:src/TCB.cpp   **** //                     tcb->stack != nullptr ? (uint64) &tcb->stack[DEFAULT_STACK_SIZE] : 0
  17:src/TCB.cpp   **** //                    };
  18:src/TCB.cpp   **** //    tcb->timeSlice=DEFAULT_TIME_SLICE;
  19:src/TCB.cpp   **** //    tcb->finished=false;
  20:src/TCB.cpp   ****     TCB * t = new TCB(body, arg, DEFAULT_TIME_SLICE);
  33              		.loc 1 20 5
  34              		.loc 1 20 52 is_stmt 0
  35 0024 13058003 		li	a0,56
  36              	.LVL1:
  37              	.LEHB0:
  38 0028 97000000 		call	_Znwm@plt
GAS LISTING /tmp/ccI5aHYj.s 			page 2


  38      E7800000 
  39              	.LVL2:
  40              	.LEHE0:
  41 0030 93040500 		mv	s1,a0
  42              	.LVL3:
  43              	.LBB11:
  44              	.LBB12:
  45              		.file 2 "src/../h/TCB.hpp"
   1:src/../h/TCB.hpp **** #ifndef PROJECT_BASE_TCB_HPP
   2:src/../h/TCB.hpp **** #define PROJECT_BASE_TCB_HPP
   3:src/../h/TCB.hpp **** 
   4:src/../h/TCB.hpp **** #include "../lib/hw.h"
   5:src/../h/TCB.hpp **** #include "scheduler.hpp"
   6:src/../h/TCB.hpp **** 
   7:src/../h/TCB.hpp **** typedef TCB* thread_t;
   8:src/../h/TCB.hpp **** 
   9:src/../h/TCB.hpp **** 
  10:src/../h/TCB.hpp **** class TCB
  11:src/../h/TCB.hpp **** {
  12:src/../h/TCB.hpp **** 
  13:src/../h/TCB.hpp **** public:
  14:src/../h/TCB.hpp ****     using Body = void (*)(void*);
  15:src/../h/TCB.hpp ****      TCB();
  16:src/../h/TCB.hpp **** 
  17:src/../h/TCB.hpp ****     ~TCB() { delete[] stack; }
  18:src/../h/TCB.hpp **** 
  19:src/../h/TCB.hpp ****     bool isFinished() const { return finished; }
  20:src/../h/TCB.hpp **** 
  21:src/../h/TCB.hpp **** 
  22:src/../h/TCB.hpp ****     void setFinished(bool value) { finished = value; }
  23:src/../h/TCB.hpp **** 
  24:src/../h/TCB.hpp ****     uint64 getTimeSlice() const { return timeSlice; }
  25:src/../h/TCB.hpp **** 
  26:src/../h/TCB.hpp ****     Body getBody() { return this->body;}
  27:src/../h/TCB.hpp ****     void* getArg() {return this->arg;}
  28:src/../h/TCB.hpp **** 
  29:src/../h/TCB.hpp **** 
  30:src/../h/TCB.hpp ****     static TCB *createThread(Body body, void* arg);
  31:src/../h/TCB.hpp **** 
  32:src/../h/TCB.hpp ****     static void yield();
  33:src/../h/TCB.hpp **** 
  34:src/../h/TCB.hpp ****     static TCB *running;
  35:src/../h/TCB.hpp **** 
  36:src/../h/TCB.hpp ****     TCB(Body body, void* arg, uint64 timeSlice) :
  37:src/../h/TCB.hpp ****             body(body),
  38:src/../h/TCB.hpp ****             arg(arg),
  39:src/../h/TCB.hpp ****             stack(body != nullptr ? new uint64[DEFAULT_STACK_SIZE] : nullptr),
  40:src/../h/TCB.hpp ****             context({(uint64) &threadWrapper,
  41:src/../h/TCB.hpp ****                      stack != nullptr ? (uint64) &stack[DEFAULT_STACK_SIZE] : 0
  42:src/../h/TCB.hpp ****                     }),
  43:src/../h/TCB.hpp ****             timeSlice(timeSlice),
  44:src/../h/TCB.hpp ****             finished(false)
  46              		.loc 2 44 27
  47 0034 23302501 		sd	s2,0(a0)
  48 0038 23343501 		sd	s3,8(a0)
  39:src/../h/TCB.hpp ****             context({(uint64) &threadWrapper,
  49              		.loc 2 39 35
GAS LISTING /tmp/ccI5aHYj.s 			page 3


  50 003c 630A0900 		beqz	s2,.L6
  39:src/../h/TCB.hpp ****             context({(uint64) &threadWrapper,
  51              		.loc 2 39 66
  52 0040 37850000 		li	a0,32768
  53              	.LEHB1:
  54 0044 97000000 		call	_Znam@plt
  54      E7800000 
  55              	.LVL4:
  56              	.LEHE1:
  57 004c 6F008000 		j	.L2
  58              	.L6:
  39:src/../h/TCB.hpp ****             context({(uint64) &threadWrapper,
  59              		.loc 2 39 35
  60 0050 13050000 		li	a0,0
  61              	.L2:
  62              		.loc 2 44 27
  63 0054 23B8A400 		sd	a0,16(s1)
  64 0058 97070000 		lla	a5,_ZN3TCB13threadWrapperEv
  64      93870700 
  65 0060 23BCF400 		sd	a5,24(s1)
  41:src/../h/TCB.hpp ****                     }),
  66              		.loc 2 41 39
  67 0064 63060504 		beqz	a0,.L7
  41:src/../h/TCB.hpp ****                     }),
  68              		.loc 2 41 50
  69 0068 B7870000 		li	a5,32768
  70 006c B307F500 		add	a5,a0,a5
  71              	.L3:
  72              		.loc 2 44 27
  73 0070 23B0F402 		sd	a5,32(s1)
  74 0074 93072000 		li	a5,2
  75 0078 23B4F402 		sd	a5,40(s1)
  76 007c 23880402 		sb	zero,48(s1)
  77              	.LVL5:
  78              	.LBE12:
  79              	.LBE11:
  21:src/TCB.cpp   ****     if (body != nullptr) { Scheduler::put(t); }
  80              		.loc 1 21 5 is_stmt 1
  81 0080 63080900 		beqz	s2,.L1
  82              		.loc 1 21 28 discriminator 1
  83              		.loc 1 21 42 is_stmt 0 discriminator 1
  84 0084 13850400 		mv	a0,s1
  85              	.LEHB2:
  86 0088 97000000 		call	_ZN9Scheduler3putEP3TCB@plt
  86      E7800000 
  87              	.LVL6:
  22:src/TCB.cpp   ****     return t;
  88              		.loc 1 22 5 is_stmt 1 discriminator 1
  89              	.L1:
  23:src/TCB.cpp   **** }
  90              		.loc 1 23 1 is_stmt 0
  91 0090 13850400 		mv	a0,s1
  92 0094 83308102 		ld	ra,40(sp)
  93              		.cfi_remember_state
  94              		.cfi_restore 1
  95 0098 03340102 		ld	s0,32(sp)
  96              		.cfi_restore 8
GAS LISTING /tmp/ccI5aHYj.s 			page 4


  97              		.cfi_def_cfa 2, 48
  98 009c 83348101 		ld	s1,24(sp)
  99              		.cfi_restore 9
 100              	.LVL7:
 101 00a0 03390101 		ld	s2,16(sp)
 102              		.cfi_restore 18
 103              	.LVL8:
 104 00a4 83398100 		ld	s3,8(sp)
 105              		.cfi_restore 19
 106              	.LVL9:
 107 00a8 13010103 		addi	sp,sp,48
 108              		.cfi_def_cfa_offset 0
 109 00ac 67800000 		jr	ra
 110              	.LVL10:
 111              	.L7:
 112              		.cfi_restore_state
 113              	.LBB14:
 114              	.LBB13:
  41:src/../h/TCB.hpp ****                     }),
 115              		.loc 2 41 39
 116 00b0 93070000 		li	a5,0
 117 00b4 6FF0DFFB 		j	.L3
 118              	.L8:
 119 00b8 13090500 		mv	s2,a0
 120              	.LVL11:
 121              	.LBE13:
 122              	.LBE14:
  20:src/TCB.cpp   ****     if (body != nullptr) { Scheduler::put(t); }
 123              		.loc 1 20 52
 124 00bc 13850400 		mv	a0,s1
 125 00c0 97000000 		call	_ZdlPv@plt
 125      E7800000 
 126              	.LVL12:
 127 00c8 13050900 		mv	a0,s2
 128 00cc 97000000 		call	_Unwind_Resume@plt
 128      E7800000 
 129              	.LVL13:
 130              	.LEHE2:
 131              		.cfi_endproc
 132              	.LFE43:
 133              		.globl	__gxx_personality_v0
 134              		.section	.gcc_except_table,"a",@progbits
 135              	.LLSDA43:
 136 0000 FF       		.byte	0xff
 137 0001 FF       		.byte	0xff
 138 0002 03       		.byte	0x3
 139 0003 27       		.byte	0x27
 140 0004 00000000 		.4byte	.LEHB0-.LFB43
 141 0008 00000000 		.4byte	.LEHE0-.LEHB0
 142 000c 00000000 		.4byte	0
 143 0010 00       		.byte	0
 144 0011 00000000 		.4byte	.LEHB1-.LFB43
 145 0015 00000000 		.4byte	.LEHE1-.LEHB1
 146 0019 00000000 		.4byte	.L8-.LFB43
 147 001d 00       		.byte	0
 148 001e 00000000 		.4byte	.LEHB2-.LFB43
 149 0022 00000000 		.4byte	.LEHE2-.LEHB2
GAS LISTING /tmp/ccI5aHYj.s 			page 5


 150 0026 00000000 		.4byte	0
 151 002a 00       		.byte	0
 152              		.text
 154              		.align	2
 155              		.globl	_ZN3TCB8dispatchEv
 157              	_ZN3TCB8dispatchEv:
 158              	.LFB45:
  24:src/TCB.cpp   **** 
  25:src/TCB.cpp   **** void TCB::yield()
  26:src/TCB.cpp   **** {
  27:src/TCB.cpp   ****     Riscv::pushRegisters();
  28:src/TCB.cpp   **** 
  29:src/TCB.cpp   ****     TCB::dispatch();
  30:src/TCB.cpp   **** 
  31:src/TCB.cpp   ****     Riscv::popRegisters();
  32:src/TCB.cpp   **** 
  33:src/TCB.cpp   **** }
  34:src/TCB.cpp   **** 
  35:src/TCB.cpp   **** void TCB::dispatch()
  36:src/TCB.cpp   **** {
 159              		.loc 1 36 1 is_stmt 1
 160              		.cfi_startproc
 161 00d4 130101FE 		addi	sp,sp,-32
 162              		.cfi_def_cfa_offset 32
 163 00d8 233C1100 		sd	ra,24(sp)
 164 00dc 23388100 		sd	s0,16(sp)
 165 00e0 23349100 		sd	s1,8(sp)
 166              		.cfi_offset 1, -8
 167              		.cfi_offset 8, -16
 168              		.cfi_offset 9, -24
 169 00e4 13040102 		addi	s0,sp,32
 170              		.cfi_def_cfa 8, 0
  37:src/TCB.cpp   **** //    TCB *old = running;
  38:src/TCB.cpp   **** //    if(old!= nullptr) {
  39:src/TCB.cpp   **** //        if (!old->isFinished()) { Scheduler::put(old); }
  40:src/TCB.cpp   **** //    }
  41:src/TCB.cpp   **** //    running = Scheduler::get();
  42:src/TCB.cpp   **** //    if(old== nullptr){
  43:src/TCB.cpp   **** //        old=running;
  44:src/TCB.cpp   **** //        return;
  45:src/TCB.cpp   **** //    }
  46:src/TCB.cpp   ****     TCB *old = running;
 171              		.loc 1 46 5
 172              		.loc 1 46 10 is_stmt 0
 173 00e8 97040000 		ld	s1,.LANCHOR0
 173      83B40400 
 174              	.LVL14:
  47:src/TCB.cpp   ****     if (!old->isFinished()) { Scheduler::put(old); }
 175              		.loc 1 47 5 is_stmt 1
 176              	.LBB15:
 177              	.LBB16:
  19:src/../h/TCB.hpp **** 
 178              		.loc 2 19 31
  19:src/../h/TCB.hpp **** 
 179              		.loc 2 19 38 is_stmt 0
 180 00f0 83C70403 		lbu	a5,48(s1)
 181              	.LVL15:
GAS LISTING /tmp/ccI5aHYj.s 			page 6


 182              	.LBE16:
 183              	.LBE15:
 184              		.loc 1 47 5
 185 00f4 638C0702 		beqz	a5,.L13
 186              	.L11:
  48:src/TCB.cpp   ****     running = Scheduler::get();
 187              		.loc 1 48 5 is_stmt 1
 188              		.loc 1 48 29 is_stmt 0
 189 00f8 97000000 		call	_ZN9Scheduler3getEv@plt
 189      E7800000 
 190              	.LVL16:
 191              		.loc 1 48 13
 192 0100 97070000 		sd	a0,.LANCHOR0,a5
 192      23B0A700 
  49:src/TCB.cpp   **** 
  50:src/TCB.cpp   ****     TCB::contextSwitch(&old->context, &running->context);
 193              		.loc 1 50 5 is_stmt 1
 194              		.loc 1 50 23 is_stmt 0
 195 0108 93058501 		addi	a1,a0,24
 196 010c 13858401 		addi	a0,s1,24
 197 0110 97000000 		call	_ZN3TCB13contextSwitchEPNS_7ContextES1_@plt
 197      E7800000 
 198              	.LVL17:
  51:src/TCB.cpp   **** }
 199              		.loc 1 51 1
 200 0118 83308101 		ld	ra,24(sp)
 201              		.cfi_remember_state
 202              		.cfi_restore 1
 203 011c 03340101 		ld	s0,16(sp)
 204              		.cfi_restore 8
 205              		.cfi_def_cfa 2, 32
 206 0120 83348100 		ld	s1,8(sp)
 207              		.cfi_restore 9
 208              	.LVL18:
 209 0124 13010102 		addi	sp,sp,32
 210              		.cfi_def_cfa_offset 0
 211 0128 67800000 		jr	ra
 212              	.LVL19:
 213              	.L13:
 214              		.cfi_restore_state
  47:src/TCB.cpp   ****     running = Scheduler::get();
 215              		.loc 1 47 31 is_stmt 1 discriminator 1
  47:src/TCB.cpp   ****     running = Scheduler::get();
 216              		.loc 1 47 45 is_stmt 0 discriminator 1
 217 012c 13850400 		mv	a0,s1
 218 0130 97000000 		call	_ZN9Scheduler3putEP3TCB@plt
 218      E7800000 
 219              	.LVL20:
 220 0138 6FF01FFC 		j	.L11
 221              		.cfi_endproc
 222              	.LFE45:
 224              		.align	2
 225              		.globl	_ZN3TCB5yieldEv
 227              	_ZN3TCB5yieldEv:
 228              	.LFB44:
  26:src/TCB.cpp   ****     Riscv::pushRegisters();
 229              		.loc 1 26 1 is_stmt 1
GAS LISTING /tmp/ccI5aHYj.s 			page 7


 230              		.cfi_startproc
 231 013c 130101FF 		addi	sp,sp,-16
 232              		.cfi_def_cfa_offset 16
 233 0140 23341100 		sd	ra,8(sp)
 234 0144 23308100 		sd	s0,0(sp)
 235              		.cfi_offset 1, -8
 236              		.cfi_offset 8, -16
 237 0148 13040101 		addi	s0,sp,16
 238              		.cfi_def_cfa 8, 0
  27:src/TCB.cpp   **** 
 239              		.loc 1 27 5
  27:src/TCB.cpp   **** 
 240              		.loc 1 27 25 is_stmt 0
 241 014c 97000000 		call	_ZN5Riscv13pushRegistersEv@plt
 241      E7800000 
 242              	.LVL21:
  29:src/TCB.cpp   **** 
 243              		.loc 1 29 5 is_stmt 1
  29:src/TCB.cpp   **** 
 244              		.loc 1 29 18 is_stmt 0
 245 0154 97000000 		call	_ZN3TCB8dispatchEv
 245      E7800000 
 246              	.LVL22:
  31:src/TCB.cpp   **** 
 247              		.loc 1 31 5 is_stmt 1
  31:src/TCB.cpp   **** 
 248              		.loc 1 31 24 is_stmt 0
 249 015c 97000000 		call	_ZN5Riscv12popRegistersEv@plt
 249      E7800000 
 250              	.LVL23:
  33:src/TCB.cpp   **** 
 251              		.loc 1 33 1
 252 0164 83308100 		ld	ra,8(sp)
 253              		.cfi_restore 1
 254 0168 03340100 		ld	s0,0(sp)
 255              		.cfi_restore 8
 256              		.cfi_def_cfa 2, 16
 257 016c 13010101 		addi	sp,sp,16
 258              		.cfi_def_cfa_offset 0
 259 0170 67800000 		jr	ra
 260              		.cfi_endproc
 261              	.LFE44:
 263              		.align	2
 264              		.globl	_ZN3TCB13threadWrapperEv
 266              	_ZN3TCB13threadWrapperEv:
 267              	.LFB46:
  52:src/TCB.cpp   **** 
  53:src/TCB.cpp   **** void TCB::threadWrapper()
  54:src/TCB.cpp   **** {
 268              		.loc 1 54 1 is_stmt 1
 269              		.cfi_startproc
 270 0174 130101FE 		addi	sp,sp,-32
 271              		.cfi_def_cfa_offset 32
 272 0178 233C1100 		sd	ra,24(sp)
 273 017c 23388100 		sd	s0,16(sp)
 274 0180 23349100 		sd	s1,8(sp)
 275              		.cfi_offset 1, -8
GAS LISTING /tmp/ccI5aHYj.s 			page 8


 276              		.cfi_offset 8, -16
 277              		.cfi_offset 9, -24
 278 0184 13040102 		addi	s0,sp,32
 279              		.cfi_def_cfa 8, 0
  55:src/TCB.cpp   ****     Riscv::popSppSpie();
 280              		.loc 1 55 5
 281              		.loc 1 55 22 is_stmt 0
 282 0188 97000000 		call	_ZN5Riscv10popSppSpieEv@plt
 282      E7800000 
 283              	.LVL24:
  56:src/TCB.cpp   ****     running->body(running->arg);
 284              		.loc 1 56 5 is_stmt 1
 285              		.loc 1 56 14 is_stmt 0
 286 0190 97040000 		lla	s1,.LANCHOR0
 286      93840400 
 287 0198 83B70400 		ld	a5,0(s1)
 288 019c 03B70700 		ld	a4,0(a5)
 289              		.loc 1 56 18
 290 01a0 03B58700 		ld	a0,8(a5)
 291 01a4 E7000700 		jalr	a4
 292              	.LVL25:
  57:src/TCB.cpp   ****     running->setFinished(true);
 293              		.loc 1 57 5 is_stmt 1
 294              		.loc 1 57 25 is_stmt 0
 295 01a8 83B70400 		ld	a5,0(s1)
 296              	.LVL26:
 297              	.LBB17:
 298              	.LBB18:
  22:src/../h/TCB.hpp **** 
 299              		.loc 2 22 36 is_stmt 1
  22:src/../h/TCB.hpp **** 
 300              		.loc 2 22 45 is_stmt 0
 301 01ac 13071000 		li	a4,1
 302 01b0 2388E702 		sb	a4,48(a5)
 303              	.LVL27:
 304              	.LBE18:
 305              	.LBE17:
  58:src/TCB.cpp   ****     TCB::yield();
 306              		.loc 1 58 5 is_stmt 1
 307              		.loc 1 58 15 is_stmt 0
 308 01b4 97000000 		call	_ZN3TCB5yieldEv
 308      E7800000 
 309              	.LVL28:
  59:src/TCB.cpp   **** }
 310              		.loc 1 59 1
 311 01bc 83308101 		ld	ra,24(sp)
 312              		.cfi_restore 1
 313 01c0 03340101 		ld	s0,16(sp)
 314              		.cfi_restore 8
 315              		.cfi_def_cfa 2, 32
 316 01c4 83348100 		ld	s1,8(sp)
 317              		.cfi_restore 9
 318 01c8 13010102 		addi	sp,sp,32
 319              		.cfi_def_cfa_offset 0
 320 01cc 67800000 		jr	ra
 321              		.cfi_endproc
 322              	.LFE46:
GAS LISTING /tmp/ccI5aHYj.s 			page 9


 324              		.align	2
 325              		.globl	_ZN3TCB10exitThreadEv
 327              	_ZN3TCB10exitThreadEv:
 328              	.LFB47:
  60:src/TCB.cpp   **** 
  61:src/TCB.cpp   **** int TCB::exitThread() {
 329              		.loc 1 61 23 is_stmt 1
 330              		.cfi_startproc
 331 01d0 130101FE 		addi	sp,sp,-32
 332              		.cfi_def_cfa_offset 32
 333 01d4 233C1100 		sd	ra,24(sp)
 334 01d8 23388100 		sd	s0,16(sp)
 335 01dc 23349100 		sd	s1,8(sp)
 336 01e0 23302101 		sd	s2,0(sp)
 337              		.cfi_offset 1, -8
 338              		.cfi_offset 8, -16
 339              		.cfi_offset 9, -24
 340              		.cfi_offset 18, -32
 341 01e4 13040102 		addi	s0,sp,32
 342              		.cfi_def_cfa 8, 0
  62:src/TCB.cpp   ****     running->setFinished(true);
 343              		.loc 1 62 5
 344              		.loc 1 62 25 is_stmt 0
 345 01e8 97040000 		lla	s1,.LANCHOR0
 345      93840400 
 346 01f0 03B90400 		ld	s2,0(s1)
 347              	.LVL29:
 348              	.LBB19:
 349              	.LBB20:
  22:src/../h/TCB.hpp **** 
 350              		.loc 2 22 36 is_stmt 1
  22:src/../h/TCB.hpp **** 
 351              		.loc 2 22 45 is_stmt 0
 352 01f4 93071000 		li	a5,1
 353 01f8 2308F902 		sb	a5,48(s2)
 354              	.LVL30:
 355              	.LBE20:
 356              	.LBE19:
  63:src/TCB.cpp   ****     TCB *old = running;
 357              		.loc 1 63 5 is_stmt 1
  64:src/TCB.cpp   ****     running = Scheduler::get();
 358              		.loc 1 64 5
 359              		.loc 1 64 29 is_stmt 0
 360 01fc 97000000 		call	_ZN9Scheduler3getEv@plt
 360      E7800000 
 361              	.LVL31:
 362              		.loc 1 64 13
 363 0204 23B0A400 		sd	a0,0(s1)
  65:src/TCB.cpp   ****     timeSliceCounter=0;
 364              		.loc 1 65 5 is_stmt 1
 365              		.loc 1 65 21 is_stmt 0
 366 0208 23B40400 		sd	zero,8(s1)
  66:src/TCB.cpp   ****     TCB::contextSwitch(&old->context, &running->context);
 367              		.loc 1 66 5 is_stmt 1
 368              		.loc 1 66 23 is_stmt 0
 369 020c 93058501 		addi	a1,a0,24
 370 0210 13058901 		addi	a0,s2,24
GAS LISTING /tmp/ccI5aHYj.s 			page 10


 371 0214 97000000 		call	_ZN3TCB13contextSwitchEPNS_7ContextES1_@plt
 371      E7800000 
 372              	.LVL32:
  67:src/TCB.cpp   ****     if (running== nullptr)return -1;
 373              		.loc 1 67 5 is_stmt 1
 374              		.loc 1 67 16 is_stmt 0
 375 021c 83B70400 		ld	a5,0(s1)
 376              		.loc 1 67 5
 377 0220 63800702 		beqz	a5,.L20
  68:src/TCB.cpp   ****     return 0;
 378              		.loc 1 68 12
 379 0224 13050000 		li	a0,0
 380              	.L19:
  69:src/TCB.cpp   **** }
 381              		.loc 1 69 1
 382 0228 83308101 		ld	ra,24(sp)
 383              		.cfi_remember_state
 384              		.cfi_restore 1
 385 022c 03340101 		ld	s0,16(sp)
 386              		.cfi_restore 8
 387              		.cfi_def_cfa 2, 32
 388 0230 83348100 		ld	s1,8(sp)
 389              		.cfi_restore 9
 390 0234 03390100 		ld	s2,0(sp)
 391              		.cfi_restore 18
 392              	.LVL33:
 393 0238 13010102 		addi	sp,sp,32
 394              		.cfi_def_cfa_offset 0
 395 023c 67800000 		jr	ra
 396              	.LVL34:
 397              	.L20:
 398              		.cfi_restore_state
  67:src/TCB.cpp   ****     if (running== nullptr)return -1;
 399              		.loc 1 67 35
 400 0240 1305F0FF 		li	a0,-1
 401 0244 6FF05FFE 		j	.L19
 402              		.cfi_endproc
 403              	.LFE47:
 405              		.globl	_ZN3TCB16timeSliceCounterE
 406              		.globl	_ZN3TCB7runningE
 407              		.bss
 408              		.align	3
 409              		.set	.LANCHOR0,. + 0
 412              	_ZN3TCB7runningE:
 413 0000 00000000 		.zero	8
 413      00000000 
 416              	_ZN3TCB16timeSliceCounterE:
 417 0008 00000000 		.zero	8
 417      00000000 
 418              		.text
 419              	.Letext0:
 420              		.file 3 "src/../h/../lib/hw.h"
 421              		.file 4 "src/../h/scheduler.hpp"
 422              		.file 5 "src/../h/list.hpp"
 423              		.file 6 "src/../h/riscv.hpp"
 3112              		.align	3
 3115              	DW.ref.__gxx_personality_v0:
GAS LISTING /tmp/ccI5aHYj.s 			page 11


 3116 0000 00000000 		.dword	__gxx_personality_v0
 3116      00000000 
 3117              		.ident	"GCC: (Ubuntu 9.4.0-1ubuntu1~20.04) 9.4.0"
 3118              		.section	.note.GNU-stack,"",@progbits
GAS LISTING /tmp/ccI5aHYj.s 			page 12


DEFINED SYMBOLS
                            *ABS*:0000000000000000 TCB.cpp
     /tmp/ccI5aHYj.s:9      .text:0000000000000000 _ZN3TCB12createThreadEPFvPvES0_
     /tmp/ccI5aHYj.s:13     .text:0000000000000000 .L0 
     /tmp/ccI5aHYj.s:3115   .data.rel.local.DW.ref.__gxx_personality_v0:0000000000000000 DW.ref.__gxx_personality_v0
     /tmp/ccI5aHYj.s:17     .text:0000000000000000 .L0 
     /tmp/ccI5aHYj.s:18     .text:0000000000000004 .L0 
     /tmp/ccI5aHYj.s:24     .text:0000000000000018 .L0 
     /tmp/ccI5aHYj.s:25     .text:0000000000000018 .L0 
     /tmp/ccI5aHYj.s:26     .text:0000000000000018 .L0 
     /tmp/ccI5aHYj.s:27     .text:0000000000000018 .L0 
     /tmp/ccI5aHYj.s:28     .text:0000000000000018 .L0 
     /tmp/ccI5aHYj.s:30     .text:000000000000001c .L0 
     /tmp/ccI5aHYj.s:34     .text:0000000000000024 .L0 
     /tmp/ccI5aHYj.s:35     .text:0000000000000024 .L0 
     /tmp/ccI5aHYj.s:47     .text:0000000000000034 .L0 
     /tmp/ccI5aHYj.s:50     .text:000000000000003c .L0 
     /tmp/ccI5aHYj.s:52     .text:0000000000000040 .L0 
     /tmp/ccI5aHYj.s:60     .text:0000000000000050 .L0 
     /tmp/ccI5aHYj.s:63     .text:0000000000000054 .L0 
     /tmp/ccI5aHYj.s:266    .text:0000000000000174 _ZN3TCB13threadWrapperEv
     /tmp/ccI5aHYj.s:67     .text:0000000000000064 .L0 
     /tmp/ccI5aHYj.s:69     .text:0000000000000068 .L0 
     /tmp/ccI5aHYj.s:73     .text:0000000000000070 .L0 
     /tmp/ccI5aHYj.s:81     .text:0000000000000080 .L0 
     /tmp/ccI5aHYj.s:83     .text:0000000000000084 .L0 
     /tmp/ccI5aHYj.s:84     .text:0000000000000084 .L0 
     /tmp/ccI5aHYj.s:90     .text:0000000000000090 .L0 
     /tmp/ccI5aHYj.s:91     .text:0000000000000090 .L0 
     /tmp/ccI5aHYj.s:93     .text:0000000000000098 .L0 
     /tmp/ccI5aHYj.s:94     .text:0000000000000098 .L0 
     /tmp/ccI5aHYj.s:96     .text:000000000000009c .L0 
     /tmp/ccI5aHYj.s:97     .text:000000000000009c .L0 
     /tmp/ccI5aHYj.s:99     .text:00000000000000a0 .L0 
     /tmp/ccI5aHYj.s:102    .text:00000000000000a4 .L0 
     /tmp/ccI5aHYj.s:105    .text:00000000000000a8 .L0 
     /tmp/ccI5aHYj.s:108    .text:00000000000000ac .L0 
     /tmp/ccI5aHYj.s:112    .text:00000000000000b0 .L0 
     /tmp/ccI5aHYj.s:116    .text:00000000000000b0 .L0 
     /tmp/ccI5aHYj.s:124    .text:00000000000000bc .L0 
     /tmp/ccI5aHYj.s:131    .text:00000000000000d4 .L0 
     /tmp/ccI5aHYj.s:157    .text:00000000000000d4 _ZN3TCB8dispatchEv
     /tmp/ccI5aHYj.s:160    .text:00000000000000d4 .L0 
     /tmp/ccI5aHYj.s:161    .text:00000000000000d4 .L0 
     /tmp/ccI5aHYj.s:162    .text:00000000000000d8 .L0 
     /tmp/ccI5aHYj.s:166    .text:00000000000000e4 .L0 
     /tmp/ccI5aHYj.s:167    .text:00000000000000e4 .L0 
     /tmp/ccI5aHYj.s:168    .text:00000000000000e4 .L0 
     /tmp/ccI5aHYj.s:170    .text:00000000000000e8 .L0 
     /tmp/ccI5aHYj.s:172    .text:00000000000000e8 .L0 
     /tmp/ccI5aHYj.s:173    .text:00000000000000e8 .L0 
     /tmp/ccI5aHYj.s:178    .text:00000000000000f0 .L0 
     /tmp/ccI5aHYj.s:179    .text:00000000000000f0 .L0 
     /tmp/ccI5aHYj.s:180    .text:00000000000000f0 .L0 
     /tmp/ccI5aHYj.s:185    .text:00000000000000f4 .L0 
     /tmp/ccI5aHYj.s:188    .text:00000000000000f8 .L0 
     /tmp/ccI5aHYj.s:189    .text:00000000000000f8 .L0 
GAS LISTING /tmp/ccI5aHYj.s 			page 13


     /tmp/ccI5aHYj.s:192    .text:0000000000000100 .L0 
     /tmp/ccI5aHYj.s:194    .text:0000000000000108 .L0 
     /tmp/ccI5aHYj.s:195    .text:0000000000000108 .L0 
     /tmp/ccI5aHYj.s:200    .text:0000000000000118 .L0 
     /tmp/ccI5aHYj.s:201    .text:000000000000011c .L0 
     /tmp/ccI5aHYj.s:202    .text:000000000000011c .L0 
     /tmp/ccI5aHYj.s:204    .text:0000000000000120 .L0 
     /tmp/ccI5aHYj.s:205    .text:0000000000000120 .L0 
     /tmp/ccI5aHYj.s:207    .text:0000000000000124 .L0 
     /tmp/ccI5aHYj.s:210    .text:0000000000000128 .L0 
     /tmp/ccI5aHYj.s:214    .text:000000000000012c .L0 
     /tmp/ccI5aHYj.s:216    .text:000000000000012c .L0 
     /tmp/ccI5aHYj.s:217    .text:000000000000012c .L0 
     /tmp/ccI5aHYj.s:221    .text:000000000000013c .L0 
     /tmp/ccI5aHYj.s:227    .text:000000000000013c _ZN3TCB5yieldEv
     /tmp/ccI5aHYj.s:230    .text:000000000000013c .L0 
     /tmp/ccI5aHYj.s:231    .text:000000000000013c .L0 
     /tmp/ccI5aHYj.s:232    .text:0000000000000140 .L0 
     /tmp/ccI5aHYj.s:235    .text:0000000000000148 .L0 
     /tmp/ccI5aHYj.s:236    .text:0000000000000148 .L0 
     /tmp/ccI5aHYj.s:238    .text:000000000000014c .L0 
     /tmp/ccI5aHYj.s:240    .text:000000000000014c .L0 
     /tmp/ccI5aHYj.s:241    .text:000000000000014c .L0 
     /tmp/ccI5aHYj.s:244    .text:0000000000000154 .L0 
     /tmp/ccI5aHYj.s:245    .text:0000000000000154 .L0 
     /tmp/ccI5aHYj.s:248    .text:000000000000015c .L0 
     /tmp/ccI5aHYj.s:249    .text:000000000000015c .L0 
     /tmp/ccI5aHYj.s:252    .text:0000000000000164 .L0 
     /tmp/ccI5aHYj.s:253    .text:0000000000000168 .L0 
     /tmp/ccI5aHYj.s:255    .text:000000000000016c .L0 
     /tmp/ccI5aHYj.s:256    .text:000000000000016c .L0 
     /tmp/ccI5aHYj.s:258    .text:0000000000000170 .L0 
     /tmp/ccI5aHYj.s:260    .text:0000000000000174 .L0 
     /tmp/ccI5aHYj.s:269    .text:0000000000000174 .L0 
     /tmp/ccI5aHYj.s:270    .text:0000000000000174 .L0 
     /tmp/ccI5aHYj.s:271    .text:0000000000000178 .L0 
     /tmp/ccI5aHYj.s:275    .text:0000000000000184 .L0 
     /tmp/ccI5aHYj.s:276    .text:0000000000000184 .L0 
     /tmp/ccI5aHYj.s:277    .text:0000000000000184 .L0 
     /tmp/ccI5aHYj.s:279    .text:0000000000000188 .L0 
     /tmp/ccI5aHYj.s:281    .text:0000000000000188 .L0 
     /tmp/ccI5aHYj.s:282    .text:0000000000000188 .L0 
     /tmp/ccI5aHYj.s:285    .text:0000000000000190 .L0 
     /tmp/ccI5aHYj.s:286    .text:0000000000000190 .L0 
     /tmp/ccI5aHYj.s:290    .text:00000000000001a0 .L0 
     /tmp/ccI5aHYj.s:294    .text:00000000000001a8 .L0 
     /tmp/ccI5aHYj.s:295    .text:00000000000001a8 .L0 
     /tmp/ccI5aHYj.s:300    .text:00000000000001ac .L0 
     /tmp/ccI5aHYj.s:301    .text:00000000000001ac .L0 
     /tmp/ccI5aHYj.s:307    .text:00000000000001b4 .L0 
     /tmp/ccI5aHYj.s:308    .text:00000000000001b4 .L0 
     /tmp/ccI5aHYj.s:311    .text:00000000000001bc .L0 
     /tmp/ccI5aHYj.s:312    .text:00000000000001c0 .L0 
     /tmp/ccI5aHYj.s:314    .text:00000000000001c4 .L0 
     /tmp/ccI5aHYj.s:315    .text:00000000000001c4 .L0 
     /tmp/ccI5aHYj.s:317    .text:00000000000001c8 .L0 
     /tmp/ccI5aHYj.s:319    .text:00000000000001cc .L0 
GAS LISTING /tmp/ccI5aHYj.s 			page 14


     /tmp/ccI5aHYj.s:321    .text:00000000000001d0 .L0 
     /tmp/ccI5aHYj.s:327    .text:00000000000001d0 _ZN3TCB10exitThreadEv
     /tmp/ccI5aHYj.s:330    .text:00000000000001d0 .L0 
     /tmp/ccI5aHYj.s:331    .text:00000000000001d0 .L0 
     /tmp/ccI5aHYj.s:332    .text:00000000000001d4 .L0 
     /tmp/ccI5aHYj.s:337    .text:00000000000001e4 .L0 
     /tmp/ccI5aHYj.s:338    .text:00000000000001e4 .L0 
     /tmp/ccI5aHYj.s:339    .text:00000000000001e4 .L0 
     /tmp/ccI5aHYj.s:340    .text:00000000000001e4 .L0 
     /tmp/ccI5aHYj.s:342    .text:00000000000001e8 .L0 
     /tmp/ccI5aHYj.s:344    .text:00000000000001e8 .L0 
     /tmp/ccI5aHYj.s:345    .text:00000000000001e8 .L0 
     /tmp/ccI5aHYj.s:351    .text:00000000000001f4 .L0 
     /tmp/ccI5aHYj.s:352    .text:00000000000001f4 .L0 
     /tmp/ccI5aHYj.s:358    .text:00000000000001fc .L0 
     /tmp/ccI5aHYj.s:359    .text:00000000000001fc .L0 
     /tmp/ccI5aHYj.s:360    .text:00000000000001fc .L0 
     /tmp/ccI5aHYj.s:363    .text:0000000000000204 .L0 
     /tmp/ccI5aHYj.s:365    .text:0000000000000208 .L0 
     /tmp/ccI5aHYj.s:366    .text:0000000000000208 .L0 
     /tmp/ccI5aHYj.s:368    .text:000000000000020c .L0 
     /tmp/ccI5aHYj.s:369    .text:000000000000020c .L0 
     /tmp/ccI5aHYj.s:374    .text:000000000000021c .L0 
     /tmp/ccI5aHYj.s:375    .text:000000000000021c .L0 
     /tmp/ccI5aHYj.s:377    .text:0000000000000220 .L0 
     /tmp/ccI5aHYj.s:379    .text:0000000000000224 .L0 
     /tmp/ccI5aHYj.s:382    .text:0000000000000228 .L0 
     /tmp/ccI5aHYj.s:383    .text:000000000000022c .L0 
     /tmp/ccI5aHYj.s:384    .text:000000000000022c .L0 
     /tmp/ccI5aHYj.s:386    .text:0000000000000230 .L0 
     /tmp/ccI5aHYj.s:387    .text:0000000000000230 .L0 
     /tmp/ccI5aHYj.s:389    .text:0000000000000234 .L0 
     /tmp/ccI5aHYj.s:391    .text:0000000000000238 .L0 
     /tmp/ccI5aHYj.s:394    .text:000000000000023c .L0 
     /tmp/ccI5aHYj.s:398    .text:0000000000000240 .L0 
     /tmp/ccI5aHYj.s:400    .text:0000000000000240 .L0 
     /tmp/ccI5aHYj.s:402    .text:0000000000000248 .L0 
     /tmp/ccI5aHYj.s:416    .bss:0000000000000008 _ZN3TCB16timeSliceCounterE
     /tmp/ccI5aHYj.s:412    .bss:0000000000000000 _ZN3TCB7runningE
     /tmp/ccI5aHYj.s:409    .bss:0000000000000000 .LANCHOR0
     /tmp/ccI5aHYj.s:424    .text:0000000000000248 .L0 
     /tmp/ccI5aHYj.s:64     .text:0000000000000058 .L0 
     /tmp/ccI5aHYj.s:173    .text:00000000000000e8 .L0 
     /tmp/ccI5aHYj.s:192    .text:0000000000000100 .L0 
     /tmp/ccI5aHYj.s:286    .text:0000000000000190 .L0 
     /tmp/ccI5aHYj.s:345    .text:00000000000001e8 .L0 
     /tmp/ccI5aHYj.s:58     .text:0000000000000050 .L6
     /tmp/ccI5aHYj.s:61     .text:0000000000000054 .L2
     /tmp/ccI5aHYj.s:111    .text:00000000000000b0 .L7
     /tmp/ccI5aHYj.s:89     .text:0000000000000090 .L1
     /tmp/ccI5aHYj.s:71     .text:0000000000000070 .L3
     /tmp/ccI5aHYj.s:213    .text:000000000000012c .L13
     /tmp/ccI5aHYj.s:186    .text:00000000000000f8 .L11
     /tmp/ccI5aHYj.s:397    .text:0000000000000240 .L20
     /tmp/ccI5aHYj.s:380    .text:0000000000000228 .L19
     /tmp/ccI5aHYj.s:37     .text:0000000000000028 .LEHB0
     /tmp/ccI5aHYj.s:10     .text:0000000000000000 .LFB43
GAS LISTING /tmp/ccI5aHYj.s 			page 15


     /tmp/ccI5aHYj.s:40     .text:0000000000000030 .LEHE0
     /tmp/ccI5aHYj.s:53     .text:0000000000000044 .LEHB1
     /tmp/ccI5aHYj.s:56     .text:000000000000004c .LEHE1
     /tmp/ccI5aHYj.s:118    .text:00000000000000b8 .L8
     /tmp/ccI5aHYj.s:85     .text:0000000000000088 .LEHB2
     /tmp/ccI5aHYj.s:130    .text:00000000000000d4 .LEHE2
     /tmp/ccI5aHYj.s:1627   .debug_abbrev:0000000000000000 .Ldebug_abbrev0
     /tmp/ccI5aHYj.s:3065   .debug_str:000000000000072c .LASF129
     /tmp/ccI5aHYj.s:2855   .debug_str:00000000000000f6 .LASF130
     /tmp/ccI5aHYj.s:2907   .debug_str:0000000000000290 .LASF131
     /tmp/ccI5aHYj.s:5      .text:0000000000000000 .Ltext0
     /tmp/ccI5aHYj.s:419    .text:0000000000000248 .Letext0
     /tmp/ccI5aHYj.s:2821   .debug_line:0000000000000000 .Ldebug_line0
     /tmp/ccI5aHYj.s:2987   .debug_str:00000000000004ee .LASF0
     /tmp/ccI5aHYj.s:3001   .debug_str:0000000000000544 .LASF1
     /tmp/ccI5aHYj.s:2967   .debug_str:000000000000046f .LASF2
     /tmp/ccI5aHYj.s:2935   .debug_str:0000000000000384 .LASF4
     /tmp/ccI5aHYj.s:3039   .debug_str:0000000000000677 .LASF3
     /tmp/ccI5aHYj.s:2851   .debug_str:00000000000000da .LASF5
     /tmp/ccI5aHYj.s:3005   .debug_str:000000000000055c .LASF6
     /tmp/ccI5aHYj.s:2985   .debug_str:00000000000004db .LASF7
     /tmp/ccI5aHYj.s:3077   .debug_str:000000000000082a .LASF8
     /tmp/ccI5aHYj.s:2919   .debug_str:00000000000002e8 .LASF9
     /tmp/ccI5aHYj.s:3017   .debug_str:00000000000005c8 .LASF10
     /tmp/ccI5aHYj.s:3069   .debug_str:00000000000007fc .LASF11
     /tmp/ccI5aHYj.s:2953   .debug_str:00000000000003f5 .LASF12
     /tmp/ccI5aHYj.s:2829   .debug_str:0000000000000040 .LASF13
     /tmp/ccI5aHYj.s:2869   .debug_str:0000000000000164 .LASF14
     /tmp/ccI5aHYj.s:3031   .debug_str:0000000000000633 .LASF15
     /tmp/ccI5aHYj.s:2879   .debug_str:00000000000001b8 .LASF16
     /tmp/ccI5aHYj.s:3015   .debug_str:00000000000005be .LASF17
     /tmp/ccI5aHYj.s:2909   .debug_str:00000000000002ae .LASF68
     /tmp/ccI5aHYj.s:2993   .debug_str:000000000000050b .LASF19
     /tmp/ccI5aHYj.s:2963   .debug_str:0000000000000456 .LASF80
     /tmp/ccI5aHYj.s:2929   .debug_str:0000000000000343 .LASF132
     /tmp/ccI5aHYj.s:2865   .debug_str:0000000000000142 .LASF133
     /tmp/ccI5aHYj.s:3067   .debug_str:00000000000007f0 .LASF22
     /tmp/ccI5aHYj.s:3007   .debug_str:000000000000056f .LASF24
     /tmp/ccI5aHYj.s:2959   .debug_str:000000000000043f .LASF18
     /tmp/ccI5aHYj.s:3071   .debug_str:000000000000080b .LASF134
     /tmp/ccI5aHYj.s:2885   .debug_str:00000000000001ed .LASF20
     /tmp/ccI5aHYj.s:2973   .debug_str:0000000000000495 .LASF21
     /tmp/ccI5aHYj.s:2933   .debug_str:000000000000037f .LASF23
     /tmp/ccI5aHYj.s:3057   .debug_str:00000000000006f3 .LASF25
     /tmp/ccI5aHYj.s:3029   .debug_str:000000000000061c .LASF31
     /tmp/ccI5aHYj.s:2979   .debug_str:00000000000004b4 .LASF135
     /tmp/ccI5aHYj.s:2923   .debug_str:0000000000000304 .LASF136
     /tmp/ccI5aHYj.s:3063   .debug_str:0000000000000723 .LASF26
     /tmp/ccI5aHYj.s:2889   .debug_str:000000000000020e .LASF27
     /tmp/ccI5aHYj.s:2917   .debug_str:00000000000002e0 .LASF28
     /tmp/ccI5aHYj.s:2887   .debug_str:00000000000001f2 .LASF29
     /tmp/ccI5aHYj.s:2971   .debug_str:0000000000000489 .LASF30
     /tmp/ccI5aHYj.s:2825   .debug_str:0000000000000008 .LASF32
     /tmp/ccI5aHYj.s:2863   .debug_str:0000000000000138 .LASF33
     /tmp/ccI5aHYj.s:2947   .debug_str:00000000000003c0 .LASF34
     /tmp/ccI5aHYj.s:2883   .debug_str:00000000000001e2 .LASF35
     /tmp/ccI5aHYj.s:2841   .debug_str:0000000000000074 .LASF36
GAS LISTING /tmp/ccI5aHYj.s 			page 16


     /tmp/ccI5aHYj.s:2951   .debug_str:00000000000003ec .LASF37
     /tmp/ccI5aHYj.s:3089   .debug_str:000000000000088e .LASF38
     /tmp/ccI5aHYj.s:2835   .debug_str:000000000000005f .LASF137
     /tmp/ccI5aHYj.s:3081   .debug_str:0000000000000852 .LASF53
     /tmp/ccI5aHYj.s:2891   .debug_str:000000000000022b .LASF39
     /tmp/ccI5aHYj.s:3023   .debug_str:00000000000005f5 .LASF40
     /tmp/ccI5aHYj.s:3009   .debug_str:000000000000058c .LASF41
     /tmp/ccI5aHYj.s:2875   .debug_str:000000000000018b .LASF42
     /tmp/ccI5aHYj.s:2969   .debug_str:000000000000047d .LASF43
     /tmp/ccI5aHYj.s:3103   .debug_str:00000000000008ff .LASF44
     /tmp/ccI5aHYj.s:2961   .debug_str:0000000000000449 .LASF45
     /tmp/ccI5aHYj.s:2849   .debug_str:00000000000000c1 .LASF46
     /tmp/ccI5aHYj.s:3025   .debug_str:0000000000000601 .LASF138
     /tmp/ccI5aHYj.s:2981   .debug_str:00000000000004be .LASF47
     /tmp/ccI5aHYj.s:2941   .debug_str:0000000000000399 .LASF48
     /tmp/ccI5aHYj.s:2837   .debug_str:0000000000000067 .LASF49
     /tmp/ccI5aHYj.s:2949   .debug_str:00000000000003db .LASF50
     /tmp/ccI5aHYj.s:2945   .debug_str:00000000000003b3 .LASF51
     /tmp/ccI5aHYj.s:2999   .debug_str:0000000000000524 .LASF52
     /tmp/ccI5aHYj.s:3033   .debug_str:0000000000000649 .LASF64
     /tmp/ccI5aHYj.s:2977   .debug_str:00000000000004a4 .LASF66
     /tmp/ccI5aHYj.s:2897   .debug_str:0000000000000254 .LASF139
     /tmp/ccI5aHYj.s:2983   .debug_str:00000000000004c6 .LASF54
     /tmp/ccI5aHYj.s:2939   .debug_str:0000000000000394 .LASF55
     /tmp/ccI5aHYj.s:2871   .debug_str:0000000000000170 .LASF56
     /tmp/ccI5aHYj.s:2943   .debug_str:00000000000003ab .LASF57
     /tmp/ccI5aHYj.s:2995   .debug_str:0000000000000514 .LASF58
     /tmp/ccI5aHYj.s:2937   .debug_str:000000000000038b .LASF59
     /tmp/ccI5aHYj.s:2921   .debug_str:00000000000002f6 .LASF60
     /tmp/ccI5aHYj.s:2925   .debug_str:000000000000031b .LASF62
     /tmp/ccI5aHYj.s:3085   .debug_str:0000000000000873 .LASF140
     /tmp/ccI5aHYj.s:2931   .debug_str:0000000000000357 .LASF141
     /tmp/ccI5aHYj.s:2991   .debug_str:0000000000000502 .LASF61
     /tmp/ccI5aHYj.s:2903   .debug_str:0000000000000278 .LASF63
     /tmp/ccI5aHYj.s:3019   .debug_str:00000000000005d7 .LASF65
     /tmp/ccI5aHYj.s:3027   .debug_str:0000000000000606 .LASF67
     /tmp/ccI5aHYj.s:3041   .debug_str:0000000000000689 .LASF69
     /tmp/ccI5aHYj.s:2905   .debug_str:000000000000028b .LASF70
     /tmp/ccI5aHYj.s:2997   .debug_str:000000000000051e .LASF71
     /tmp/ccI5aHYj.s:3045   .debug_str:00000000000006a1 .LASF72
     /tmp/ccI5aHYj.s:3095   .debug_str:00000000000008c0 .LASF73
     /tmp/ccI5aHYj.s:2847   .debug_str:00000000000000b3 .LASF74
     /tmp/ccI5aHYj.s:2895   .debug_str:0000000000000239 .LASF75
     /tmp/ccI5aHYj.s:3055   .debug_str:00000000000006e6 .LASF76
     /tmp/ccI5aHYj.s:2827   .debug_str:0000000000000026 .LASF77
     /tmp/ccI5aHYj.s:2831   .debug_str:0000000000000050 .LASF78
     /tmp/ccI5aHYj.s:3053   .debug_str:00000000000006d1 .LASF83
     /tmp/ccI5aHYj.s:2893   .debug_str:0000000000000230 .LASF79
     /tmp/ccI5aHYj.s:2853   .debug_str:00000000000000e1 .LASF81
     /tmp/ccI5aHYj.s:3043   .debug_str:000000000000069a .LASF82
     /tmp/ccI5aHYj.s:3021   .debug_str:00000000000005e2 .LASF84
     /tmp/ccI5aHYj.s:3073   .debug_str:0000000000000810 .LASF85
     /tmp/ccI5aHYj.s:3075   .debug_str:0000000000000817 .LASF86
     /tmp/ccI5aHYj.s:2913   .debug_str:00000000000002d2 .LASF87
     /tmp/ccI5aHYj.s:2881   .debug_str:00000000000001ce .LASF88
     /tmp/ccI5aHYj.s:2823   .debug_str:0000000000000000 .LASF89
     /tmp/ccI5aHYj.s:3097   .debug_str:00000000000008d8 .LASF90
GAS LISTING /tmp/ccI5aHYj.s 			page 17


     /tmp/ccI5aHYj.s:2899   .debug_str:000000000000025c .LASF91
     /tmp/ccI5aHYj.s:2857   .debug_str:0000000000000102 .LASF92
     /tmp/ccI5aHYj.s:3101   .debug_str:00000000000008f7 .LASF93
     /tmp/ccI5aHYj.s:2901   .debug_str:0000000000000264 .LASF94
     /tmp/ccI5aHYj.s:2989   .debug_str:00000000000004fb .LASF95
     /tmp/ccI5aHYj.s:3091   .debug_str:00000000000008a8 .LASF96
     /tmp/ccI5aHYj.s:2843   .debug_str:0000000000000091 .LASF97
     /tmp/ccI5aHYj.s:2911   .debug_str:00000000000002bf .LASF98
     /tmp/ccI5aHYj.s:2915   .debug_str:00000000000002da .LASF99
     /tmp/ccI5aHYj.s:3061   .debug_str:0000000000000711 .LASF100
     /tmp/ccI5aHYj.s:2839   .debug_str:000000000000006e .LASF101
     /tmp/ccI5aHYj.s:3107   .debug_str:0000000000000927 .LASF102
     /tmp/ccI5aHYj.s:3099   .debug_str:00000000000008ec .LASF103
     /tmp/ccI5aHYj.s:3037   .debug_str:000000000000065f .LASF104
     /tmp/ccI5aHYj.s:3059   .debug_str:0000000000000706 .LASF105
     /tmp/ccI5aHYj.s:2957   .debug_str:0000000000000427 .LASF106
     /tmp/ccI5aHYj.s:2867   .debug_str:000000000000015a .LASF107
     /tmp/ccI5aHYj.s:3013   .debug_str:00000000000005a8 .LASF108
     /tmp/ccI5aHYj.s:2975   .debug_str:000000000000049a .LASF109
     /tmp/ccI5aHYj.s:2877   .debug_str:00000000000001a2 .LASF110
     /tmp/ccI5aHYj.s:3003   .debug_str:0000000000000557 .LASF111
     /tmp/ccI5aHYj.s:3011   .debug_str:0000000000000597 .LASF112
     /tmp/ccI5aHYj.s:3047   .debug_str:00000000000006ac .LASF113
     /tmp/ccI5aHYj.s:2859   .debug_str:0000000000000116 .LASF114
     /tmp/ccI5aHYj.s:3083   .debug_str:000000000000085e .LASF115
     /tmp/ccI5aHYj.s:2955   .debug_str:0000000000000405 .LASF116
     /tmp/ccI5aHYj.s:3105   .debug_str:0000000000000916 .LASF117
     /tmp/ccI5aHYj.s:2845   .debug_str:0000000000000098 .LASF118
     /tmp/ccI5aHYj.s:328    .text:00000000000001d0 .LFB47
     /tmp/ccI5aHYj.s:403    .text:0000000000000248 .LFE47
     /tmp/ccI5aHYj.s:2626   .debug_loc:0000000000000000 .LLST11
     /tmp/ccI5aHYj.s:348    .text:00000000000001f4 .LBB19
     /tmp/ccI5aHYj.s:356    .text:00000000000001fc .LBE19
     /tmp/ccI5aHYj.s:2637   .debug_loc:0000000000000036 .LLST12
     /tmp/ccI5aHYj.s:2645   .debug_loc:000000000000005a .LLST13
     /tmp/ccI5aHYj.s:361    .text:0000000000000204 .LVL31
     /tmp/ccI5aHYj.s:372    .text:000000000000021c .LVL32
     /tmp/ccI5aHYj.s:267    .text:0000000000000174 .LFB46
     /tmp/ccI5aHYj.s:322    .text:00000000000001d0 .LFE46
     /tmp/ccI5aHYj.s:297    .text:00000000000001ac .LBB17
     /tmp/ccI5aHYj.s:305    .text:00000000000001b4 .LBE17
     /tmp/ccI5aHYj.s:2652   .debug_loc:000000000000007d .LLST9
     /tmp/ccI5aHYj.s:2660   .debug_loc:00000000000000a1 .LLST10
     /tmp/ccI5aHYj.s:283    .text:0000000000000190 .LVL24
     /tmp/ccI5aHYj.s:309    .text:00000000000001bc .LVL28
     /tmp/ccI5aHYj.s:158    .text:00000000000000d4 .LFB45
     /tmp/ccI5aHYj.s:222    .text:000000000000013c .LFE45
     /tmp/ccI5aHYj.s:2667   .debug_loc:00000000000000c4 .LLST7
     /tmp/ccI5aHYj.s:176    .text:00000000000000f0 .LBB15
     /tmp/ccI5aHYj.s:183    .text:00000000000000f4 .LBE15
     /tmp/ccI5aHYj.s:2678   .debug_loc:00000000000000fa .LLST8
     /tmp/ccI5aHYj.s:190    .text:0000000000000100 .LVL16
     /tmp/ccI5aHYj.s:198    .text:0000000000000118 .LVL17
     /tmp/ccI5aHYj.s:219    .text:0000000000000138 .LVL20
     /tmp/ccI5aHYj.s:228    .text:000000000000013c .LFB44
     /tmp/ccI5aHYj.s:261    .text:0000000000000174 .LFE44
     /tmp/ccI5aHYj.s:242    .text:0000000000000154 .LVL21
GAS LISTING /tmp/ccI5aHYj.s 			page 18


     /tmp/ccI5aHYj.s:246    .text:000000000000015c .LVL22
     /tmp/ccI5aHYj.s:250    .text:0000000000000164 .LVL23
     /tmp/ccI5aHYj.s:132    .text:00000000000000d4 .LFE43
     /tmp/ccI5aHYj.s:2685   .debug_loc:000000000000011d .LLST0
     /tmp/ccI5aHYj.s:2714   .debug_loc:0000000000000192 .LLST1
     /tmp/ccI5aHYj.s:2736   .debug_loc:00000000000001f1 .LLST2
     /tmp/ccI5aHYj.s:43     .text:0000000000000034 .LBB11
     /tmp/ccI5aHYj.s:2813   .debug_ranges:0000000000000000 .Ldebug_ranges0
     /tmp/ccI5aHYj.s:2747   .debug_loc:0000000000000227 .LLST3
     /tmp/ccI5aHYj.s:2760   .debug_loc:000000000000025f .LLST4
     /tmp/ccI5aHYj.s:2771   .debug_loc:0000000000000295 .LLST5
     /tmp/ccI5aHYj.s:2789   .debug_loc:00000000000002e1 .LLST6
     /tmp/ccI5aHYj.s:55     .text:000000000000004c .LVL4
     /tmp/ccI5aHYj.s:39     .text:0000000000000030 .LVL2
     /tmp/ccI5aHYj.s:87     .text:0000000000000090 .LVL6
     /tmp/ccI5aHYj.s:126    .text:00000000000000c8 .LVL12
     /tmp/ccI5aHYj.s:129    .text:00000000000000d4 .LVL13
     /tmp/ccI5aHYj.s:3093   .debug_str:00000000000008bb .LASF119
     /tmp/ccI5aHYj.s:2873   .debug_str:0000000000000176 .LASF142
     /tmp/ccI5aHYj.s:2861   .debug_str:0000000000000132 .LASF120
     /tmp/ccI5aHYj.s:3051   .debug_str:00000000000006cb .LASF121
     /tmp/ccI5aHYj.s:3035   .debug_str:000000000000064f .LASF123
     /tmp/ccI5aHYj.s:2833   .debug_str:0000000000000059 .LASF122
     /tmp/ccI5aHYj.s:3087   .debug_str:0000000000000881 .LASF124
     /tmp/ccI5aHYj.s:2965   .debug_str:0000000000000468 .LASF125
     /tmp/ccI5aHYj.s:3049   .debug_str:00000000000006bb .LASF126
     /tmp/ccI5aHYj.s:2927   .debug_str:0000000000000334 .LASF127
     /tmp/ccI5aHYj.s:3079   .debug_str:000000000000083a .LASF128
     /tmp/ccI5aHYj.s:354    .text:00000000000001fc .LVL30
     /tmp/ccI5aHYj.s:392    .text:0000000000000238 .LVL33
     /tmp/ccI5aHYj.s:396    .text:0000000000000240 .LVL34
     /tmp/ccI5aHYj.s:347    .text:00000000000001f4 .LVL29
     /tmp/ccI5aHYj.s:296    .text:00000000000001ac .LVL26
     /tmp/ccI5aHYj.s:303    .text:00000000000001b4 .LVL27
     /tmp/ccI5aHYj.s:174    .text:00000000000000f0 .LVL14
     /tmp/ccI5aHYj.s:208    .text:0000000000000124 .LVL18
     /tmp/ccI5aHYj.s:212    .text:000000000000012c .LVL19
     /tmp/ccI5aHYj.s:181    .text:00000000000000f4 .LVL15
     /tmp/ccI5aHYj.s:16     .text:0000000000000000 .LVL0
     /tmp/ccI5aHYj.s:36     .text:0000000000000028 .LVL1
     /tmp/ccI5aHYj.s:103    .text:00000000000000a4 .LVL8
     /tmp/ccI5aHYj.s:110    .text:00000000000000b0 .LVL10
     /tmp/ccI5aHYj.s:120    .text:00000000000000bc .LVL11
     /tmp/ccI5aHYj.s:106    .text:00000000000000a8 .LVL9
     /tmp/ccI5aHYj.s:77     .text:0000000000000080 .LVL5
     /tmp/ccI5aHYj.s:100    .text:00000000000000a0 .LVL7
     /tmp/ccI5aHYj.s:42     .text:0000000000000034 .LVL3
     /tmp/ccI5aHYj.s:425    .debug_info:0000000000000000 .Ldebug_info0
     /tmp/ccI5aHYj.s:79     .text:0000000000000080 .LBE11
     /tmp/ccI5aHYj.s:113    .text:00000000000000b0 .LBB14
     /tmp/ccI5aHYj.s:122    .text:00000000000000bc .LBE14
     /tmp/ccI5aHYj.s:135    .gcc_except_table:0000000000000000 .LLSDA43

UNDEFINED SYMBOLS
_Znwm
_Znam
_ZN9Scheduler3putEP3TCB
GAS LISTING /tmp/ccI5aHYj.s 			page 19


_ZdlPv
_Unwind_Resume
__gxx_personality_v0
_ZN9Scheduler3getEv
_ZN3TCB13contextSwitchEPNS_7ContextES1_
_ZN5Riscv13pushRegistersEv
_ZN5Riscv12popRegistersEv
_ZN5Riscv10popSppSpieEv
