GAS LISTING /tmp/cckQMxtt.s 			page 1


   1              		.file	"buffer_CPP_API.cpp"
   2              		.option pic
   3              		.option norelax
   4              		.text
   5              	.Ltext0:
   6              		.align	2
   7              		.globl	_ZN9BufferCPPC2Ei
   9              	_ZN9BufferCPPC2Ei:
  10              	.LFB37:
  11              		.file 1 "test/buffer_CPP_API.cpp"
   1:test/buffer_CPP_API.cpp **** #include "buffer_CPP_API.hpp"
   2:test/buffer_CPP_API.cpp **** 
   3:test/buffer_CPP_API.cpp **** BufferCPP::BufferCPP(int _cap) : cap(_cap + 1), head(0), tail(0) {
  12              		.loc 1 3 1
  13              		.cfi_startproc
  14              	.LVL0:
  15 0000 130101FE 		addi	sp,sp,-32
  16              		.cfi_def_cfa_offset 32
  17 0004 233C1100 		sd	ra,24(sp)
  18 0008 23388100 		sd	s0,16(sp)
  19 000c 23349100 		sd	s1,8(sp)
  20 0010 23302101 		sd	s2,0(sp)
  21              		.cfi_offset 1, -8
  22              		.cfi_offset 8, -16
  23              		.cfi_offset 9, -24
  24              		.cfi_offset 18, -32
  25 0014 13040102 		addi	s0,sp,32
  26              		.cfi_def_cfa 8, 0
  27 0018 93040500 		mv	s1,a0
  28              	.LBB15:
  29              		.loc 1 3 43 is_stmt 0
  30 001c 9B851500 		addiw	a1,a1,1
  31              	.LVL1:
  32 0020 1B850500 		sext.w	a0,a1
  33              	.LVL2:
  34              		.loc 1 3 64
  35 0024 23A0B400 		sw	a1,0(s1)
  36 0028 23A80400 		sw	zero,16(s1)
  37 002c 23AA0400 		sw	zero,20(s1)
   4:test/buffer_CPP_API.cpp ****     buffer = (int *)mem_alloc(sizeof(int) * cap);
  38              		.loc 1 4 5 is_stmt 1
  39              		.loc 1 4 30 is_stmt 0
  40 0030 13152500 		slli	a0,a0,2
  41 0034 97000000 		call	_Z9mem_allocm@plt
  41      E7800000 
  42              	.LVL3:
  43              		.loc 1 4 12
  44 003c 23B4A400 		sd	a0,8(s1)
   5:test/buffer_CPP_API.cpp ****     itemAvailable = new Semaphore(0);
  45              		.loc 1 5 5 is_stmt 1
  46              		.loc 1 5 36 is_stmt 0
  47 0040 13050001 		li	a0,16
  48 0044 97000000 		call	_Znwm@plt
  48      E7800000 
  49              	.LVL4:
  50              	.LBB16:
  51              	.LBB17:
GAS LISTING /tmp/cckQMxtt.s 			page 2


  52              		.file 2 "test/../h/syscall_cpp.hpp"
   1:test/../h/syscall_cpp.hpp **** #ifndef _syscall_cpp
   2:test/../h/syscall_cpp.hpp **** #define _syscall_cpp
   3:test/../h/syscall_cpp.hpp **** #include "../lib/console.h"
   4:test/../h/syscall_cpp.hpp **** //#include "riscv.hpp"
   5:test/../h/syscall_cpp.hpp **** //#include "TCB.hpp"
   6:test/../h/syscall_cpp.hpp **** #include "syscall_c.h"
   7:test/../h/syscall_cpp.hpp **** 
   8:test/../h/syscall_cpp.hpp **** 
   9:test/../h/syscall_cpp.hpp **** void* operator new (size_t n);
  10:test/../h/syscall_cpp.hpp **** void operator delete (void* p);
  11:test/../h/syscall_cpp.hpp **** 
  12:test/../h/syscall_cpp.hpp **** class Thread {
  13:test/../h/syscall_cpp.hpp ****     using Body = void (*)(void*);
  14:test/../h/syscall_cpp.hpp **** public:
  15:test/../h/syscall_cpp.hpp ****     Thread(void (*body)(void*), void* arg);
  16:test/../h/syscall_cpp.hpp **** 
  17:test/../h/syscall_cpp.hpp ****     virtual ~Thread ();
  18:test/../h/syscall_cpp.hpp ****     int start ();
  19:test/../h/syscall_cpp.hpp ****     static void dispatch ();
  20:test/../h/syscall_cpp.hpp ****     static int sleep (time_t);
  21:test/../h/syscall_cpp.hpp **** //    static  void myWrapper();
  22:test/../h/syscall_cpp.hpp **** 
  23:test/../h/syscall_cpp.hpp **** protected:
  24:test/../h/syscall_cpp.hpp ****     Thread ();
  25:test/../h/syscall_cpp.hpp ****     virtual void run (){}
  26:test/../h/syscall_cpp.hpp **** private:
  27:test/../h/syscall_cpp.hpp ****     thread_t myHandle;
  28:test/../h/syscall_cpp.hpp ****     static void myWrapper(void* ptr)
  29:test/../h/syscall_cpp.hpp ****     {
  30:test/../h/syscall_cpp.hpp ****         Thread* thread = (Thread*)ptr;
  31:test/../h/syscall_cpp.hpp ****         thread->run();
  32:test/../h/syscall_cpp.hpp ****     }
  33:test/../h/syscall_cpp.hpp **** 
  34:test/../h/syscall_cpp.hpp **** };
  35:test/../h/syscall_cpp.hpp **** 
  36:test/../h/syscall_cpp.hpp **** 
  37:test/../h/syscall_cpp.hpp **** class Semaphore {
  38:test/../h/syscall_cpp.hpp **** public:
  39:test/../h/syscall_cpp.hpp ****     Semaphore (unsigned init = 1){
  53              		.loc 2 39 34
  54 004c 17090000 		la	s2,_ZTV9Semaphore
  54      03390900 
  55 0054 13090901 		addi	s2,s2,16
  56 0058 23302501 		sd	s2,0(a0)
  57              	.LVL5:
  58              	.LBE17:
  59              	.LBE16:
  60              		.loc 1 5 19
  61 005c 23B0A402 		sd	a0,32(s1)
   6:test/buffer_CPP_API.cpp ****     spaceAvailable = new Semaphore(_cap);
  62              		.loc 1 6 5 is_stmt 1
  63              		.loc 1 6 40 is_stmt 0
  64 0060 13050001 		li	a0,16
  65 0064 97000000 		call	_Znwm@plt
  65      E7800000 
  66              	.LVL6:
GAS LISTING /tmp/cckQMxtt.s 			page 3


  67              	.LBB18:
  68              	.LBB19:
  69              		.loc 2 39 34
  70 006c 23302501 		sd	s2,0(a0)
  71              	.LVL7:
  72              	.LBE19:
  73              	.LBE18:
  74              		.loc 1 6 20
  75 0070 23BCA400 		sd	a0,24(s1)
   7:test/buffer_CPP_API.cpp ****     mutexHead = new Semaphore(1);
  76              		.loc 1 7 5 is_stmt 1
  77              		.loc 1 7 32 is_stmt 0
  78 0074 13050001 		li	a0,16
  79 0078 97000000 		call	_Znwm@plt
  79      E7800000 
  80              	.LVL8:
  81              	.LBB20:
  82              	.LBB21:
  83              		.loc 2 39 34
  84 0080 23302501 		sd	s2,0(a0)
  85              	.LVL9:
  86              	.LBE21:
  87              	.LBE20:
  88              		.loc 1 7 15
  89 0084 23B4A402 		sd	a0,40(s1)
   8:test/buffer_CPP_API.cpp ****     mutexTail = new Semaphore(1);
  90              		.loc 1 8 5 is_stmt 1
  91              		.loc 1 8 32 is_stmt 0
  92 0088 13050001 		li	a0,16
  93 008c 97000000 		call	_Znwm@plt
  93      E7800000 
  94              	.LVL10:
  95              	.LBB22:
  96              	.LBB23:
  97              		.loc 2 39 34
  98 0094 23302501 		sd	s2,0(a0)
  99              	.LVL11:
 100              	.LBE23:
 101              	.LBE22:
 102              		.loc 1 8 15
 103 0098 23B8A402 		sd	a0,48(s1)
 104              	.LBE15:
   9:test/buffer_CPP_API.cpp **** }
 105              		.loc 1 9 1
 106 009c 83308101 		ld	ra,24(sp)
 107              		.cfi_restore 1
 108 00a0 03340101 		ld	s0,16(sp)
 109              		.cfi_restore 8
 110              		.cfi_def_cfa 2, 32
 111 00a4 83348100 		ld	s1,8(sp)
 112              		.cfi_restore 9
 113              	.LVL12:
 114 00a8 03390100 		ld	s2,0(sp)
 115              		.cfi_restore 18
 116 00ac 13010102 		addi	sp,sp,32
 117              		.cfi_def_cfa_offset 0
 118 00b0 67800000 		jr	ra
GAS LISTING /tmp/cckQMxtt.s 			page 4


 119              		.cfi_endproc
 120              	.LFE37:
 122              		.globl	_ZN9BufferCPPC1Ei
 123              		.set	_ZN9BufferCPPC1Ei,_ZN9BufferCPPC2Ei
 124              		.align	2
 125              		.globl	_ZN9BufferCPP3putEi
 127              	_ZN9BufferCPP3putEi:
 128              	.LFB42:
  10:test/buffer_CPP_API.cpp **** 
  11:test/buffer_CPP_API.cpp **** BufferCPP::~BufferCPP() {
  12:test/buffer_CPP_API.cpp ****     Console::putc('\n');
  13:test/buffer_CPP_API.cpp ****     printString("Buffer deleted!\n");
  14:test/buffer_CPP_API.cpp ****     while (getCnt()) {
  15:test/buffer_CPP_API.cpp ****         char ch = buffer[head];
  16:test/buffer_CPP_API.cpp ****         Console::putc(ch);
  17:test/buffer_CPP_API.cpp ****         head = (head + 1) % cap;
  18:test/buffer_CPP_API.cpp ****     }
  19:test/buffer_CPP_API.cpp ****     Console::putc('!');
  20:test/buffer_CPP_API.cpp ****     Console::putc('\n');
  21:test/buffer_CPP_API.cpp **** 
  22:test/buffer_CPP_API.cpp ****     mem_free(buffer);
  23:test/buffer_CPP_API.cpp ****     delete itemAvailable;
  24:test/buffer_CPP_API.cpp ****     delete spaceAvailable;
  25:test/buffer_CPP_API.cpp ****     delete mutexTail;
  26:test/buffer_CPP_API.cpp ****     delete mutexHead;
  27:test/buffer_CPP_API.cpp **** 
  28:test/buffer_CPP_API.cpp **** }
  29:test/buffer_CPP_API.cpp **** 
  30:test/buffer_CPP_API.cpp **** void BufferCPP::put(int val) {
 129              		.loc 1 30 30 is_stmt 1
 130              		.cfi_startproc
 131              	.LVL13:
 132 00b4 130101FE 		addi	sp,sp,-32
 133              		.cfi_def_cfa_offset 32
 134 00b8 233C1100 		sd	ra,24(sp)
 135 00bc 23388100 		sd	s0,16(sp)
 136 00c0 23349100 		sd	s1,8(sp)
 137 00c4 23302101 		sd	s2,0(sp)
 138              		.cfi_offset 1, -8
 139              		.cfi_offset 8, -16
 140              		.cfi_offset 9, -24
 141              		.cfi_offset 18, -32
 142 00c8 13040102 		addi	s0,sp,32
 143              		.cfi_def_cfa 8, 0
 144 00cc 93040500 		mv	s1,a0
 145 00d0 13890500 		mv	s2,a1
  31:test/buffer_CPP_API.cpp ****     spaceAvailable->wait();
 146              		.loc 1 31 5
 147              		.loc 1 31 25 is_stmt 0
 148 00d4 03358501 		ld	a0,24(a0)
 149              	.LVL14:
 150 00d8 97000000 		call	_ZN9Semaphore4waitEv@plt
 150      E7800000 
 151              	.LVL15:
  32:test/buffer_CPP_API.cpp **** 
  33:test/buffer_CPP_API.cpp ****     mutexTail->wait();
 152              		.loc 1 33 5 is_stmt 1
GAS LISTING /tmp/cckQMxtt.s 			page 5


 153              		.loc 1 33 20 is_stmt 0
 154 00e0 03B50403 		ld	a0,48(s1)
 155 00e4 97000000 		call	_ZN9Semaphore4waitEv@plt
 155      E7800000 
 156              	.LVL16:
  34:test/buffer_CPP_API.cpp ****     buffer[tail] = val;
 157              		.loc 1 34 5 is_stmt 1
 158 00ec 83B78400 		ld	a5,8(s1)
 159              		.loc 1 34 12 is_stmt 0
 160 00f0 03A74401 		lw	a4,20(s1)
 161              		.loc 1 34 16
 162 00f4 13172700 		slli	a4,a4,2
 163 00f8 B387E700 		add	a5,a5,a4
 164              		.loc 1 34 18
 165 00fc 23A02701 		sw	s2,0(a5)
  35:test/buffer_CPP_API.cpp ****     tail = (tail + 1) % cap;
 166              		.loc 1 35 5 is_stmt 1
 167              		.loc 1 35 13 is_stmt 0
 168 0100 83A74401 		lw	a5,20(s1)
 169              		.loc 1 35 18
 170 0104 9B871700 		addiw	a5,a5,1
 171              		.loc 1 35 25
 172 0108 03A70400 		lw	a4,0(s1)
 173              		.loc 1 35 23
 174 010c BBE7E702 		remw	a5,a5,a4
 175              		.loc 1 35 10
 176 0110 23AAF400 		sw	a5,20(s1)
  36:test/buffer_CPP_API.cpp ****     mutexTail->signal();
 177              		.loc 1 36 5 is_stmt 1
 178              		.loc 1 36 22 is_stmt 0
 179 0114 03B50403 		ld	a0,48(s1)
 180 0118 97000000 		call	_ZN9Semaphore6signalEv@plt
 180      E7800000 
 181              	.LVL17:
  37:test/buffer_CPP_API.cpp **** 
  38:test/buffer_CPP_API.cpp ****     itemAvailable->signal();
 182              		.loc 1 38 5 is_stmt 1
 183              		.loc 1 38 26 is_stmt 0
 184 0120 03B50402 		ld	a0,32(s1)
 185 0124 97000000 		call	_ZN9Semaphore6signalEv@plt
 185      E7800000 
 186              	.LVL18:
  39:test/buffer_CPP_API.cpp **** 
  40:test/buffer_CPP_API.cpp **** }
 187              		.loc 1 40 1
 188 012c 83308101 		ld	ra,24(sp)
 189              		.cfi_restore 1
 190 0130 03340101 		ld	s0,16(sp)
 191              		.cfi_restore 8
 192              		.cfi_def_cfa 2, 32
 193 0134 83348100 		ld	s1,8(sp)
 194              		.cfi_restore 9
 195              	.LVL19:
 196 0138 03390100 		ld	s2,0(sp)
 197              		.cfi_restore 18
 198 013c 13010102 		addi	sp,sp,32
 199              		.cfi_def_cfa_offset 0
GAS LISTING /tmp/cckQMxtt.s 			page 6


 200 0140 67800000 		jr	ra
 201              		.cfi_endproc
 202              	.LFE42:
 204              		.align	2
 205              		.globl	_ZN9BufferCPP3getEv
 207              	_ZN9BufferCPP3getEv:
 208              	.LFB43:
  41:test/buffer_CPP_API.cpp **** 
  42:test/buffer_CPP_API.cpp **** int BufferCPP::get() {
 209              		.loc 1 42 22 is_stmt 1
 210              		.cfi_startproc
 211              	.LVL20:
 212 0144 130101FE 		addi	sp,sp,-32
 213              		.cfi_def_cfa_offset 32
 214 0148 233C1100 		sd	ra,24(sp)
 215 014c 23388100 		sd	s0,16(sp)
 216 0150 23349100 		sd	s1,8(sp)
 217 0154 23302101 		sd	s2,0(sp)
 218              		.cfi_offset 1, -8
 219              		.cfi_offset 8, -16
 220              		.cfi_offset 9, -24
 221              		.cfi_offset 18, -32
 222 0158 13040102 		addi	s0,sp,32
 223              		.cfi_def_cfa 8, 0
 224 015c 93040500 		mv	s1,a0
  43:test/buffer_CPP_API.cpp ****     itemAvailable->wait();
 225              		.loc 1 43 5
 226              		.loc 1 43 24 is_stmt 0
 227 0160 03350502 		ld	a0,32(a0)
 228              	.LVL21:
 229 0164 97000000 		call	_ZN9Semaphore4waitEv@plt
 229      E7800000 
 230              	.LVL22:
  44:test/buffer_CPP_API.cpp **** 
  45:test/buffer_CPP_API.cpp ****     mutexHead->wait();
 231              		.loc 1 45 5 is_stmt 1
 232              		.loc 1 45 20 is_stmt 0
 233 016c 03B58402 		ld	a0,40(s1)
 234 0170 97000000 		call	_ZN9Semaphore4waitEv@plt
 234      E7800000 
 235              	.LVL23:
  46:test/buffer_CPP_API.cpp **** 
  47:test/buffer_CPP_API.cpp ****     int ret = buffer[head];
 236              		.loc 1 47 5 is_stmt 1
 237              		.loc 1 47 15 is_stmt 0
 238 0178 03B78400 		ld	a4,8(s1)
 239              		.loc 1 47 22
 240 017c 83A70401 		lw	a5,16(s1)
 241              		.loc 1 47 26
 242 0180 93962700 		slli	a3,a5,2
 243 0184 3307D700 		add	a4,a4,a3
 244              		.loc 1 47 9
 245 0188 03290700 		lw	s2,0(a4)
 246              	.LVL24:
  48:test/buffer_CPP_API.cpp ****     head = (head + 1) % cap;
 247              		.loc 1 48 5 is_stmt 1
 248              		.loc 1 48 18 is_stmt 0
GAS LISTING /tmp/cckQMxtt.s 			page 7


 249 018c 9B871700 		addiw	a5,a5,1
 250              		.loc 1 48 25
 251 0190 03A70400 		lw	a4,0(s1)
 252              		.loc 1 48 23
 253 0194 BBE7E702 		remw	a5,a5,a4
 254              		.loc 1 48 10
 255 0198 23A8F400 		sw	a5,16(s1)
  49:test/buffer_CPP_API.cpp ****     mutexHead->signal();
 256              		.loc 1 49 5 is_stmt 1
 257              		.loc 1 49 22 is_stmt 0
 258 019c 03B58402 		ld	a0,40(s1)
 259 01a0 97000000 		call	_ZN9Semaphore6signalEv@plt
 259      E7800000 
 260              	.LVL25:
  50:test/buffer_CPP_API.cpp **** 
  51:test/buffer_CPP_API.cpp ****     spaceAvailable->signal();
 261              		.loc 1 51 5 is_stmt 1
 262              		.loc 1 51 27 is_stmt 0
 263 01a8 03B58401 		ld	a0,24(s1)
 264 01ac 97000000 		call	_ZN9Semaphore6signalEv@plt
 264      E7800000 
 265              	.LVL26:
  52:test/buffer_CPP_API.cpp **** 
  53:test/buffer_CPP_API.cpp ****     return ret;
 266              		.loc 1 53 5 is_stmt 1
  54:test/buffer_CPP_API.cpp **** }
 267              		.loc 1 54 1 is_stmt 0
 268 01b4 13050900 		mv	a0,s2
 269 01b8 83308101 		ld	ra,24(sp)
 270              		.cfi_restore 1
 271 01bc 03340101 		ld	s0,16(sp)
 272              		.cfi_restore 8
 273              		.cfi_def_cfa 2, 32
 274 01c0 83348100 		ld	s1,8(sp)
 275              		.cfi_restore 9
 276              	.LVL27:
 277 01c4 03390100 		ld	s2,0(sp)
 278              		.cfi_restore 18
 279              	.LVL28:
 280 01c8 13010102 		addi	sp,sp,32
 281              		.cfi_def_cfa_offset 0
 282 01cc 67800000 		jr	ra
 283              		.cfi_endproc
 284              	.LFE43:
 286              		.align	2
 287              		.globl	_ZN9BufferCPP6getCntEv
 289              	_ZN9BufferCPP6getCntEv:
 290              	.LFB44:
  55:test/buffer_CPP_API.cpp **** 
  56:test/buffer_CPP_API.cpp **** int BufferCPP::getCnt() {
 291              		.loc 1 56 25 is_stmt 1
 292              		.cfi_startproc
 293              	.LVL29:
 294 01d0 130101FE 		addi	sp,sp,-32
 295              		.cfi_def_cfa_offset 32
 296 01d4 233C1100 		sd	ra,24(sp)
 297 01d8 23388100 		sd	s0,16(sp)
GAS LISTING /tmp/cckQMxtt.s 			page 8


 298 01dc 23349100 		sd	s1,8(sp)
 299 01e0 23302101 		sd	s2,0(sp)
 300              		.cfi_offset 1, -8
 301              		.cfi_offset 8, -16
 302              		.cfi_offset 9, -24
 303              		.cfi_offset 18, -32
 304 01e4 13040102 		addi	s0,sp,32
 305              		.cfi_def_cfa 8, 0
 306 01e8 93040500 		mv	s1,a0
  57:test/buffer_CPP_API.cpp ****     int ret;
 307              		.loc 1 57 5
  58:test/buffer_CPP_API.cpp **** 
  59:test/buffer_CPP_API.cpp ****     mutexHead->wait();
 308              		.loc 1 59 5
 309              		.loc 1 59 20 is_stmt 0
 310 01ec 03358502 		ld	a0,40(a0)
 311              	.LVL30:
 312 01f0 97000000 		call	_ZN9Semaphore4waitEv@plt
 312      E7800000 
 313              	.LVL31:
  60:test/buffer_CPP_API.cpp ****     mutexTail->wait();
 314              		.loc 1 60 5 is_stmt 1
 315              		.loc 1 60 20 is_stmt 0
 316 01f8 03B50403 		ld	a0,48(s1)
 317 01fc 97000000 		call	_ZN9Semaphore4waitEv@plt
 317      E7800000 
 318              	.LVL32:
  61:test/buffer_CPP_API.cpp **** 
  62:test/buffer_CPP_API.cpp ****     if (tail >= head) {
 319              		.loc 1 62 5 is_stmt 1
 320              		.loc 1 62 9 is_stmt 0
 321 0204 83A74401 		lw	a5,20(s1)
 322              		.loc 1 62 17
 323 0208 03A90401 		lw	s2,16(s1)
 324              		.loc 1 62 5
 325 020c 63CE2703 		blt	a5,s2,.L8
  63:test/buffer_CPP_API.cpp ****         ret = tail - head;
 326              		.loc 1 63 9 is_stmt 1
 327              		.loc 1 63 13 is_stmt 0
 328 0210 3B892741 		subw	s2,a5,s2
 329              	.LVL33:
 330              	.L9:
  64:test/buffer_CPP_API.cpp ****     } else {
  65:test/buffer_CPP_API.cpp ****         ret = cap - head + tail;
  66:test/buffer_CPP_API.cpp ****     }
  67:test/buffer_CPP_API.cpp **** 
  68:test/buffer_CPP_API.cpp ****     mutexTail->signal();
 331              		.loc 1 68 5 is_stmt 1
 332              		.loc 1 68 22 is_stmt 0
 333 0214 03B50403 		ld	a0,48(s1)
 334 0218 97000000 		call	_ZN9Semaphore6signalEv@plt
 334      E7800000 
 335              	.LVL34:
  69:test/buffer_CPP_API.cpp ****     mutexHead->signal();
 336              		.loc 1 69 5 is_stmt 1
 337              		.loc 1 69 22 is_stmt 0
 338 0220 03B58402 		ld	a0,40(s1)
GAS LISTING /tmp/cckQMxtt.s 			page 9


 339 0224 97000000 		call	_ZN9Semaphore6signalEv@plt
 339      E7800000 
 340              	.LVL35:
  70:test/buffer_CPP_API.cpp **** 
  71:test/buffer_CPP_API.cpp ****     return ret;
 341              		.loc 1 71 5 is_stmt 1
  72:test/buffer_CPP_API.cpp **** }
 342              		.loc 1 72 1 is_stmt 0
 343 022c 13050900 		mv	a0,s2
 344 0230 83308101 		ld	ra,24(sp)
 345              		.cfi_remember_state
 346              		.cfi_restore 1
 347 0234 03340101 		ld	s0,16(sp)
 348              		.cfi_restore 8
 349              		.cfi_def_cfa 2, 32
 350 0238 83348100 		ld	s1,8(sp)
 351              		.cfi_restore 9
 352              	.LVL36:
 353 023c 03390100 		ld	s2,0(sp)
 354              		.cfi_restore 18
 355              	.LVL37:
 356 0240 13010102 		addi	sp,sp,32
 357              		.cfi_def_cfa_offset 0
 358 0244 67800000 		jr	ra
 359              	.LVL38:
 360              	.L8:
 361              		.cfi_restore_state
  65:test/buffer_CPP_API.cpp ****     }
 362              		.loc 1 65 9 is_stmt 1
  65:test/buffer_CPP_API.cpp ****     }
 363              		.loc 1 65 15 is_stmt 0
 364 0248 03A70400 		lw	a4,0(s1)
  65:test/buffer_CPP_API.cpp ****     }
 365              		.loc 1 65 19
 366 024c 3B092741 		subw	s2,a4,s2
  65:test/buffer_CPP_API.cpp ****     }
 367              		.loc 1 65 13
 368 0250 3B09F900 		addw	s2,s2,a5
 369 0254 6FF01FFC 		j	.L9
 370              		.cfi_endproc
 371              	.LFE44:
 373              		.section	.rodata.str1.8,"aMS",@progbits,1
 374              		.align	3
 375              	.LC0:
 376 0000 42756666 		.string	"Buffer deleted!\n"
 376      65722064 
 376      656C6574 
 376      6564210A 
 376      00
 377              		.text
 378              		.align	2
 379              		.globl	_ZN9BufferCPPD2Ev
 381              	_ZN9BufferCPPD2Ev:
 382              	.LFB40:
  11:test/buffer_CPP_API.cpp ****     Console::putc('\n');
 383              		.loc 1 11 1 is_stmt 1
 384              		.cfi_startproc
GAS LISTING /tmp/cckQMxtt.s 			page 10


 385              		.cfi_personality 0x9b,DW.ref.__gxx_personality_v0
 386              		.cfi_lsda 0x1b,.LLSDA40
 387              	.LVL39:
 388 0258 130101FE 		addi	sp,sp,-32
 389              		.cfi_def_cfa_offset 32
 390 025c 233C1100 		sd	ra,24(sp)
 391 0260 23388100 		sd	s0,16(sp)
 392 0264 23349100 		sd	s1,8(sp)
 393              		.cfi_offset 1, -8
 394              		.cfi_offset 8, -16
 395              		.cfi_offset 9, -24
 396 0268 13040102 		addi	s0,sp,32
 397              		.cfi_def_cfa 8, 0
 398 026c 93040500 		mv	s1,a0
 399              	.LBB24:
  12:test/buffer_CPP_API.cpp ****     printString("Buffer deleted!\n");
 400              		.loc 1 12 5
  12:test/buffer_CPP_API.cpp ****     printString("Buffer deleted!\n");
 401              		.loc 1 12 18 is_stmt 0
 402 0270 1305A000 		li	a0,10
 403              	.LVL40:
 404 0274 97000000 		call	_ZN7Console4putcEc@plt
 404      E7800000 
 405              	.LVL41:
  13:test/buffer_CPP_API.cpp ****     while (getCnt()) {
 406              		.loc 1 13 5 is_stmt 1
  13:test/buffer_CPP_API.cpp ****     while (getCnt()) {
 407              		.loc 1 13 16 is_stmt 0
 408 027c 17050000 		lla	a0,.LC0
 408      13050500 
 409 0284 97000000 		call	_Z11printStringPKc@plt
 409      E7800000 
 410              	.LVL42:
 411              	.L13:
  14:test/buffer_CPP_API.cpp ****         char ch = buffer[head];
 412              		.loc 1 14 5 is_stmt 1
  14:test/buffer_CPP_API.cpp ****         char ch = buffer[head];
 413              		.loc 1 14 19
  14:test/buffer_CPP_API.cpp ****         char ch = buffer[head];
 414              		.loc 1 14 18 is_stmt 0
 415 028c 13850400 		mv	a0,s1
 416 0290 97000000 		call	_ZN9BufferCPP6getCntEv
 416      E7800000 
 417              	.LVL43:
  14:test/buffer_CPP_API.cpp ****         char ch = buffer[head];
 418              		.loc 1 14 19
 419 0298 630C0502 		beqz	a0,.L12
 420              	.LBB25:
  15:test/buffer_CPP_API.cpp ****         Console::putc(ch);
 421              		.loc 1 15 9 is_stmt 1
  15:test/buffer_CPP_API.cpp ****         Console::putc(ch);
 422              		.loc 1 15 19 is_stmt 0
 423 029c 83B78400 		ld	a5,8(s1)
  15:test/buffer_CPP_API.cpp ****         Console::putc(ch);
 424              		.loc 1 15 26
 425 02a0 03A70401 		lw	a4,16(s1)
  15:test/buffer_CPP_API.cpp ****         Console::putc(ch);
GAS LISTING /tmp/cckQMxtt.s 			page 11


 426              		.loc 1 15 30
 427 02a4 13172700 		slli	a4,a4,2
 428 02a8 B387E700 		add	a5,a5,a4
 429              	.LVL44:
  16:test/buffer_CPP_API.cpp ****         head = (head + 1) % cap;
 430              		.loc 1 16 9 is_stmt 1
  16:test/buffer_CPP_API.cpp ****         head = (head + 1) % cap;
 431              		.loc 1 16 22 is_stmt 0
 432 02ac 03C50700 		lbu	a0,0(a5)
 433 02b0 97000000 		call	_ZN7Console4putcEc@plt
 433      E7800000 
 434              	.LVL45:
  17:test/buffer_CPP_API.cpp ****     }
 435              		.loc 1 17 9 is_stmt 1
  17:test/buffer_CPP_API.cpp ****     }
 436              		.loc 1 17 17 is_stmt 0
 437 02b8 83A70401 		lw	a5,16(s1)
  17:test/buffer_CPP_API.cpp ****     }
 438              		.loc 1 17 22
 439 02bc 9B871700 		addiw	a5,a5,1
  17:test/buffer_CPP_API.cpp ****     }
 440              		.loc 1 17 29
 441 02c0 03A70400 		lw	a4,0(s1)
  17:test/buffer_CPP_API.cpp ****     }
 442              		.loc 1 17 27
 443 02c4 BBE7E702 		remw	a5,a5,a4
  17:test/buffer_CPP_API.cpp ****     }
 444              		.loc 1 17 14
 445 02c8 23A8F400 		sw	a5,16(s1)
 446              	.LBE25:
  14:test/buffer_CPP_API.cpp ****         char ch = buffer[head];
 447              		.loc 1 14 5
 448 02cc 6FF01FFC 		j	.L13
 449              	.L12:
  19:test/buffer_CPP_API.cpp ****     Console::putc('\n');
 450              		.loc 1 19 5 is_stmt 1
  19:test/buffer_CPP_API.cpp ****     Console::putc('\n');
 451              		.loc 1 19 18 is_stmt 0
 452 02d0 13051002 		li	a0,33
 453 02d4 97000000 		call	_ZN7Console4putcEc@plt
 453      E7800000 
 454              	.LVL46:
  20:test/buffer_CPP_API.cpp **** 
 455              		.loc 1 20 5 is_stmt 1
  20:test/buffer_CPP_API.cpp **** 
 456              		.loc 1 20 18 is_stmt 0
 457 02dc 1305A000 		li	a0,10
 458 02e0 97000000 		call	_ZN7Console4putcEc@plt
 458      E7800000 
 459              	.LVL47:
  22:test/buffer_CPP_API.cpp ****     delete itemAvailable;
 460              		.loc 1 22 5 is_stmt 1
  22:test/buffer_CPP_API.cpp ****     delete itemAvailable;
 461              		.loc 1 22 13 is_stmt 0
 462 02e8 03B58400 		ld	a0,8(s1)
 463 02ec 97000000 		call	_Z8mem_freePv@plt
 463      E7800000 
GAS LISTING /tmp/cckQMxtt.s 			page 12


 464              	.LVL48:
  23:test/buffer_CPP_API.cpp ****     delete spaceAvailable;
 465              		.loc 1 23 5 is_stmt 1
  23:test/buffer_CPP_API.cpp ****     delete spaceAvailable;
 466              		.loc 1 23 12 is_stmt 0
 467 02f4 03B50402 		ld	a0,32(s1)
  23:test/buffer_CPP_API.cpp ****     delete spaceAvailable;
 468              		.loc 1 23 25
 469 02f8 63080500 		beqz	a0,.L14
  23:test/buffer_CPP_API.cpp ****     delete spaceAvailable;
 470              		.loc 1 23 12 discriminator 1
 471 02fc 83370500 		ld	a5,0(a0)
 472 0300 83B78700 		ld	a5,8(a5)
 473 0304 E7800700 		jalr	a5
 474              	.LVL49:
 475              	.L14:
  24:test/buffer_CPP_API.cpp ****     delete mutexTail;
 476              		.loc 1 24 5 is_stmt 1
  24:test/buffer_CPP_API.cpp ****     delete mutexTail;
 477              		.loc 1 24 12 is_stmt 0
 478 0308 03B58401 		ld	a0,24(s1)
  24:test/buffer_CPP_API.cpp ****     delete mutexTail;
 479              		.loc 1 24 26
 480 030c 63080500 		beqz	a0,.L15
  24:test/buffer_CPP_API.cpp ****     delete mutexTail;
 481              		.loc 1 24 12 discriminator 1
 482 0310 83370500 		ld	a5,0(a0)
 483 0314 83B78700 		ld	a5,8(a5)
 484 0318 E7800700 		jalr	a5
 485              	.LVL50:
 486              	.L15:
  25:test/buffer_CPP_API.cpp ****     delete mutexHead;
 487              		.loc 1 25 5 is_stmt 1
  25:test/buffer_CPP_API.cpp ****     delete mutexHead;
 488              		.loc 1 25 12 is_stmt 0
 489 031c 03B50403 		ld	a0,48(s1)
  25:test/buffer_CPP_API.cpp ****     delete mutexHead;
 490              		.loc 1 25 21
 491 0320 63080500 		beqz	a0,.L16
  25:test/buffer_CPP_API.cpp ****     delete mutexHead;
 492              		.loc 1 25 12 discriminator 1
 493 0324 83370500 		ld	a5,0(a0)
 494 0328 83B78700 		ld	a5,8(a5)
 495 032c E7800700 		jalr	a5
 496              	.LVL51:
 497              	.L16:
  26:test/buffer_CPP_API.cpp **** 
 498              		.loc 1 26 5 is_stmt 1
  26:test/buffer_CPP_API.cpp **** 
 499              		.loc 1 26 12 is_stmt 0
 500 0330 03B58402 		ld	a0,40(s1)
  26:test/buffer_CPP_API.cpp **** 
 501              		.loc 1 26 21
 502 0334 63080500 		beqz	a0,.L11
  26:test/buffer_CPP_API.cpp **** 
 503              		.loc 1 26 12 discriminator 1
 504 0338 83370500 		ld	a5,0(a0)
GAS LISTING /tmp/cckQMxtt.s 			page 13


 505 033c 83B78700 		ld	a5,8(a5)
 506 0340 E7800700 		jalr	a5
 507              	.LVL52:
 508              	.L11:
 509              	.LBE24:
  28:test/buffer_CPP_API.cpp **** 
 510              		.loc 1 28 1
 511 0344 83308101 		ld	ra,24(sp)
 512              		.cfi_restore 1
 513 0348 03340101 		ld	s0,16(sp)
 514              		.cfi_restore 8
 515              		.cfi_def_cfa 2, 32
 516 034c 83348100 		ld	s1,8(sp)
 517              		.cfi_restore 9
 518              	.LVL53:
 519 0350 13010102 		addi	sp,sp,32
 520              		.cfi_def_cfa_offset 0
 521 0354 67800000 		jr	ra
 522              		.cfi_endproc
 523              	.LFE40:
 524              		.globl	__gxx_personality_v0
 525              		.section	.gcc_except_table,"a",@progbits
 526              	.LLSDA40:
 527 0000 FF       		.byte	0xff
 528 0001 FF       		.byte	0xff
 529 0002 03       		.byte	0x3
 530 0003 00       		.byte	0
 531              		.text
 533              		.globl	_ZN9BufferCPPD1Ev
 534              		.set	_ZN9BufferCPPD1Ev,_ZN9BufferCPPD2Ev
 535              	.Letext0:
 536              		.file 3 "test/../h/../lib/hw.h"
 537              		.file 4 "test/buffer_CPP_API.hpp"
 538              		.file 5 "test/printing.hpp"
 539              		.file 6 "test/../h/syscall_c.h"
 2339              		.align	3
 2342              	DW.ref.__gxx_personality_v0:
 2343 0000 00000000 		.dword	__gxx_personality_v0
 2343      00000000 
 2344              		.ident	"GCC: (Ubuntu 9.4.0-1ubuntu1~20.04) 9.4.0"
 2345              		.section	.note.GNU-stack,"",@progbits
GAS LISTING /tmp/cckQMxtt.s 			page 14


DEFINED SYMBOLS
                            *ABS*:0000000000000000 buffer_CPP_API.cpp
     /tmp/cckQMxtt.s:9      .text:0000000000000000 _ZN9BufferCPPC2Ei
     /tmp/cckQMxtt.s:13     .text:0000000000000000 .L0 
     /tmp/cckQMxtt.s:15     .text:0000000000000000 .L0 
     /tmp/cckQMxtt.s:16     .text:0000000000000004 .L0 
     /tmp/cckQMxtt.s:21     .text:0000000000000014 .L0 
     /tmp/cckQMxtt.s:22     .text:0000000000000014 .L0 
     /tmp/cckQMxtt.s:23     .text:0000000000000014 .L0 
     /tmp/cckQMxtt.s:24     .text:0000000000000014 .L0 
     /tmp/cckQMxtt.s:26     .text:0000000000000018 .L0 
     /tmp/cckQMxtt.s:30     .text:000000000000001c .L0 
     /tmp/cckQMxtt.s:35     .text:0000000000000024 .L0 
     /tmp/cckQMxtt.s:39     .text:0000000000000030 .L0 
     /tmp/cckQMxtt.s:40     .text:0000000000000030 .L0 
     /tmp/cckQMxtt.s:44     .text:000000000000003c .L0 
     /tmp/cckQMxtt.s:46     .text:0000000000000040 .L0 
     /tmp/cckQMxtt.s:47     .text:0000000000000040 .L0 
     /tmp/cckQMxtt.s:54     .text:000000000000004c .L0 
     /tmp/cckQMxtt.s:61     .text:000000000000005c .L0 
     /tmp/cckQMxtt.s:63     .text:0000000000000060 .L0 
     /tmp/cckQMxtt.s:64     .text:0000000000000060 .L0 
     /tmp/cckQMxtt.s:70     .text:000000000000006c .L0 
     /tmp/cckQMxtt.s:75     .text:0000000000000070 .L0 
     /tmp/cckQMxtt.s:77     .text:0000000000000074 .L0 
     /tmp/cckQMxtt.s:78     .text:0000000000000074 .L0 
     /tmp/cckQMxtt.s:84     .text:0000000000000080 .L0 
     /tmp/cckQMxtt.s:89     .text:0000000000000084 .L0 
     /tmp/cckQMxtt.s:91     .text:0000000000000088 .L0 
     /tmp/cckQMxtt.s:92     .text:0000000000000088 .L0 
     /tmp/cckQMxtt.s:98     .text:0000000000000094 .L0 
     /tmp/cckQMxtt.s:103    .text:0000000000000098 .L0 
     /tmp/cckQMxtt.s:106    .text:000000000000009c .L0 
     /tmp/cckQMxtt.s:107    .text:00000000000000a0 .L0 
     /tmp/cckQMxtt.s:109    .text:00000000000000a4 .L0 
     /tmp/cckQMxtt.s:110    .text:00000000000000a4 .L0 
     /tmp/cckQMxtt.s:112    .text:00000000000000a8 .L0 
     /tmp/cckQMxtt.s:115    .text:00000000000000ac .L0 
     /tmp/cckQMxtt.s:117    .text:00000000000000b0 .L0 
     /tmp/cckQMxtt.s:119    .text:00000000000000b4 .L0 
     /tmp/cckQMxtt.s:9      .text:0000000000000000 _ZN9BufferCPPC1Ei
     /tmp/cckQMxtt.s:127    .text:00000000000000b4 _ZN9BufferCPP3putEi
     /tmp/cckQMxtt.s:130    .text:00000000000000b4 .L0 
     /tmp/cckQMxtt.s:132    .text:00000000000000b4 .L0 
     /tmp/cckQMxtt.s:133    .text:00000000000000b8 .L0 
     /tmp/cckQMxtt.s:138    .text:00000000000000c8 .L0 
     /tmp/cckQMxtt.s:139    .text:00000000000000c8 .L0 
     /tmp/cckQMxtt.s:140    .text:00000000000000c8 .L0 
     /tmp/cckQMxtt.s:141    .text:00000000000000c8 .L0 
     /tmp/cckQMxtt.s:143    .text:00000000000000cc .L0 
     /tmp/cckQMxtt.s:147    .text:00000000000000d4 .L0 
     /tmp/cckQMxtt.s:148    .text:00000000000000d4 .L0 
     /tmp/cckQMxtt.s:153    .text:00000000000000e0 .L0 
     /tmp/cckQMxtt.s:154    .text:00000000000000e0 .L0 
     /tmp/cckQMxtt.s:158    .text:00000000000000ec .L0 
     /tmp/cckQMxtt.s:160    .text:00000000000000f0 .L0 
     /tmp/cckQMxtt.s:162    .text:00000000000000f4 .L0 
GAS LISTING /tmp/cckQMxtt.s 			page 15


     /tmp/cckQMxtt.s:165    .text:00000000000000fc .L0 
     /tmp/cckQMxtt.s:167    .text:0000000000000100 .L0 
     /tmp/cckQMxtt.s:168    .text:0000000000000100 .L0 
     /tmp/cckQMxtt.s:170    .text:0000000000000104 .L0 
     /tmp/cckQMxtt.s:172    .text:0000000000000108 .L0 
     /tmp/cckQMxtt.s:174    .text:000000000000010c .L0 
     /tmp/cckQMxtt.s:176    .text:0000000000000110 .L0 
     /tmp/cckQMxtt.s:178    .text:0000000000000114 .L0 
     /tmp/cckQMxtt.s:179    .text:0000000000000114 .L0 
     /tmp/cckQMxtt.s:183    .text:0000000000000120 .L0 
     /tmp/cckQMxtt.s:184    .text:0000000000000120 .L0 
     /tmp/cckQMxtt.s:188    .text:000000000000012c .L0 
     /tmp/cckQMxtt.s:189    .text:0000000000000130 .L0 
     /tmp/cckQMxtt.s:191    .text:0000000000000134 .L0 
     /tmp/cckQMxtt.s:192    .text:0000000000000134 .L0 
     /tmp/cckQMxtt.s:194    .text:0000000000000138 .L0 
     /tmp/cckQMxtt.s:197    .text:000000000000013c .L0 
     /tmp/cckQMxtt.s:199    .text:0000000000000140 .L0 
     /tmp/cckQMxtt.s:201    .text:0000000000000144 .L0 
     /tmp/cckQMxtt.s:207    .text:0000000000000144 _ZN9BufferCPP3getEv
     /tmp/cckQMxtt.s:210    .text:0000000000000144 .L0 
     /tmp/cckQMxtt.s:212    .text:0000000000000144 .L0 
     /tmp/cckQMxtt.s:213    .text:0000000000000148 .L0 
     /tmp/cckQMxtt.s:218    .text:0000000000000158 .L0 
     /tmp/cckQMxtt.s:219    .text:0000000000000158 .L0 
     /tmp/cckQMxtt.s:220    .text:0000000000000158 .L0 
     /tmp/cckQMxtt.s:221    .text:0000000000000158 .L0 
     /tmp/cckQMxtt.s:223    .text:000000000000015c .L0 
     /tmp/cckQMxtt.s:226    .text:0000000000000160 .L0 
     /tmp/cckQMxtt.s:227    .text:0000000000000160 .L0 
     /tmp/cckQMxtt.s:232    .text:000000000000016c .L0 
     /tmp/cckQMxtt.s:233    .text:000000000000016c .L0 
     /tmp/cckQMxtt.s:237    .text:0000000000000178 .L0 
     /tmp/cckQMxtt.s:238    .text:0000000000000178 .L0 
     /tmp/cckQMxtt.s:240    .text:000000000000017c .L0 
     /tmp/cckQMxtt.s:242    .text:0000000000000180 .L0 
     /tmp/cckQMxtt.s:245    .text:0000000000000188 .L0 
     /tmp/cckQMxtt.s:248    .text:000000000000018c .L0 
     /tmp/cckQMxtt.s:249    .text:000000000000018c .L0 
     /tmp/cckQMxtt.s:251    .text:0000000000000190 .L0 
     /tmp/cckQMxtt.s:253    .text:0000000000000194 .L0 
     /tmp/cckQMxtt.s:255    .text:0000000000000198 .L0 
     /tmp/cckQMxtt.s:257    .text:000000000000019c .L0 
     /tmp/cckQMxtt.s:258    .text:000000000000019c .L0 
     /tmp/cckQMxtt.s:262    .text:00000000000001a8 .L0 
     /tmp/cckQMxtt.s:263    .text:00000000000001a8 .L0 
     /tmp/cckQMxtt.s:267    .text:00000000000001b4 .L0 
     /tmp/cckQMxtt.s:268    .text:00000000000001b4 .L0 
     /tmp/cckQMxtt.s:270    .text:00000000000001bc .L0 
     /tmp/cckQMxtt.s:272    .text:00000000000001c0 .L0 
     /tmp/cckQMxtt.s:273    .text:00000000000001c0 .L0 
     /tmp/cckQMxtt.s:275    .text:00000000000001c4 .L0 
     /tmp/cckQMxtt.s:278    .text:00000000000001c8 .L0 
     /tmp/cckQMxtt.s:281    .text:00000000000001cc .L0 
     /tmp/cckQMxtt.s:283    .text:00000000000001d0 .L0 
     /tmp/cckQMxtt.s:289    .text:00000000000001d0 _ZN9BufferCPP6getCntEv
     /tmp/cckQMxtt.s:292    .text:00000000000001d0 .L0 
GAS LISTING /tmp/cckQMxtt.s 			page 16


     /tmp/cckQMxtt.s:294    .text:00000000000001d0 .L0 
     /tmp/cckQMxtt.s:295    .text:00000000000001d4 .L0 
     /tmp/cckQMxtt.s:300    .text:00000000000001e4 .L0 
     /tmp/cckQMxtt.s:301    .text:00000000000001e4 .L0 
     /tmp/cckQMxtt.s:302    .text:00000000000001e4 .L0 
     /tmp/cckQMxtt.s:303    .text:00000000000001e4 .L0 
     /tmp/cckQMxtt.s:305    .text:00000000000001e8 .L0 
     /tmp/cckQMxtt.s:308    .text:00000000000001ec .L0 
     /tmp/cckQMxtt.s:309    .text:00000000000001ec .L0 
     /tmp/cckQMxtt.s:310    .text:00000000000001ec .L0 
     /tmp/cckQMxtt.s:315    .text:00000000000001f8 .L0 
     /tmp/cckQMxtt.s:316    .text:00000000000001f8 .L0 
     /tmp/cckQMxtt.s:320    .text:0000000000000204 .L0 
     /tmp/cckQMxtt.s:321    .text:0000000000000204 .L0 
     /tmp/cckQMxtt.s:323    .text:0000000000000208 .L0 
     /tmp/cckQMxtt.s:325    .text:000000000000020c .L0 
     /tmp/cckQMxtt.s:327    .text:0000000000000210 .L0 
     /tmp/cckQMxtt.s:328    .text:0000000000000210 .L0 
     /tmp/cckQMxtt.s:332    .text:0000000000000214 .L0 
     /tmp/cckQMxtt.s:333    .text:0000000000000214 .L0 
     /tmp/cckQMxtt.s:337    .text:0000000000000220 .L0 
     /tmp/cckQMxtt.s:338    .text:0000000000000220 .L0 
     /tmp/cckQMxtt.s:342    .text:000000000000022c .L0 
     /tmp/cckQMxtt.s:343    .text:000000000000022c .L0 
     /tmp/cckQMxtt.s:345    .text:0000000000000234 .L0 
     /tmp/cckQMxtt.s:346    .text:0000000000000234 .L0 
     /tmp/cckQMxtt.s:348    .text:0000000000000238 .L0 
     /tmp/cckQMxtt.s:349    .text:0000000000000238 .L0 
     /tmp/cckQMxtt.s:351    .text:000000000000023c .L0 
     /tmp/cckQMxtt.s:354    .text:0000000000000240 .L0 
     /tmp/cckQMxtt.s:357    .text:0000000000000244 .L0 
     /tmp/cckQMxtt.s:361    .text:0000000000000248 .L0 
     /tmp/cckQMxtt.s:363    .text:0000000000000248 .L0 
     /tmp/cckQMxtt.s:364    .text:0000000000000248 .L0 
     /tmp/cckQMxtt.s:366    .text:000000000000024c .L0 
     /tmp/cckQMxtt.s:368    .text:0000000000000250 .L0 
     /tmp/cckQMxtt.s:370    .text:0000000000000258 .L0 
     /tmp/cckQMxtt.s:381    .text:0000000000000258 _ZN9BufferCPPD2Ev
     /tmp/cckQMxtt.s:384    .text:0000000000000258 .L0 
     /tmp/cckQMxtt.s:2342   .data.rel.local.DW.ref.__gxx_personality_v0:0000000000000000 DW.ref.__gxx_personality_v0
     /tmp/cckQMxtt.s:388    .text:0000000000000258 .L0 
     /tmp/cckQMxtt.s:389    .text:000000000000025c .L0 
     /tmp/cckQMxtt.s:393    .text:0000000000000268 .L0 
     /tmp/cckQMxtt.s:394    .text:0000000000000268 .L0 
     /tmp/cckQMxtt.s:395    .text:0000000000000268 .L0 
     /tmp/cckQMxtt.s:397    .text:000000000000026c .L0 
     /tmp/cckQMxtt.s:401    .text:0000000000000270 .L0 
     /tmp/cckQMxtt.s:402    .text:0000000000000270 .L0 
     /tmp/cckQMxtt.s:407    .text:000000000000027c .L0 
     /tmp/cckQMxtt.s:408    .text:000000000000027c .L0 
     /tmp/cckQMxtt.s:413    .text:000000000000028c .L0 
     /tmp/cckQMxtt.s:414    .text:000000000000028c .L0 
     /tmp/cckQMxtt.s:415    .text:000000000000028c .L0 
     /tmp/cckQMxtt.s:419    .text:0000000000000298 .L0 
     /tmp/cckQMxtt.s:422    .text:000000000000029c .L0 
     /tmp/cckQMxtt.s:423    .text:000000000000029c .L0 
     /tmp/cckQMxtt.s:425    .text:00000000000002a0 .L0 
GAS LISTING /tmp/cckQMxtt.s 			page 17


     /tmp/cckQMxtt.s:427    .text:00000000000002a4 .L0 
     /tmp/cckQMxtt.s:431    .text:00000000000002ac .L0 
     /tmp/cckQMxtt.s:432    .text:00000000000002ac .L0 
     /tmp/cckQMxtt.s:436    .text:00000000000002b8 .L0 
     /tmp/cckQMxtt.s:437    .text:00000000000002b8 .L0 
     /tmp/cckQMxtt.s:439    .text:00000000000002bc .L0 
     /tmp/cckQMxtt.s:441    .text:00000000000002c0 .L0 
     /tmp/cckQMxtt.s:443    .text:00000000000002c4 .L0 
     /tmp/cckQMxtt.s:445    .text:00000000000002c8 .L0 
     /tmp/cckQMxtt.s:448    .text:00000000000002cc .L0 
     /tmp/cckQMxtt.s:451    .text:00000000000002d0 .L0 
     /tmp/cckQMxtt.s:452    .text:00000000000002d0 .L0 
     /tmp/cckQMxtt.s:456    .text:00000000000002dc .L0 
     /tmp/cckQMxtt.s:457    .text:00000000000002dc .L0 
     /tmp/cckQMxtt.s:461    .text:00000000000002e8 .L0 
     /tmp/cckQMxtt.s:462    .text:00000000000002e8 .L0 
     /tmp/cckQMxtt.s:466    .text:00000000000002f4 .L0 
     /tmp/cckQMxtt.s:467    .text:00000000000002f4 .L0 
     /tmp/cckQMxtt.s:469    .text:00000000000002f8 .L0 
     /tmp/cckQMxtt.s:471    .text:00000000000002fc .L0 
     /tmp/cckQMxtt.s:477    .text:0000000000000308 .L0 
     /tmp/cckQMxtt.s:478    .text:0000000000000308 .L0 
     /tmp/cckQMxtt.s:480    .text:000000000000030c .L0 
     /tmp/cckQMxtt.s:482    .text:0000000000000310 .L0 
     /tmp/cckQMxtt.s:488    .text:000000000000031c .L0 
     /tmp/cckQMxtt.s:489    .text:000000000000031c .L0 
     /tmp/cckQMxtt.s:491    .text:0000000000000320 .L0 
     /tmp/cckQMxtt.s:493    .text:0000000000000324 .L0 
     /tmp/cckQMxtt.s:499    .text:0000000000000330 .L0 
     /tmp/cckQMxtt.s:500    .text:0000000000000330 .L0 
     /tmp/cckQMxtt.s:502    .text:0000000000000334 .L0 
     /tmp/cckQMxtt.s:504    .text:0000000000000338 .L0 
     /tmp/cckQMxtt.s:511    .text:0000000000000344 .L0 
     /tmp/cckQMxtt.s:512    .text:0000000000000348 .L0 
     /tmp/cckQMxtt.s:514    .text:000000000000034c .L0 
     /tmp/cckQMxtt.s:515    .text:000000000000034c .L0 
     /tmp/cckQMxtt.s:517    .text:0000000000000350 .L0 
     /tmp/cckQMxtt.s:520    .text:0000000000000354 .L0 
     /tmp/cckQMxtt.s:522    .text:0000000000000358 .L0 
     /tmp/cckQMxtt.s:381    .text:0000000000000258 _ZN9BufferCPPD1Ev
     /tmp/cckQMxtt.s:540    .text:0000000000000358 .L0 
     /tmp/cckQMxtt.s:54     .text:000000000000004c .L0 
     /tmp/cckQMxtt.s:375    .rodata.str1.8:0000000000000000 .LC0
     /tmp/cckQMxtt.s:408    .text:000000000000027c .L0 
     /tmp/cckQMxtt.s:360    .text:0000000000000248 .L8
     /tmp/cckQMxtt.s:330    .text:0000000000000214 .L9
     /tmp/cckQMxtt.s:449    .text:00000000000002d0 .L12
     /tmp/cckQMxtt.s:411    .text:000000000000028c .L13
     /tmp/cckQMxtt.s:475    .text:0000000000000308 .L14
     /tmp/cckQMxtt.s:486    .text:000000000000031c .L15
     /tmp/cckQMxtt.s:497    .text:0000000000000330 .L16
     /tmp/cckQMxtt.s:508    .text:0000000000000344 .L11
     /tmp/cckQMxtt.s:1296   .debug_abbrev:0000000000000000 .Ldebug_abbrev0
     /tmp/cckQMxtt.s:2320   .debug_str:00000000000002ca .LASF53
     /tmp/cckQMxtt.s:2332   .debug_str:00000000000003de .LASF54
     /tmp/cckQMxtt.s:2250   .debug_str:00000000000000f9 .LASF55
     /tmp/cckQMxtt.s:5      .text:0000000000000000 .Ltext0
GAS LISTING /tmp/cckQMxtt.s 			page 18


     /tmp/cckQMxtt.s:535    .text:0000000000000358 .Letext0
     /tmp/cckQMxtt.s:2208   .debug_line:0000000000000000 .Ldebug_line0
     /tmp/cckQMxtt.s:2278   .debug_str:00000000000001a8 .LASF0
     /tmp/cckQMxtt.s:2286   .debug_str:00000000000001e8 .LASF1
     /tmp/cckQMxtt.s:2272   .debug_str:0000000000000182 .LASF2
     /tmp/cckQMxtt.s:2260   .debug_str:000000000000014f .LASF4
     /tmp/cckQMxtt.s:2314   .debug_str:000000000000029c .LASF3
     /tmp/cckQMxtt.s:2222   .debug_str:000000000000004f .LASF5
     /tmp/cckQMxtt.s:2290   .debug_str:000000000000020e .LASF6
     /tmp/cckQMxtt.s:2276   .debug_str:0000000000000195 .LASF7
     /tmp/cckQMxtt.s:2326   .debug_str:00000000000003af .LASF8
     /tmp/cckQMxtt.s:2252   .debug_str:0000000000000117 .LASF9
     /tmp/cckQMxtt.s:2298   .debug_str:0000000000000239 .LASF10
     /tmp/cckQMxtt.s:2322   .debug_str:000000000000038e .LASF11
     /tmp/cckQMxtt.s:2226   .debug_str:000000000000006a .LASF12
     /tmp/cckQMxtt.s:2212   .debug_str:000000000000000a .LASF13
     /tmp/cckQMxtt.s:2232   .debug_str:000000000000009f .LASF14
     /tmp/cckQMxtt.s:2312   .debug_str:0000000000000286 .LASF15
     /tmp/cckQMxtt.s:2240   .debug_str:00000000000000c5 .LASF16
     /tmp/cckQMxtt.s:2292   .debug_str:0000000000000221 .LASF17
     /tmp/cckQMxtt.s:2248   .debug_str:00000000000000f4 .LASF18
     /tmp/cckQMxtt.s:2258   .debug_str:0000000000000147 .LASF19
     /tmp/cckQMxtt.s:2214   .debug_str:000000000000001a .LASF56
     /tmp/cckQMxtt.s:2230   .debug_str:000000000000008c .LASF57
     /tmp/cckQMxtt.s:2274   .debug_str:0000000000000190 .LASF58
     /tmp/cckQMxtt.s:2288   .debug_str:00000000000001fb .LASF59
     /tmp/cckQMxtt.s:2308   .debug_str:0000000000000275 .LASF20
     /tmp/cckQMxtt.s:2310   .debug_str:000000000000027f .LASF21
     /tmp/cckQMxtt.s:2242   .debug_str:00000000000000db .LASF22
     /tmp/cckQMxtt.s:2270   .debug_str:000000000000017d .LASF23
     /tmp/cckQMxtt.s:2244   .debug_str:00000000000000e0 .LASF24
     /tmp/cckQMxtt.s:2254   .debug_str:0000000000000125 .LASF25
     /tmp/cckQMxtt.s:2268   .debug_str:0000000000000173 .LASF26
     /tmp/cckQMxtt.s:2280   .debug_str:00000000000001b5 .LASF27
     /tmp/cckQMxtt.s:2282   .debug_str:00000000000001bf .LASF29
     /tmp/cckQMxtt.s:2264   .debug_str:0000000000000162 .LASF28
     /tmp/cckQMxtt.s:2328   .debug_str:00000000000003bf .LASF30
     /tmp/cckQMxtt.s:2256   .debug_str:0000000000000133 .LASF60
     /tmp/cckQMxtt.s:2224   .debug_str:0000000000000056 .LASF61
     /tmp/cckQMxtt.s:2218   .debug_str:0000000000000031 .LASF31
     /tmp/cckQMxtt.s:2220   .debug_str:0000000000000038 .LASF32
     /tmp/cckQMxtt.s:2210   .debug_str:0000000000000000 .LASF33
     /tmp/cckQMxtt.s:2324   .debug_str:000000000000039d .LASF34
     /tmp/cckQMxtt.s:2306   .debug_str:0000000000000260 .LASF35
     /tmp/cckQMxtt.s:2246   .debug_str:00000000000000ef .LASF37
     /tmp/cckQMxtt.s:2284   .debug_str:00000000000001d1 .LASF36
     /tmp/cckQMxtt.s:2238   .debug_str:00000000000000be .LASF38
     /tmp/cckQMxtt.s:290    .text:00000000000001d0 .LFB44
     /tmp/cckQMxtt.s:371    .text:0000000000000258 .LFE44
     /tmp/cckQMxtt.s:2304   .debug_str:000000000000025b .LASF39
     /tmp/cckQMxtt.s:1989   .debug_loc:0000000000000000 .LLST13
     /tmp/cckQMxtt.s:2011   .debug_loc:000000000000005f .LLST14
     /tmp/cckQMxtt.s:313    .text:00000000000001f8 .LVL31
     /tmp/cckQMxtt.s:318    .text:0000000000000204 .LVL32
     /tmp/cckQMxtt.s:335    .text:0000000000000220 .LVL34
     /tmp/cckQMxtt.s:340    .text:000000000000022c .LVL35
     /tmp/cckQMxtt.s:208    .text:0000000000000144 .LFB43
GAS LISTING /tmp/cckQMxtt.s 			page 19


     /tmp/cckQMxtt.s:284    .text:00000000000001d0 .LFE43
     /tmp/cckQMxtt.s:2018   .debug_loc:0000000000000082 .LLST11
     /tmp/cckQMxtt.s:2036   .debug_loc:00000000000000ce .LLST12
     /tmp/cckQMxtt.s:230    .text:000000000000016c .LVL22
     /tmp/cckQMxtt.s:235    .text:0000000000000178 .LVL23
     /tmp/cckQMxtt.s:260    .text:00000000000001a8 .LVL25
     /tmp/cckQMxtt.s:265    .text:00000000000001b4 .LVL26
     /tmp/cckQMxtt.s:128    .text:00000000000000b4 .LFB42
     /tmp/cckQMxtt.s:202    .text:0000000000000144 .LFE42
     /tmp/cckQMxtt.s:2047   .debug_loc:0000000000000104 .LLST9
     /tmp/cckQMxtt.s:2065   .debug_loc:0000000000000150 .LLST10
     /tmp/cckQMxtt.s:151    .text:00000000000000e0 .LVL15
     /tmp/cckQMxtt.s:156    .text:00000000000000ec .LVL16
     /tmp/cckQMxtt.s:181    .text:0000000000000120 .LVL17
     /tmp/cckQMxtt.s:186    .text:000000000000012c .LVL18
     /tmp/cckQMxtt.s:2300   .debug_str:0000000000000248 .LASF40
     /tmp/cckQMxtt.s:2228   .debug_str:000000000000007a .LASF41
     /tmp/cckQMxtt.s:382    .text:0000000000000258 .LFB40
     /tmp/cckQMxtt.s:523    .text:0000000000000358 .LFE40
     /tmp/cckQMxtt.s:2079   .debug_loc:0000000000000189 .LLST15
     /tmp/cckQMxtt.s:434    .text:00000000000002b8 .LVL45
     /tmp/cckQMxtt.s:420    .text:000000000000029c .LBB25
     /tmp/cckQMxtt.s:446    .text:00000000000002cc .LBE25
     /tmp/cckQMxtt.s:2097   .debug_loc:00000000000001d5 .LLST16
     /tmp/cckQMxtt.s:405    .text:000000000000027c .LVL41
     /tmp/cckQMxtt.s:410    .text:000000000000028c .LVL42
     /tmp/cckQMxtt.s:417    .text:0000000000000298 .LVL43
     /tmp/cckQMxtt.s:454    .text:00000000000002dc .LVL46
     /tmp/cckQMxtt.s:459    .text:00000000000002e8 .LVL47
     /tmp/cckQMxtt.s:464    .text:00000000000002f4 .LVL48
     /tmp/cckQMxtt.s:2234   .debug_str:00000000000000ab .LASF43
     /tmp/cckQMxtt.s:2318   .debug_str:00000000000002b8 .LASF42
     /tmp/cckQMxtt.s:10     .text:0000000000000000 .LFB37
     /tmp/cckQMxtt.s:120    .text:00000000000000b4 .LFE37
     /tmp/cckQMxtt.s:2105   .debug_loc:00000000000001f9 .LLST0
     /tmp/cckQMxtt.s:2123   .debug_loc:0000000000000245 .LLST1
     /tmp/cckQMxtt.s:50     .text:000000000000004c .LBB16
     /tmp/cckQMxtt.s:59     .text:000000000000005c .LBE16
     /tmp/cckQMxtt.s:2143   .debug_loc:0000000000000293 .LLST2
     /tmp/cckQMxtt.s:2151   .debug_loc:00000000000002b7 .LLST3
     /tmp/cckQMxtt.s:67     .text:000000000000006c .LBB18
     /tmp/cckQMxtt.s:73     .text:0000000000000070 .LBE18
     /tmp/cckQMxtt.s:2158   .debug_loc:00000000000002da .LLST4
     /tmp/cckQMxtt.s:81     .text:0000000000000080 .LBB20
     /tmp/cckQMxtt.s:87     .text:0000000000000084 .LBE20
     /tmp/cckQMxtt.s:2165   .debug_loc:00000000000002fd .LLST5
     /tmp/cckQMxtt.s:2173   .debug_loc:0000000000000321 .LLST6
     /tmp/cckQMxtt.s:95     .text:0000000000000094 .LBB22
     /tmp/cckQMxtt.s:101    .text:0000000000000098 .LBE22
     /tmp/cckQMxtt.s:2180   .debug_loc:0000000000000344 .LLST7
     /tmp/cckQMxtt.s:2188   .debug_loc:0000000000000368 .LLST8
     /tmp/cckQMxtt.s:42     .text:000000000000003c .LVL3
     /tmp/cckQMxtt.s:49     .text:000000000000004c .LVL4
     /tmp/cckQMxtt.s:66     .text:000000000000006c .LVL6
     /tmp/cckQMxtt.s:80     .text:0000000000000080 .LVL8
     /tmp/cckQMxtt.s:94     .text:0000000000000094 .LVL10
     /tmp/cckQMxtt.s:2294   .debug_str:0000000000000226 .LASF44
GAS LISTING /tmp/cckQMxtt.s 			page 20


     /tmp/cckQMxtt.s:2216   .debug_str:000000000000001f .LASF62
     /tmp/cckQMxtt.s:2334   .debug_str:00000000000003f6 .LASF45
     /tmp/cckQMxtt.s:2262   .debug_str:0000000000000156 .LASF46
     /tmp/cckQMxtt.s:2296   .debug_str:000000000000022b .LASF47
     /tmp/cckQMxtt.s:2302   .debug_str:0000000000000252 .LASF48
     /tmp/cckQMxtt.s:2236   .debug_str:00000000000000b0 .LASF49
     /tmp/cckQMxtt.s:2316   .debug_str:00000000000002ae .LASF50
     /tmp/cckQMxtt.s:2266   .debug_str:000000000000016d .LASF51
     /tmp/cckQMxtt.s:2330   .debug_str:00000000000003d1 .LASF52
     /tmp/cckQMxtt.s:293    .text:00000000000001d0 .LVL29
     /tmp/cckQMxtt.s:311    .text:00000000000001f0 .LVL30
     /tmp/cckQMxtt.s:352    .text:000000000000023c .LVL36
     /tmp/cckQMxtt.s:359    .text:0000000000000248 .LVL38
     /tmp/cckQMxtt.s:329    .text:0000000000000214 .LVL33
     /tmp/cckQMxtt.s:355    .text:0000000000000240 .LVL37
     /tmp/cckQMxtt.s:211    .text:0000000000000144 .LVL20
     /tmp/cckQMxtt.s:228    .text:0000000000000164 .LVL21
     /tmp/cckQMxtt.s:276    .text:00000000000001c4 .LVL27
     /tmp/cckQMxtt.s:246    .text:000000000000018c .LVL24
     /tmp/cckQMxtt.s:279    .text:00000000000001c8 .LVL28
     /tmp/cckQMxtt.s:131    .text:00000000000000b4 .LVL13
     /tmp/cckQMxtt.s:149    .text:00000000000000d8 .LVL14
     /tmp/cckQMxtt.s:195    .text:0000000000000138 .LVL19
     /tmp/cckQMxtt.s:387    .text:0000000000000258 .LVL39
     /tmp/cckQMxtt.s:403    .text:0000000000000274 .LVL40
     /tmp/cckQMxtt.s:518    .text:0000000000000350 .LVL53
     /tmp/cckQMxtt.s:429    .text:00000000000002ac .LVL44
     /tmp/cckQMxtt.s:14     .text:0000000000000000 .LVL0
     /tmp/cckQMxtt.s:33     .text:0000000000000024 .LVL2
     /tmp/cckQMxtt.s:113    .text:00000000000000a8 .LVL12
     /tmp/cckQMxtt.s:31     .text:0000000000000020 .LVL1
     /tmp/cckQMxtt.s:57     .text:000000000000005c .LVL5
     /tmp/cckQMxtt.s:71     .text:0000000000000070 .LVL7
     /tmp/cckQMxtt.s:85     .text:0000000000000084 .LVL9
     /tmp/cckQMxtt.s:99     .text:0000000000000098 .LVL11
     /tmp/cckQMxtt.s:541    .debug_info:0000000000000000 .Ldebug_info0
     /tmp/cckQMxtt.s:526    .gcc_except_table:0000000000000000 .LLSDA40

UNDEFINED SYMBOLS
_Z9mem_allocm
_Znwm
_ZTV9Semaphore
_ZN9Semaphore4waitEv
_ZN9Semaphore6signalEv
_ZN7Console4putcEc
_Z11printStringPKc
_Z8mem_freePv
__gxx_personality_v0
